
./build/hydrausb3-keyboard.elf:     file format elf32-littleriscv
./build/hydrausb3-keyboard.elf
architecture: riscv:rv32, flags 0x00000112:
EXEC_P, HAS_SYMS, D_PAGED
start address 0x00000000

Program Header:
    LOAD off    0x00001000 vaddr 0x00000000 paddr 0x00000000 align 2**12
         filesz 0x00004b70 memsz 0x00004b70 flags r-x
    LOAD off    0x00006000 vaddr 0x20000000 paddr 0x00004b70 align 2**12
         filesz 0x00000150 memsz 0x00002214 flags rw-
    LOAD off    0x00007000 vaddr 0x20020000 paddr 0x00004cc0 align 2**12
         filesz 0x00000000 memsz 0x00013200 flags rw-
    LOAD off    0x00006800 vaddr 0x20003800 paddr 0x20003800 align 2**12
         filesz 0x00000000 memsz 0x00000800 flags rw-

Sections:
Idx Name           Size      VMA       LMA       File off  Algn  Flags
  0 .init          00000004  00000000  00000000  00001000  2**1  CONTENTS, ALLOC, LOAD, READONLY, CODE
  1 .vector        000000bc  00000004  00000004  00001004  2**1  CONTENTS, ALLOC, LOAD, READONLY, CODE
  2 .text          00004ab0  000000c0  000000c0  000010c0  2**2  CONTENTS, ALLOC, LOAD, READONLY, CODE
  3 .fini          00000000  00004b70  00004b70  00006150  2**0  CONTENTS, ALLOC, LOAD, CODE
  4 .dalign        00000000  20000000  20000000  00006150  2**0  CONTENTS
  5 .dlalign       00000000  00004b70  00004b70  00006150  2**0  CONTENTS
  6 .data          00000150  20000000  00004b70  00006000  2**2  CONTENTS, ALLOC, LOAD, DATA
  7 .bss           000020c4  20000150  00004cc0  00006150  2**4  ALLOC
  8 .DMADATA       00013200  20020000  00004cc0  00007000  2**4  ALLOC
  9 .stack         00000800  20003800  20003800  00006800  2**0  ALLOC
 10 .debug_info    00010444  00000000  00000000  00006150  2**0  CONTENTS, READONLY, DEBUGGING
 11 .debug_abbrev  000030e1  00000000  00000000  00016594  2**0  CONTENTS, READONLY, DEBUGGING
 12 .debug_aranges 00000680  00000000  00000000  00019678  2**3  CONTENTS, READONLY, DEBUGGING
 13 .debug_ranges  000009b0  00000000  00000000  00019cf8  2**3  CONTENTS, READONLY, DEBUGGING
 14 .debug_line    0000a603  00000000  00000000  0001a6a8  2**0  CONTENTS, READONLY, DEBUGGING
 15 .debug_str     00002519  00000000  00000000  00024cab  2**0  CONTENTS, READONLY, DEBUGGING
 16 .comment       00000033  00000000  00000000  000271c4  2**0  CONTENTS, READONLY
 17 .debug_frame   000018a0  00000000  00000000  000271f8  2**2  CONTENTS, READONLY, DEBUGGING
 18 .debug_loc     0000332a  00000000  00000000  00028a98  2**0  CONTENTS, READONLY, DEBUGGING
 19 .stab          00000084  00000000  00000000  0002bdc4  2**2  CONTENTS, READONLY, DEBUGGING
 20 .stabstr       00000117  00000000  00000000  0002be48  2**0  CONTENTS, READONLY, DEBUGGING
SYMBOL TABLE:
00000000 l    d  .init	00000000 .init
00000004 l    d  .vector	00000000 .vector
000000c0 l    d  .text	00000000 .text
00004b70 l    d  .fini	00000000 .fini
20000000 l    d  .dalign	00000000 .dalign
00004b70 l    d  .dlalign	00000000 .dlalign
20000000 l    d  .data	00000000 .data
20000150 l    d  .bss	00000000 .bss
20020000 l    d  .DMADATA	00000000 .DMADATA
20003800 l    d  .stack	00000000 .stack
00000000 l    d  .debug_info	00000000 .debug_info
00000000 l    d  .debug_abbrev	00000000 .debug_abbrev
00000000 l    d  .debug_aranges	00000000 .debug_aranges
00000000 l    d  .debug_ranges	00000000 .debug_ranges
00000000 l    d  .debug_line	00000000 .debug_line
00000000 l    d  .debug_str	00000000 .debug_str
00000000 l    d  .comment	00000000 .comment
00000000 l    d  .debug_frame	00000000 .debug_frame
00000000 l    d  .debug_loc	00000000 .debug_loc
00000000 l    d  .stab	00000000 .stab
00000000 l    d  .stabstr	00000000 .stabstr
00000000 l    df *ABS*	00000000 ./build/startup_CH56x.o
00000004 l       .vector	00000000 _vector_base
0000267a l       .text	00000000 __app_main_enter
00002682 l       .text	00000000 __app_main_exit
00000000 l    df *ABS*	00000000 core_riscv.c
00000000 l    df *ABS*	00000000 CH56x_bsp.c
00000000 l    df *ABS*	00000000 CH56x_clk.c
00000000 l    df *ABS*	00000000 CH56x_debug_log.c
20000168 l     O .bss	00000004 debug_log_buf
00000000 l    df *ABS*	00000000 CH56x_gpio.c
00000000 l    df *ABS*	00000000 CH56x_hspi.c
00000000 l    df *ABS*	00000000 CH56x_serdes.c
00000000 l    df *ABS*	00000000 CH56x_sys.c
00000000 l    df *ABS*	00000000 CH56x_uart.c
00000000 l    df *ABS*	00000000 hydrausb3_v1.c
00000000 l    df *ABS*	00000000 bbio.c
200001b0 l     O .bss	00001000 _descriptorsStore
2000016c l     O .bss	00000001 _command
2000016e l     O .bss	00000002 _descrSize
20000170 l     O .bss	00000001 _descrStringIndex
20000171 l     O .bss	00000001 _subCommand
20000130 l     O .data	00000004 _descriptorsStoreCursor
00000000 l    df *ABS*	00000000 hspi.c
00000000 l    df *ABS*	00000000 log.c
00000000 l    df *ABS*	00000000 main.c
20000000 l     O .data	0000001c boardTopStringDescriptors
20000138 l     O .data	00000004 stringLangID
20000084 l     O .data	0000001a stringDescriptorManufacturer
200000a0 l     O .data	00000010 stringDescriptorProduct
200000b0 l     O .data	0000001c stringDescriptorSerialNumber
20000060 l     O .data	0000000e stringDescriptorConfig
20000070 l     O .data	00000014 stringDescriptorInterface
2000001c l     O .data	0000002e stBoardTopConfigurationDescriptor
2000004c l     O .data	00000012 stBoardTopDeviceDescriptor
20000173 l     O .bss	00000001 SetupReq.4269
20000174 l     O .bss	00000002 SetupReqLen.4270
20000176 l     O .bss	00000001 SetupReqType.4268
20000178 l     O .bss	00000002 bytesToWrite.4266
2000017a l     O .bss	00000001 currentStep.4253
2000017b l     O .bss	00000001 g_isHost
2000017c l     O .bss	00000004 pDataToWrite.4267
00000000 l    df *ABS*	00000000 serdes.c
00000000 l    df *ABS*	00000000 usb20.c
00000000 l    df *ABS*	00000000 usb20-endpoints.c
20000194 l     O .bss	00000004 bufferResetValue.4199
20000198 l     O .bss	00000004 bufferResetValue.4235
2000019c l     O .bss	00000004 bufferResetValue.4245
00000000 l    df *ABS*	00000000 fwrite.c
00000000 l    df *ABS*	00000000 memcpy.c
00000000 l    df *ABS*	00000000 strnlen.c
00000000 l    df *ABS*	00000000 vsnprintf.c
00000000 l    df *ABS*	00000000 wbuf.c
00000000 l    df *ABS*	00000000 wsetup.c
00000000 l    df *ABS*	00000000 fflush.c
00000000 l    df *ABS*	00000000 findfp.c
00002c06 l     F .text	0000006a std
00000000 l    df *ABS*	00000000 fwalk.c
00000000 l    df *ABS*	00000000 makebuf.c
00000000 l    df *ABS*	00000000 nano-mallocr.c
00000000 l    df *ABS*	00000000 nano-mallocr.c
00000000 l    df *ABS*	00000000 nano-vfprintf.c
00000000 l    df *ABS*	00000000 nano-vfprintf_i.c
00000000 l    df *ABS*	00000000 sbrkr.c
00000000 l    df *ABS*	00000000 stdio.c
00000000 l    df *ABS*	00000000 writer.c
00000000 l    df *ABS*	00000000 closer.c
00000000 l    df *ABS*	00000000 fstatr.c
00000000 l    df *ABS*	00000000 isattyr.c
00000000 l    df *ABS*	00000000 lseekr.c
00000000 l    df *ABS*	00000000 memchr.c
00000000 l    df *ABS*	00000000 memmove.c
00000000 l    df *ABS*	00000000 mlock.c
00000000 l    df *ABS*	00000000 nano-mallocr.c
00000000 l    df *ABS*	00000000 readr.c
00000000 l    df *ABS*	00000000 nano-mallocr.c
00000000 l    df *ABS*	00000000 close.c
00000000 l    df *ABS*	00000000 fstat.c
00000000 l    df *ABS*	00000000 isatty.c
00000000 l    df *ABS*	00000000 lseek.c
00000000 l    df *ABS*	00000000 read.c
00000000 l    df *ABS*	00000000 sbrk.c
200001ac l     O .bss	00000004 heap_end.1518
00000000 l    df *ABS*	00000000 impure.c
200000cc l     O .data	00000060 impure_data
00000000 l    df *ABS*	00000000 reent.c
00003a94 g     F .text	00000014 _malloc_usable_size_r
000025cc  w      .text	00000000 GPIO_IRQHandler
00000e86 g     F .text	000000b4 bbio_command_set_endpoints_handle
000024fe g     F .text	000000c2 ep7_transmit_and_update
0000393c g     F .text	00000030 _isatty_r
00001e3c g     F .text	0000011e usb20_endpoint_halt
0000396c g     F .text	00000034 _lseek_r
000025dc  w      .text	00000000 EMMC_IRQHandler
000025d2  w      .text	00000000 LINK_IRQHandler
20000140 g     O .data	00000004 endp7LoggingBuff
2002a200 g     O .DMADATA	00001000 endp4Rbuff
20000930 g       .data	00000000 __global_pointer$
2002c200 g     O .DMADATA	00001000 endp3Rbuff
20000150 g     O .bss	00000008 bsp_ms_nbcycles
00003868 g     F .text	00000036 __sseek
00002cc0 g     F .text	00000066 __sinit
0000289a g     F .text	000000c0 __swbuf_r
0000182a g     F .text	00000064 HardFault_Handler
00000cea g     F .text	00000010 bsp_uled_off
00002c7a g     F .text	00000046 __sfmoreglue
00003a06 g     F .text	00000002 __malloc_unlock
000025c4  w      .text	00000000 SysTick_Handler
20023000 g     O .DMADATA	00000200 endp0RTbuff
000039ba g     F .text	0000004a memmove
000025c0  w      .text	00000000 NMI_Handler
000025e4  w      .text	00000000 UART1_IRQHandler
00000168 g     F .text	00000006 __get_MSTATUS
00001500 g     F .text	0000032a USBHS_IRQHandler
000020f4 g     F .text	000000a6 usb20_vlog
0000390a g     F .text	00000032 _fstat_r
20002210 g     O .bss	00000004 errno
20000150 g       .bss	00000000 _sbss
00000800 g       *ABS*	00000000 __stack_size
2002f200 g     O .DMADATA	00001000 endp1Tbuff
0000060a g     F .text	000000a6 cprintf
000002ac g     F .text	0000017c bsp_sync2boards
20000190 g     O .bss	00000004 g_descriptorStrings
0000017e g     F .text	00000052 bsp_init
000025d8  w      .text	00000000 UART0_IRQHandler
0000275c g     F .text	000000b6 memcpy
000018de g     F .text	00000058 usb20_registers_init
20000158 g     O .bss	00000004 bsp_tick_frequency
00002c70 g     F .text	0000000a _cleanup_r
00003190 g     F .text	00000276 _svfprintf_r
2002b200 g     O .DMADATA	00001000 endp3Tbuff
20001210 g     O .bss	00001000 endp1BuffRaw
20032200 g     O .DMADATA	00001000 endp6LoggingBuffRaw
00003ab8 g     F .text	00000010 _fstat
00000aaa g     F .text	00000084 SerDes_Tx_Init
00000004 g       .init	00000000 _einit
0000288a g     F .text	00000010 vsnprintf
200011b0 g     O .bss	00000002 g_bbioDescriptorConfigurationSize
200011b4 g     O .bss	00000004 g_bbioDescriptorConfiguration
000007cc g     F .text	0000011c GPIOB_ModeCfg
000025ee  w      .text	00000000 PMT_IRQHandler
0000219a g     F .text	0000008c ep1_transceive_and_update_host
000025e2  w      .text	00000000 SPI1_IRQHandler
00000cca g     F .text	00000010 bsp_switch
000037ba g     F .text	00000030 _sbrk_r
000025ca  w      .text	00000000 TMR0_IRQHandler
00003a60 g     F .text	00000034 _read_r
00002226 g     F .text	00000216 epX_handler_toe
000025f0  w      .text	00000000 ECDC_IRQHandler
00001942 g     F .text	0000034a usb20_endpoints_init
00003ac8 g     F .text	00000010 _isatty
2000014c g     O .data	00000004 _global_impure_ptr
00003a08 g     F .text	00000058 _realloc_r
000001d0 g     F .text	0000006e bsp_wait_us_delay
20031200 g     O .DMADATA	00001000 endp7LoggingBuffRaw
00003af8 g     F .text	00000024 _sbrk
0000188e g     F .text	00000050 serdes_vlog
200011b8 g     O .bss	00000014 g_bbioDescriptorsStringSizes
20000188 g     O .bss	00000002 g_descriptorConfigCustomSize
00002812 g     F .text	00000018 strnlen
20020000 g       .DMADATA	00000000 _dmadata_start
20002214 g       .bss	00000000 _ebss
0000288a g     F .text	00000010 vsniprintf
000010a6 g     F .text	00000042 log_to_evaluator
00001936 g     F .text	0000000c usb20_registers_deinit
20000172 g     O .bss	00000001 g_doesToeSupportCurrentDevice
000025de  w      .text	00000000 DVP_IRQHandler
000025d0  w      .text	00000000 USBSS_IRQHandler
20033200 g       .DMADATA	00000000 _dmadata_end
00004ad4 g     O .text	00000020 __sf_fake_stderr
20002214 g       .bss	00000000 end
20000134 g     O .data	00000004 endp1Buff
00001c8c g     F .text	000000ca usb20_endpoint_ack
000025e6  w      .text	00000000 UART2_IRQHandler
000030a6 g     F .text	000000ea __ssputs_r
000039a0 g     F .text	0000001a memchr
200001a0 g     O .bss	00000002 sizeEndp6LoggingBuff
00002f26 g     F .text	000000a8 _free_r
00001066 g     F .text	00000020 hspi_get_buffer_next_tx
00000000 g       .init	00000000 _start
2002e200 g     O .DMADATA	00001000 endp2Rbuff
00003ad8 g     F .text	00000010 _lseek
00000db4 g     F .text	000000d2 bbio_command_set_descriptor_handle
00001086 g     F .text	00000020 hspi_get_buffer_rx
00001f5a g     F .text	00000096 usb20_fill_buffer_with_descriptor
000025d6  w      .text	00000000 TMR2_IRQHandler
00000b2e g     F .text	00000068 SerDes_Rx_Init
00000174 g     F .text	00000006 __get_MCAUSE
00000bac g     F .text	0000001a SerDes_DMA_Tx
000038da g     F .text	00000030 _close_r
20000000 g       .dalign	00000000 _data_vma
00002684 g     F .text	000000c8 _fwrite_r
0000295a g     F .text	0000010c __swsetup_r
00002d26 g     F .text	0000009c __sfp
20023200 g     O .DMADATA	00001000 endp7Tbuff
20000184 g     O .bss	00000004 g_descriptorConfig
0000282a g     F .text	00000060 _vsnprintf_r
000037ea g     F .text	00000030 __sread
00003a04 g     F .text	00000002 __malloc_lock
00002ba2 g     F .text	00000064 _fflush_r
200011cc g     O .bss	00000004 g_usb20EpOutMask
2000014a g     O .data	00000002 capacityEndp7LoggingBuff
20030200 g     O .DMADATA	00001000 endp1Rbuff
00004af4 g     O .text	00000020 __sf_fake_stdin
200001a2 g     O .bss	00000002 sizeEndp7LoggingBuff
2000018c g     O .bss	00000004 g_descriptorDevice
20024200 g     O .DMADATA	00001000 endp7Rbuff
000000c0 g     F .text	000000a8 memset
000010e8 g     F .text	0000016a main
0000389e g     F .text	00000006 __sclose
00002fce g     F .text	000000d8 _malloc_r
200011d0 g     O .bss	00000004 g_usb20EpInMask
0000017a g     F .text	00000004 __get_SP
20020000 g     O .DMADATA	00001000 hspiDmaAddr1
00000f3a g     F .text	00000120 bbio_command_handle
200011d4 g     O .bss	00000002 g_bbioDescriptorDeviceSize
00000cda g     F .text	00000010 bsp_uled_on
00000428 g     F .text	00000194 SystemInit
00001d56 g     F .text	000000e6 usb20_endpoint_nak
200011d8 g     O .bss	00000028 g_bbioDescriptorsString
00000000 g       .init	00000000 _sinit
00000b96 g     F .text	00000016 SerDes_DMA_Tx_CFG
00000c76 g     F .text	00000054 bsp_gpio_init
000038a4 g     F .text	00000036 _write_r
20027200 g     O .DMADATA	00001000 endp5Tbuff
000025ec  w      .text	00000000 ETH_IRQHandler
00003406 g     F .text	0000010c _printf_common
20000144 g     O .data	00000004 _impure_ptr
00002a66 g     F .text	0000013c __sflush_r
0000023e g     F .text	0000006e bsp_wait_ms_delay
00003190 g     F .text	00000276 _svfiprintf_r
20021000 g     O .DMADATA	00001000 hspiDmaAddr0
20025200 g     O .DMADATA	00001000 endp6Tbuff
0000243c g     F .text	000000c2 ep6_transmit_and_update
0000105a g     F .text	0000000c hspi_get_rtx_status
20004000 g       .stack	00000000 _eusrstack
00000bee g     F .text	0000000c SerDes_DMA_Rx_CFG
0000282a g     F .text	00000060 _vsniprintf_r
000025c6  w      .text	00000000 SW_Handler
000006b0 g     F .text	0000011c GPIOA_ModeCfg
20000148 g     O .data	00000002 capacityEndp6LoggingBuff
2002d200 g     O .DMADATA	00001000 endp2Tbuff
00002e2e g     F .text	0000005a __swhatbuf_r
000005bc g     F .text	0000004e GetSysClock
0000274c g     F .text	00000010 fwrite
20022000 g     O .DMADATA	00001000 serdesDmaAddr
00000bfa g     F .text	00000028 _write
20000150 g       .data	00000000 _edata
000025ce  w      .text	00000000 SPI0_IRQHandler
20000160 g     O .bss	00000008 bsp_us_nbcycles
000008e8 g     F .text	000001aa HSPI_DoubleDMA_Init
00004b70 g       .dlalign	00000000 _data_lma
0000381a g     F .text	0000004e __swrite
00002dc2 g     F .text	0000006c _fwalk_reent
00000bc6 g     F .text	00000028 SerDes_Wait_Txdone
00004b14 g     O .text	00000020 __sf_fake_stdout
000025c8  w      .text	00000000 WDOG_IRQHandler
000013b2 g     F .text	0000014e HSPI_IRQHandler
00003ae8 g     F .text	00000010 _read
000025f2  w      .text	00000000 handle_reset
20001200 g     O .bss	00000004 g_usb20Speed
00001ff0 g     F .text	00000104 usb20_ep0_transceive_and_update
00000a92 g     F .text	00000018 HSPI_DMA_Tx
00002e88 g     F .text	0000009e __smakebuf_r
00003512 g     F .text	000002a8 _printf_i
000025e8  w      .text	00000000 UART3_IRQHandler
200001a8 g     O .bss	00000004 __malloc_sbrk_start
20028200 g     O .DMADATA	00001000 endp5Rbuff
2000013c g     O .data	00000004 endp6LoggingBuff
20026200 g     O .DMADATA	00001000 endp6Rbuff
00000c22 g     F .text	00000054 UART1_init
20029200 g     O .DMADATA	00001000 endp4Tbuff
200001a4 g     O .bss	00000004 __malloc_free_list
20000180 g     O .bss	00000002 sizeEndp1Buff
000025d4  w      .text	00000000 TMR1_IRQHandler
00001252 g     F .text	00000160 SERDES_IRQHandler
0000016e g     F .text	00000006 __get_MIE
20001204 g     O .bss	00000004 g_bbioDescriptorDevice
00000cfa g     F .text	000000ba bbio_command_decode
00003aa8 g     F .text	00000010 _close



Disassembly of section .init:

00000000 <_sinit>:
_start():
/home/ju/HydraDancer/enumeration/firmware/../../wch-ch56x-bsp/startup/startup_CH56x.S:16

	.section	.init,"ax",@progbits
	.global	_start
	.align	1
_start:
	j	handle_reset
   0:	5f20206f          	j	25f2 <handle_reset>

Disassembly of section .vector:

00000004 <_vector_base>:
	...
_vector_base():
/home/ju/HydraDancer/enumeration/firmware/../../wch-ch56x-bsp/startup/startup_CH56x.S:24
    .align  1
_vector_base:
    .option norvc;
    .word   0
    .word   0
        j   NMI_Handler                 /* NMI Handler */
   c:	5b40206f          	j	25c0 <NMI_Handler>
/home/ju/HydraDancer/enumeration/firmware/../../wch-ch56x-bsp/startup/startup_CH56x.S:25
        j   HardFault_Handler           /* Hard Fault Handler */
  10:	01b0106f          	j	182a <HardFault_Handler>
  14:	bf11                	j	ffffff28 <_dmadata_end+0xdffccd28>
  16:	f7f9                	bnez	a5,ffffffe4 <_dmadata_end+0xdffccde4>
	...
/home/ju/HydraDancer/enumeration/firmware/../../wch-ch56x-bsp/startup/startup_CH56x.S:34
    .word   0
    .word   0
    .word   0
    .word   0
    .word   0
        j   SysTick_Handler            /* SysTick Handler */
  34:	5900206f          	j	25c4 <SysTick_Handler>
  38:	0000                	unimp
  3a:	0000                	unimp
/home/ju/HydraDancer/enumeration/firmware/../../wch-ch56x-bsp/startup/startup_CH56x.S:36
    .word   0
        j   SW_Handler                 /* SW Handler */
  3c:	58a0206f          	j	25c6 <SW_Handler>
  40:	0000                	unimp
  42:	0000                	unimp
/home/ju/HydraDancer/enumeration/firmware/../../wch-ch56x-bsp/startup/startup_CH56x.S:39
    .word   0
    /* External Interrupts */
        j   WDOG_IRQHandler			   /* WDOG */
  44:	5840206f          	j	25c8 <WDOG_IRQHandler>
/home/ju/HydraDancer/enumeration/firmware/../../wch-ch56x-bsp/startup/startup_CH56x.S:40
        j   TMR0_IRQHandler            /* TMR0 */
  48:	5820206f          	j	25ca <TMR0_IRQHandler>
/home/ju/HydraDancer/enumeration/firmware/../../wch-ch56x-bsp/startup/startup_CH56x.S:41
        j   GPIO_IRQHandler            /* GPIO */
  4c:	5800206f          	j	25cc <GPIO_IRQHandler>
/home/ju/HydraDancer/enumeration/firmware/../../wch-ch56x-bsp/startup/startup_CH56x.S:42
        j   SPI0_IRQHandler            /* SPI0 */
  50:	57e0206f          	j	25ce <SPI0_IRQHandler>
/home/ju/HydraDancer/enumeration/firmware/../../wch-ch56x-bsp/startup/startup_CH56x.S:43
        j   USBSS_IRQHandler           /* USBSS */
  54:	57c0206f          	j	25d0 <USBSS_IRQHandler>
/home/ju/HydraDancer/enumeration/firmware/../../wch-ch56x-bsp/startup/startup_CH56x.S:44
        j   LINK_IRQHandler            /* LINK */
  58:	57a0206f          	j	25d2 <LINK_IRQHandler>
/home/ju/HydraDancer/enumeration/firmware/../../wch-ch56x-bsp/startup/startup_CH56x.S:45
        j   TMR1_IRQHandler            /* TMR1 */
  5c:	5780206f          	j	25d4 <TMR1_IRQHandler>
/home/ju/HydraDancer/enumeration/firmware/../../wch-ch56x-bsp/startup/startup_CH56x.S:46
        j   TMR2_IRQHandler            /* TMR2 */
  60:	5760206f          	j	25d6 <TMR2_IRQHandler>
/home/ju/HydraDancer/enumeration/firmware/../../wch-ch56x-bsp/startup/startup_CH56x.S:47
        j   UART0_IRQHandler           /* UART0 */
  64:	5740206f          	j	25d8 <UART0_IRQHandler>
/home/ju/HydraDancer/enumeration/firmware/../../wch-ch56x-bsp/startup/startup_CH56x.S:48
        j   USBHS_IRQHandler           /* USBHS */
  68:	4980106f          	j	1500 <USBHS_IRQHandler>
/home/ju/HydraDancer/enumeration/firmware/../../wch-ch56x-bsp/startup/startup_CH56x.S:49
        j   EMMC_IRQHandler            /* EMMC */
  6c:	5700206f          	j	25dc <EMMC_IRQHandler>
/home/ju/HydraDancer/enumeration/firmware/../../wch-ch56x-bsp/startup/startup_CH56x.S:50
        j   DVP_IRQHandler             /* DVP */
  70:	56e0206f          	j	25de <DVP_IRQHandler>
/home/ju/HydraDancer/enumeration/firmware/../../wch-ch56x-bsp/startup/startup_CH56x.S:51
        j   HSPI_IRQHandler            /* HSPI */
  74:	33e0106f          	j	13b2 <HSPI_IRQHandler>
/home/ju/HydraDancer/enumeration/firmware/../../wch-ch56x-bsp/startup/startup_CH56x.S:52
        j   SPI1_IRQHandler            /* SPI1 */
  78:	56a0206f          	j	25e2 <SPI1_IRQHandler>
/home/ju/HydraDancer/enumeration/firmware/../../wch-ch56x-bsp/startup/startup_CH56x.S:53
        j   UART1_IRQHandler           /* UART1 */
  7c:	5680206f          	j	25e4 <UART1_IRQHandler>
/home/ju/HydraDancer/enumeration/firmware/../../wch-ch56x-bsp/startup/startup_CH56x.S:54
        j   UART2_IRQHandler           /* UART2 */
  80:	5660206f          	j	25e6 <UART2_IRQHandler>
/home/ju/HydraDancer/enumeration/firmware/../../wch-ch56x-bsp/startup/startup_CH56x.S:55
        j   UART3_IRQHandler           /* UART3 */
  84:	5640206f          	j	25e8 <UART3_IRQHandler>
/home/ju/HydraDancer/enumeration/firmware/../../wch-ch56x-bsp/startup/startup_CH56x.S:56
        j   SERDES_IRQHandler          /* SERDES */
  88:	1ca0106f          	j	1252 <SERDES_IRQHandler>
/home/ju/HydraDancer/enumeration/firmware/../../wch-ch56x-bsp/startup/startup_CH56x.S:57
        j   ETH_IRQHandler             /* ETH */
  8c:	5600206f          	j	25ec <ETH_IRQHandler>
/home/ju/HydraDancer/enumeration/firmware/../../wch-ch56x-bsp/startup/startup_CH56x.S:58
        j   PMT_IRQHandler             /* PMT */
  90:	55e0206f          	j	25ee <PMT_IRQHandler>
/home/ju/HydraDancer/enumeration/firmware/../../wch-ch56x-bsp/startup/startup_CH56x.S:59
        j   ECDC_IRQHandler            /* ECDC */
  94:	55c0206f          	j	25f0 <ECDC_IRQHandler>
	...

Disassembly of section .text:

000000c0 <memset>:
memset():
      c0:	433d                	li	t1,15
      c2:	872a                	mv	a4,a0
      c4:	02c37363          	bgeu	t1,a2,ea <memset+0x2a>
      c8:	00f77793          	andi	a5,a4,15
      cc:	efbd                	bnez	a5,14a <memset+0x8a>
      ce:	e5ad                	bnez	a1,138 <memset+0x78>
      d0:	ff067693          	andi	a3,a2,-16
      d4:	8a3d                	andi	a2,a2,15
      d6:	96ba                	add	a3,a3,a4
      d8:	c30c                	sw	a1,0(a4)
      da:	c34c                	sw	a1,4(a4)
      dc:	c70c                	sw	a1,8(a4)
      de:	c74c                	sw	a1,12(a4)
      e0:	0741                	addi	a4,a4,16
      e2:	fed76be3          	bltu	a4,a3,d8 <memset+0x18>
      e6:	e211                	bnez	a2,ea <memset+0x2a>
      e8:	8082                	ret
      ea:	40c306b3          	sub	a3,t1,a2
      ee:	068a                	slli	a3,a3,0x2
      f0:	00000297          	auipc	t0,0x0
      f4:	9696                	add	a3,a3,t0
      f6:	00a68067          	jr	10(a3)
      fa:	00b70723          	sb	a1,14(a4)
      fe:	00b706a3          	sb	a1,13(a4)
     102:	00b70623          	sb	a1,12(a4)
     106:	00b705a3          	sb	a1,11(a4)
     10a:	00b70523          	sb	a1,10(a4)
     10e:	00b704a3          	sb	a1,9(a4)
     112:	00b70423          	sb	a1,8(a4)
     116:	00b703a3          	sb	a1,7(a4)
     11a:	00b70323          	sb	a1,6(a4)
     11e:	00b702a3          	sb	a1,5(a4)
     122:	00b70223          	sb	a1,4(a4)
     126:	00b701a3          	sb	a1,3(a4)
     12a:	00b70123          	sb	a1,2(a4)
     12e:	00b700a3          	sb	a1,1(a4)
     132:	00b70023          	sb	a1,0(a4)
     136:	8082                	ret
     138:	0ff5f593          	andi	a1,a1,255
     13c:	00859693          	slli	a3,a1,0x8
     140:	8dd5                	or	a1,a1,a3
     142:	01059693          	slli	a3,a1,0x10
     146:	8dd5                	or	a1,a1,a3
     148:	b761                	j	d0 <memset+0x10>
     14a:	00279693          	slli	a3,a5,0x2
     14e:	00000297          	auipc	t0,0x0
     152:	9696                	add	a3,a3,t0
     154:	8286                	mv	t0,ra
     156:	fa8680e7          	jalr	-88(a3)
     15a:	8096                	mv	ra,t0
     15c:	17c1                	addi	a5,a5,-16
     15e:	8f1d                	sub	a4,a4,a5
     160:	963e                	add	a2,a2,a5
     162:	f8c374e3          	bgeu	t1,a2,ea <memset+0x2a>
     166:	b7a5                	j	ce <memset+0xe>

00000168 <__get_MSTATUS>:
__get_MSTATUS():
/home/ju/HydraDancer/enumeration/firmware/../../wch-ch56x-bsp/rvmsis/core_riscv.c:124
 */
uint32_t __get_MSTATUS(void)
{
	uint32_t result;

	__ASM volatile ( "csrr %0," "mstatus" : "=r" (result) );
     168:	30002573          	csrr	a0,mstatus
/home/ju/HydraDancer/enumeration/firmware/../../wch-ch56x-bsp/rvmsis/core_riscv.c:126
	return (result);
}
     16c:	8082                	ret

0000016e <__get_MIE>:
__get_MIE():
/home/ju/HydraDancer/enumeration/firmware/../../wch-ch56x-bsp/rvmsis/core_riscv.c:182
 */
uint32_t __get_MIE(void)
{
	uint32_t result;

	__ASM volatile ( "csrr %0," "mie" : "=r" (result) );
     16e:	30402573          	csrr	a0,mie
/home/ju/HydraDancer/enumeration/firmware/../../wch-ch56x-bsp/rvmsis/core_riscv.c:184
	return (result);
}
     172:	8082                	ret

00000174 <__get_MCAUSE>:
__get_MCAUSE():
/home/ju/HydraDancer/enumeration/firmware/../../wch-ch56x-bsp/rvmsis/core_riscv.c:296
 */
uint32_t __get_MCAUSE(void)
{
	uint32_t result;

	__ASM volatile ( "csrr %0," "mcause" : "=r" (result) );
     174:	34202573          	csrr	a0,mcause
/home/ju/HydraDancer/enumeration/firmware/../../wch-ch56x-bsp/rvmsis/core_riscv.c:298
	return (result);
}
     178:	8082                	ret

0000017a <__get_SP>:
__get_SP():
/home/ju/HydraDancer/enumeration/firmware/../../wch-ch56x-bsp/rvmsis/core_riscv.c:562
 */
uint32_t __get_SP(void)
{
	uint32_t result;

	asm volatile ( "mv %0," "sp" : "=r"(result) : );
     17a:	850a                	mv	a0,sp
/home/ju/HydraDancer/enumeration/firmware/../../wch-ch56x-bsp/rvmsis/core_riscv.c:564
	return (result);
}
     17c:	8082                	ret

0000017e <bsp_init>:
bsp_init():
/home/ju/HydraDancer/enumeration/firmware/../../wch-ch56x-bsp/drv/CH56x_bsp.c:49
 * @param  systemclck: MCU frequency in Hz
 *
 * @return  None
 */
void bsp_init(uint32_t systemclck)
{
     17e:	1141                	addi	sp,sp,-16
     180:	c606                	sw	ra,12(sp)
/home/ju/HydraDancer/enumeration/firmware/../../wch-ch56x-bsp/drv/CH56x_bsp.c:50
	SystemInit(systemclck);
     182:	245d                	jal	428 <SystemInit>
bsp_systick_init():
/home/ju/HydraDancer/enumeration/firmware/../../wch-ch56x-bsp/drv/CH56x_bsp.c:32
	SysTick->CNTFG = 0;
     184:	e000f7b7          	lui	a5,0xe000f
     188:	0007aa23          	sw	zero,20(a5) # e000f014 <_dmadata_end+0xbffdbe14>
/home/ju/HydraDancer/enumeration/firmware/../../wch-ch56x-bsp/drv/CH56x_bsp.c:33
	SysTick->CMP = SysTick_LOAD_RELOAD_Msk; /* set CMP register max value */
     18c:	577d                	li	a4,-1
     18e:	c7d8                	sw	a4,12(a5)
     190:	cb98                	sw	a4,16(a5)
/home/ju/HydraDancer/enumeration/firmware/../../wch-ch56x-bsp/drv/CH56x_bsp.c:34
	SysTick->CNT = SysTick_LOAD_RELOAD_Msk; /* set CNT register max value */
     192:	c3d8                	sw	a4,4(a5)
     194:	c798                	sw	a4,8(a5)
/home/ju/HydraDancer/enumeration/firmware/../../wch-ch56x-bsp/drv/CH56x_bsp.c:35
	SysTick->CTLR = SysTick_CTRL_RELOAD_Msk    |
     196:	10500713          	li	a4,261
     19a:	c398                	sw	a4,0(a5)
bsp_init():
/home/ju/HydraDancer/enumeration/firmware/../../wch-ch56x-bsp/drv/CH56x_bsp.c:52
	bsp_systick_init();
	bsp_tick_frequency = GetSysClock();
     19c:	2105                	jal	5bc <GetSysClock>
/home/ju/HydraDancer/enumeration/firmware/../../wch-ch56x-bsp/drv/CH56x_bsp.c:53
	bsp_us_nbcycles = (uint64_t)(bsp_tick_frequency / 1000000ULL);
     19e:	000f47b7          	lui	a5,0xf4
/home/ju/HydraDancer/enumeration/firmware/../../wch-ch56x-bsp/drv/CH56x_bsp.c:52
	bsp_tick_frequency = GetSysClock();
     1a2:	82a1a423          	sw	a0,-2008(gp) # 20000158 <bsp_tick_frequency>
/home/ju/HydraDancer/enumeration/firmware/../../wch-ch56x-bsp/drv/CH56x_bsp.c:53
	bsp_us_nbcycles = (uint64_t)(bsp_tick_frequency / 1000000ULL);
     1a6:	24078793          	addi	a5,a5,576 # f4240 <_data_lma+0xef6d0>
/home/ju/HydraDancer/enumeration/firmware/../../wch-ch56x-bsp/drv/CH56x_bsp.c:54
	bsp_ms_nbcycles = (uint64_t)(bsp_tick_frequency / 1000ULL);
     1aa:	3e800613          	li	a2,1000
/home/ju/HydraDancer/enumeration/firmware/../../wch-ch56x-bsp/drv/CH56x_bsp.c:53
	bsp_us_nbcycles = (uint64_t)(bsp_tick_frequency / 1000000ULL);
     1ae:	02f557b3          	divu	a5,a0,a5
/home/ju/HydraDancer/enumeration/firmware/../../wch-ch56x-bsp/drv/CH56x_bsp.c:55
}
     1b2:	40b2                	lw	ra,12(sp)
/home/ju/HydraDancer/enumeration/firmware/../../wch-ch56x-bsp/drv/CH56x_bsp.c:53
	bsp_us_nbcycles = (uint64_t)(bsp_tick_frequency / 1000000ULL);
     1b4:	83018693          	addi	a3,gp,-2000 # 20000160 <bsp_us_nbcycles>
/home/ju/HydraDancer/enumeration/firmware/../../wch-ch56x-bsp/drv/CH56x_bsp.c:54
	bsp_ms_nbcycles = (uint64_t)(bsp_tick_frequency / 1000ULL);
     1b8:	82018713          	addi	a4,gp,-2016 # 20000150 <_edata>
/home/ju/HydraDancer/enumeration/firmware/../../wch-ch56x-bsp/drv/CH56x_bsp.c:53
	bsp_us_nbcycles = (uint64_t)(bsp_tick_frequency / 1000000ULL);
     1bc:	0006a223          	sw	zero,4(a3)
/home/ju/HydraDancer/enumeration/firmware/../../wch-ch56x-bsp/drv/CH56x_bsp.c:54
	bsp_ms_nbcycles = (uint64_t)(bsp_tick_frequency / 1000ULL);
     1c0:	00072223          	sw	zero,4(a4)
     1c4:	02c55533          	divu	a0,a0,a2
/home/ju/HydraDancer/enumeration/firmware/../../wch-ch56x-bsp/drv/CH56x_bsp.c:53
	bsp_us_nbcycles = (uint64_t)(bsp_tick_frequency / 1000000ULL);
     1c8:	c29c                	sw	a5,0(a3)
/home/ju/HydraDancer/enumeration/firmware/../../wch-ch56x-bsp/drv/CH56x_bsp.c:54
	bsp_ms_nbcycles = (uint64_t)(bsp_tick_frequency / 1000ULL);
     1ca:	c308                	sw	a0,0(a4)
/home/ju/HydraDancer/enumeration/firmware/../../wch-ch56x-bsp/drv/CH56x_bsp.c:55
}
     1cc:	0141                	addi	sp,sp,16
     1ce:	8082                	ret

000001d0 <bsp_wait_us_delay>:
bsp_get_SysTickCNT():
/home/ju/HydraDancer/enumeration/firmware/../../wch-ch56x-bsp/drv/CH56x_bsp.c:115
	8c 47           lw       a1,8(a5) // 0xe000f008
	82 80           ret
	*/
	while (1)
	{
		uint32_t hi = SysTickU32->CNT_MSB;
     1d0:	e000f7b7          	lui	a5,0xe000f
     1d4:	478c                	lw	a1,8(a5)
/home/ju/HydraDancer/enumeration/firmware/../../wch-ch56x-bsp/drv/CH56x_bsp.c:116
		uint32_t lo = SysTickU32->CNT_LSB;
     1d6:	0047a803          	lw	a6,4(a5) # e000f004 <_dmadata_end+0xbffdbe04>
/home/ju/HydraDancer/enumeration/firmware/../../wch-ch56x-bsp/drv/CH56x_bsp.c:117
		if (hi == SysTickU32->CNT_MSB)
     1da:	4798                	lw	a4,8(a5)
     1dc:	fee59ce3          	bne	a1,a4,1d4 <bsp_wait_us_delay+0x4>
bsp_wait_us_delay():
/home/ju/HydraDancer/enumeration/firmware/../../wch-ch56x-bsp/drv/CH56x_bsp.c:233
 * @return None
 **/
void bsp_wait_us_delay(uint32_t us)
{
	uint64_t start = bsp_get_SysTickCNT();
	uint64_t nb_cycles = bsp_us_nbcycles * (uint64_t)us;
     1e0:	83018713          	addi	a4,gp,-2000 # 20000160 <bsp_us_nbcycles>
     1e4:	431c                	lw	a5,0(a4)
     1e6:	4354                	lw	a3,4(a4)
     1e8:	02a7b733          	mulhu	a4,a5,a0
     1ec:	02a686b3          	mul	a3,a3,a0
     1f0:	9736                	add	a4,a4,a3
     1f2:	02a787b3          	mul	a5,a5,a0
/home/ju/HydraDancer/enumeration/firmware/../../wch-ch56x-bsp/drv/CH56x_bsp.c:237
	uint64_t curr;
	uint64_t delta;

	if(nb_cycles > 34)
     1f6:	e709                	bnez	a4,200 <bsp_wait_us_delay+0x30>
     1f8:	02200693          	li	a3,34
     1fc:	02f6fe63          	bgeu	a3,a5,238 <bsp_wait_us_delay+0x68>
/home/ju/HydraDancer/enumeration/firmware/../../wch-ch56x-bsp/drv/CH56x_bsp.c:239
	{
		nb_cycles -= 34; // Remove function overhead with -O3 optim
     200:	fde78893          	addi	a7,a5,-34
     204:	00f8b7b3          	sltu	a5,a7,a5
     208:	177d                	addi	a4,a4,-1
     20a:	00e78533          	add	a0,a5,a4
bsp_get_SysTickCNT():
/home/ju/HydraDancer/enumeration/firmware/../../wch-ch56x-bsp/drv/CH56x_bsp.c:115
		uint32_t hi = SysTickU32->CNT_MSB;
     20e:	e000f7b7          	lui	a5,0xe000f
     212:	4798                	lw	a4,8(a5)
/home/ju/HydraDancer/enumeration/firmware/../../wch-ch56x-bsp/drv/CH56x_bsp.c:116
		uint32_t lo = SysTickU32->CNT_LSB;
     214:	43d0                	lw	a2,4(a5)
/home/ju/HydraDancer/enumeration/firmware/../../wch-ch56x-bsp/drv/CH56x_bsp.c:117
		if (hi == SysTickU32->CNT_MSB)
     216:	4794                	lw	a3,8(a5)
     218:	fed71de3          	bne	a4,a3,212 <bsp_wait_us_delay+0x42>
bsp_wait_us_delay():
/home/ju/HydraDancer/enumeration/firmware/../../wch-ch56x-bsp/drv/CH56x_bsp.c:249
	}

	while(1)
	{
		curr = bsp_get_SysTickCNT();
		delta = start - curr; // SysTickCNT is decremented so comparison is inverted
     21c:	40c80633          	sub	a2,a6,a2
     220:	00c836b3          	sltu	a3,a6,a2
     224:	40e58733          	sub	a4,a1,a4
     228:	8f15                	sub	a4,a4,a3
/home/ju/HydraDancer/enumeration/firmware/../../wch-ch56x-bsp/drv/CH56x_bsp.c:250
		if( delta > nb_cycles )
     22a:	00e56663          	bltu	a0,a4,236 <bsp_wait_us_delay+0x66>
     22e:	fea712e3          	bne	a4,a0,212 <bsp_wait_us_delay+0x42>
     232:	fec8f0e3          	bgeu	a7,a2,212 <bsp_wait_us_delay+0x42>
/home/ju/HydraDancer/enumeration/firmware/../../wch-ch56x-bsp/drv/CH56x_bsp.c:253
			break;
	}
}
     236:	8082                	ret
/home/ju/HydraDancer/enumeration/firmware/../../wch-ch56x-bsp/drv/CH56x_bsp.c:243
		nb_cycles = 0;
     238:	4881                	li	a7,0
     23a:	4501                	li	a0,0
     23c:	bfc9                	j	20e <bsp_wait_us_delay+0x3e>

0000023e <bsp_wait_ms_delay>:
bsp_get_SysTickCNT():
/home/ju/HydraDancer/enumeration/firmware/../../wch-ch56x-bsp/drv/CH56x_bsp.c:115
		uint32_t hi = SysTickU32->CNT_MSB;
     23e:	e000f7b7          	lui	a5,0xe000f
     242:	478c                	lw	a1,8(a5)
/home/ju/HydraDancer/enumeration/firmware/../../wch-ch56x-bsp/drv/CH56x_bsp.c:116
		uint32_t lo = SysTickU32->CNT_LSB;
     244:	0047a803          	lw	a6,4(a5) # e000f004 <_dmadata_end+0xbffdbe04>
/home/ju/HydraDancer/enumeration/firmware/../../wch-ch56x-bsp/drv/CH56x_bsp.c:117
		if (hi == SysTickU32->CNT_MSB)
     248:	4798                	lw	a4,8(a5)
     24a:	fee59ce3          	bne	a1,a4,242 <bsp_wait_ms_delay+0x4>
bsp_wait_ms_delay():
/home/ju/HydraDancer/enumeration/firmware/../../wch-ch56x-bsp/drv/CH56x_bsp.c:274
 * @return  None
 **/
void bsp_wait_ms_delay(uint32_t ms)
{
	uint64_t start = bsp_get_SysTickCNT();
	uint64_t nb_cycles = bsp_ms_nbcycles * (uint64_t)ms;
     24e:	82018713          	addi	a4,gp,-2016 # 20000150 <_edata>
     252:	431c                	lw	a5,0(a4)
     254:	4354                	lw	a3,4(a4)
     256:	02a7b733          	mulhu	a4,a5,a0
     25a:	02a686b3          	mul	a3,a3,a0
     25e:	9736                	add	a4,a4,a3
     260:	02a787b3          	mul	a5,a5,a0
/home/ju/HydraDancer/enumeration/firmware/../../wch-ch56x-bsp/drv/CH56x_bsp.c:278
	uint64_t curr;
	uint64_t delta;

	if(nb_cycles > 34)
     264:	e709                	bnez	a4,26e <bsp_wait_ms_delay+0x30>
     266:	02200693          	li	a3,34
     26a:	02f6fe63          	bgeu	a3,a5,2a6 <bsp_wait_ms_delay+0x68>
/home/ju/HydraDancer/enumeration/firmware/../../wch-ch56x-bsp/drv/CH56x_bsp.c:280
	{
		nb_cycles -= 34; // Remove function overhead with -O3 optim
     26e:	fde78893          	addi	a7,a5,-34
     272:	00f8b7b3          	sltu	a5,a7,a5
     276:	177d                	addi	a4,a4,-1
     278:	00e78533          	add	a0,a5,a4
bsp_get_SysTickCNT():
/home/ju/HydraDancer/enumeration/firmware/../../wch-ch56x-bsp/drv/CH56x_bsp.c:115
		uint32_t hi = SysTickU32->CNT_MSB;
     27c:	e000f7b7          	lui	a5,0xe000f
     280:	4798                	lw	a4,8(a5)
/home/ju/HydraDancer/enumeration/firmware/../../wch-ch56x-bsp/drv/CH56x_bsp.c:116
		uint32_t lo = SysTickU32->CNT_LSB;
     282:	43d0                	lw	a2,4(a5)
/home/ju/HydraDancer/enumeration/firmware/../../wch-ch56x-bsp/drv/CH56x_bsp.c:117
		if (hi == SysTickU32->CNT_MSB)
     284:	4794                	lw	a3,8(a5)
     286:	fed71de3          	bne	a4,a3,280 <bsp_wait_ms_delay+0x42>
bsp_wait_ms_delay():
/home/ju/HydraDancer/enumeration/firmware/../../wch-ch56x-bsp/drv/CH56x_bsp.c:290
	}

	while(1)
	{
		curr = bsp_get_SysTickCNT();
		delta = start - curr; // SysTickCNT is decremented so comparison is inverted
     28a:	40c80633          	sub	a2,a6,a2
     28e:	00c836b3          	sltu	a3,a6,a2
     292:	40e58733          	sub	a4,a1,a4
     296:	8f15                	sub	a4,a4,a3
/home/ju/HydraDancer/enumeration/firmware/../../wch-ch56x-bsp/drv/CH56x_bsp.c:291
		if( delta > nb_cycles )
     298:	00e56663          	bltu	a0,a4,2a4 <bsp_wait_ms_delay+0x66>
     29c:	fea712e3          	bne	a4,a0,280 <bsp_wait_ms_delay+0x42>
     2a0:	fec8f0e3          	bgeu	a7,a2,280 <bsp_wait_ms_delay+0x42>
/home/ju/HydraDancer/enumeration/firmware/../../wch-ch56x-bsp/drv/CH56x_bsp.c:294
			break;
	}
}
     2a4:	8082                	ret
/home/ju/HydraDancer/enumeration/firmware/../../wch-ch56x-bsp/drv/CH56x_bsp.c:284
		nb_cycles = 0;
     2a6:	4881                	li	a7,0
     2a8:	4501                	li	a0,0
     2aa:	bfc9                	j	27c <bsp_wait_ms_delay+0x3e>

000002ac <bsp_sync2boards>:
bsp_sync2boards():
/home/ju/HydraDancer/enumeration/firmware/../../wch-ch56x-bsp/drv/CH56x_bsp.c:409
 *              - BSP_BOARD2 / Secondary board (usually on Bottom)
 *
 * @return !=0 if success or 0 in case of error(timeout)
 **/
int bsp_sync2boards(e_bsp_PortPinType gpio1, e_bsp_PortPinType gpio2, e_bsp_TypeDef type)
{
     2ac:	1101                	addi	sp,sp,-32
     2ae:	ca26                	sw	s1,20(sp)
     2b0:	800004b7          	lui	s1,0x80000
     2b4:	fff4c493          	not	s1,s1
     2b8:	c84a                	sw	s2,16(sp)
     2ba:	c64e                	sw	s3,12(sp)
     2bc:	c452                	sw	s4,8(sp)
     2be:	ce06                	sw	ra,28(sp)
     2c0:	cc22                	sw	s0,24(sp)
     2c2:	009579b3          	and	s3,a0,s1
     2c6:	8a2a                	mv	s4,a0
     2c8:	892e                	mv	s2,a1
     2ca:	8ced                	and	s1,s1,a1
bsp_gpio_clr():
/home/ju/HydraDancer/enumeration/firmware/../../wch-ch56x-bsp/drv/CH56x_bsp.c:384
		R32_PA_CLR |= pinBit;
     2cc:	40001737          	lui	a4,0x40001
bsp_sync2boards():
/home/ju/HydraDancer/enumeration/firmware/../../wch-ch56x-bsp/drv/CH56x_bsp.c:415
	int i;
	/******************************************/
	/* Start Synchronization between 2 Boards */
	/* using gpio1 & gpio2 signals            */
	/******************************************/
	if(type == BSP_BOARD1)
     2d0:	e241                	bnez	a2,350 <bsp_sync2boards+0xa4>
bsp_gpio_clr():
/home/ju/HydraDancer/enumeration/firmware/../../wch-ch56x-bsp/drv/CH56x_bsp.c:382
	if((gpioPortPin & BSP_PORTB_FLAG) == 0) // PA
     2d2:	12054663          	bltz	a0,3fe <bsp_sync2boards+0x152>
/home/ju/HydraDancer/enumeration/firmware/../../wch-ch56x-bsp/drv/CH56x_bsp.c:384
		R32_PA_CLR |= pinBit;
     2d6:	477c                	lw	a5,76(a4)
bsp_gpio_cfg():
/home/ju/HydraDancer/enumeration/firmware/../../wch-ch56x-bsp/drv/CH56x_bsp.c:312
		GPIOA_ModeCfg(pinBit, mode);
     2d8:	4591                	li	a1,4
     2da:	854e                	mv	a0,s3
bsp_gpio_clr():
/home/ju/HydraDancer/enumeration/firmware/../../wch-ch56x-bsp/drv/CH56x_bsp.c:384
		R32_PA_CLR |= pinBit;
     2dc:	0137e7b3          	or	a5,a5,s3
     2e0:	c77c                	sw	a5,76(a4)
bsp_gpio_cfg():
/home/ju/HydraDancer/enumeration/firmware/../../wch-ch56x-bsp/drv/CH56x_bsp.c:312
		GPIOA_ModeCfg(pinBit, mode);
     2e2:	26f9                	jal	6b0 <GPIOA_ModeCfg>
bsp_gpio_clr():
/home/ju/HydraDancer/enumeration/firmware/../../wch-ch56x-bsp/drv/CH56x_bsp.c:384
		R32_PA_CLR |= pinBit;
     2e4:	40001437          	lui	s0,0x40001
/home/ju/HydraDancer/enumeration/firmware/../../wch-ch56x-bsp/drv/CH56x_bsp.c:382
	if((gpioPortPin & BSP_PORTB_FLAG) == 0) // PA
     2e8:	12094663          	bltz	s2,414 <bsp_sync2boards+0x168>
/home/ju/HydraDancer/enumeration/firmware/../../wch-ch56x-bsp/drv/CH56x_bsp.c:384
		R32_PA_CLR |= pinBit;
     2ec:	447c                	lw	a5,76(s0)
bsp_gpio_cfg():
/home/ju/HydraDancer/enumeration/firmware/../../wch-ch56x-bsp/drv/CH56x_bsp.c:312
		GPIOA_ModeCfg(pinBit, mode);
     2ee:	459d                	li	a1,7
     2f0:	8526                	mv	a0,s1
bsp_gpio_clr():
/home/ju/HydraDancer/enumeration/firmware/../../wch-ch56x-bsp/drv/CH56x_bsp.c:384
		R32_PA_CLR |= pinBit;
     2f2:	8fc5                	or	a5,a5,s1
     2f4:	c47c                	sw	a5,76(s0)
bsp_gpio_cfg():
/home/ju/HydraDancer/enumeration/firmware/../../wch-ch56x-bsp/drv/CH56x_bsp.c:312
		GPIOA_ModeCfg(pinBit, mode);
     2f6:	2e6d                	jal	6b0 <GPIOA_ModeCfg>
bsp_gpio_set():
/home/ju/HydraDancer/enumeration/firmware/../../wch-ch56x-bsp/drv/CH56x_bsp.c:360
		R32_PA_OUT |= pinBit;
     2f8:	443c                	lw	a5,72(s0)
     2fa:	8fc5                	or	a5,a5,s1
     2fc:	c43c                	sw	a5,72(s0)
bsp_sync2boards():
/home/ju/HydraDancer/enumeration/firmware/../../wch-ch56x-bsp/drv/CH56x_bsp.c:428
		bsp_gpio_cfg(gpio2, GPIO_Highspeed_PP_8mA); // Output
		bsp_gpio_set(gpio2); // Set state to "1"
		/* Wait Device Synchronization signal "1" (ACK) on gpio1 */
		while(1)
		{
			if(i++ > BSP_SYNCHRO_TIMEOUT)
     2fe:	00b72737          	lui	a4,0xb72
     302:	4405                	li	s0,1
bsp_gpio_read():
/home/ju/HydraDancer/enumeration/firmware/../../wch-ch56x-bsp/drv/CH56x_bsp.c:340
		return GPIOB_ReadPortPin(pinBit);
     304:	400016b7          	lui	a3,0x40001
bsp_sync2boards():
/home/ju/HydraDancer/enumeration/firmware/../../wch-ch56x-bsp/drv/CH56x_bsp.c:428
			if(i++ > BSP_SYNCHRO_TIMEOUT)
     308:	b0270713          	addi	a4,a4,-1278 # b71b02 <_data_lma+0xb6cf92>
     30c:	000a5663          	bgez	s4,318 <bsp_sync2boards+0x6c>
     310:	a865                	j	3c8 <bsp_sync2boards+0x11c>
     312:	0405                	addi	s0,s0,1
     314:	00e40663          	beq	s0,a4,320 <bsp_sync2boards+0x74>
bsp_gpio_read():
/home/ju/HydraDancer/enumeration/firmware/../../wch-ch56x-bsp/drv/CH56x_bsp.c:336
		return GPIOA_ReadPortPin(pinBit);
     318:	42fc                	lw	a5,68(a3)
     31a:	0137f7b3          	and	a5,a5,s3
bsp_sync2boards():
/home/ju/HydraDancer/enumeration/firmware/../../wch-ch56x-bsp/drv/CH56x_bsp.c:432
			{
				break;
			}
			if(bsp_gpio_read(gpio1) != 0)
     31e:	dbf5                	beqz	a5,312 <bsp_sync2boards+0x66>
bsp_gpio_cfg():
/home/ju/HydraDancer/enumeration/firmware/../../wch-ch56x-bsp/drv/CH56x_bsp.c:312
		GPIOA_ModeCfg(pinBit, mode);
     320:	4581                	li	a1,0
     322:	854e                	mv	a0,s3
     324:	2671                	jal	6b0 <GPIOA_ModeCfg>
     326:	4581                	li	a1,0
     328:	8526                	mv	a0,s1
/home/ju/HydraDancer/enumeration/firmware/../../wch-ch56x-bsp/drv/CH56x_bsp.c:310
	if((gpioPortPin & BSP_PORTB_FLAG) == 0) // PA
     32a:	08094363          	bltz	s2,3b0 <bsp_sync2boards+0x104>
/home/ju/HydraDancer/enumeration/firmware/../../wch-ch56x-bsp/drv/CH56x_bsp.c:312
		GPIOA_ModeCfg(pinBit, mode);
     32e:	2649                	jal	6b0 <GPIOA_ModeCfg>
bsp_sync2boards():
/home/ju/HydraDancer/enumeration/firmware/../../wch-ch56x-bsp/drv/CH56x_bsp.c:465
	}
	/* Configure to safe state */
	bsp_gpio_cfg(gpio1, GPIO_ModeIN_Floating); // Input
	bsp_gpio_cfg(gpio2, GPIO_ModeIN_Floating); // Input

	if(i >= BSP_SYNCHRO_TIMEOUT)
     330:	00b72537          	lui	a0,0xb72
     334:	aff50513          	addi	a0,a0,-1281 # b71aff <_data_lma+0xb6cf8f>
/home/ju/HydraDancer/enumeration/firmware/../../wch-ch56x-bsp/drv/CH56x_bsp.c:467
	{
		return 0; /* Timeout */
     338:	00852533          	slt	a0,a0,s0
     33c:	157d                	addi	a0,a0,-1
/home/ju/HydraDancer/enumeration/firmware/../../wch-ch56x-bsp/drv/CH56x_bsp.c:473
	}
	else
	{
		return i; // OK
	}
}
     33e:	8d61                	and	a0,a0,s0
     340:	40f2                	lw	ra,28(sp)
     342:	4462                	lw	s0,24(sp)
     344:	44d2                	lw	s1,20(sp)
     346:	4942                	lw	s2,16(sp)
     348:	49b2                	lw	s3,12(sp)
     34a:	4a22                	lw	s4,8(sp)
     34c:	6105                	addi	sp,sp,32
     34e:	8082                	ret
bsp_gpio_clr():
/home/ju/HydraDancer/enumeration/firmware/../../wch-ch56x-bsp/drv/CH56x_bsp.c:382
	if((gpioPortPin & BSP_PORTB_FLAG) == 0) // PA
     350:	0805c163          	bltz	a1,3d2 <bsp_sync2boards+0x126>
/home/ju/HydraDancer/enumeration/firmware/../../wch-ch56x-bsp/drv/CH56x_bsp.c:384
		R32_PA_CLR |= pinBit;
     354:	477c                	lw	a5,76(a4)
bsp_gpio_cfg():
/home/ju/HydraDancer/enumeration/firmware/../../wch-ch56x-bsp/drv/CH56x_bsp.c:312
		GPIOA_ModeCfg(pinBit, mode);
     356:	4591                	li	a1,4
     358:	8526                	mv	a0,s1
bsp_gpio_clr():
/home/ju/HydraDancer/enumeration/firmware/../../wch-ch56x-bsp/drv/CH56x_bsp.c:384
		R32_PA_CLR |= pinBit;
     35a:	8fc5                	or	a5,a5,s1
     35c:	c77c                	sw	a5,76(a4)
bsp_gpio_cfg():
/home/ju/HydraDancer/enumeration/firmware/../../wch-ch56x-bsp/drv/CH56x_bsp.c:312
		GPIOA_ModeCfg(pinBit, mode);
     35e:	2e89                	jal	6b0 <GPIOA_ModeCfg>
bsp_gpio_clr():
/home/ju/HydraDancer/enumeration/firmware/../../wch-ch56x-bsp/drv/CH56x_bsp.c:384
		R32_PA_CLR |= pinBit;
     360:	40001437          	lui	s0,0x40001
/home/ju/HydraDancer/enumeration/firmware/../../wch-ch56x-bsp/drv/CH56x_bsp.c:382
	if((gpioPortPin & BSP_PORTB_FLAG) == 0) // PA
     364:	080a4163          	bltz	s4,3e6 <bsp_sync2boards+0x13a>
/home/ju/HydraDancer/enumeration/firmware/../../wch-ch56x-bsp/drv/CH56x_bsp.c:384
		R32_PA_CLR |= pinBit;
     368:	447c                	lw	a5,76(s0)
bsp_gpio_cfg():
/home/ju/HydraDancer/enumeration/firmware/../../wch-ch56x-bsp/drv/CH56x_bsp.c:312
		GPIOA_ModeCfg(pinBit, mode);
     36a:	459d                	li	a1,7
     36c:	854e                	mv	a0,s3
bsp_gpio_clr():
/home/ju/HydraDancer/enumeration/firmware/../../wch-ch56x-bsp/drv/CH56x_bsp.c:384
		R32_PA_CLR |= pinBit;
     36e:	0137e7b3          	or	a5,a5,s3
     372:	c47c                	sw	a5,76(s0)
bsp_gpio_cfg():
/home/ju/HydraDancer/enumeration/firmware/../../wch-ch56x-bsp/drv/CH56x_bsp.c:312
		GPIOA_ModeCfg(pinBit, mode);
     374:	2e35                	jal	6b0 <GPIOA_ModeCfg>
bsp_gpio_set():
/home/ju/HydraDancer/enumeration/firmware/../../wch-ch56x-bsp/drv/CH56x_bsp.c:360
		R32_PA_OUT |= pinBit;
     376:	443c                	lw	a5,72(s0)
     378:	0137e7b3          	or	a5,a5,s3
     37c:	c43c                	sw	a5,72(s0)
bsp_sync2boards():
/home/ju/HydraDancer/enumeration/firmware/../../wch-ch56x-bsp/drv/CH56x_bsp.c:451
			if(i++ > BSP_SYNCHRO_TIMEOUT)
     37e:	00b72737          	lui	a4,0xb72
     382:	4405                	li	s0,1
bsp_gpio_read():
/home/ju/HydraDancer/enumeration/firmware/../../wch-ch56x-bsp/drv/CH56x_bsp.c:340
		return GPIOB_ReadPortPin(pinBit);
     384:	400016b7          	lui	a3,0x40001
bsp_sync2boards():
/home/ju/HydraDancer/enumeration/firmware/../../wch-ch56x-bsp/drv/CH56x_bsp.c:451
			if(i++ > BSP_SYNCHRO_TIMEOUT)
     388:	b0270713          	addi	a4,a4,-1278 # b71b02 <_data_lma+0xb6cf92>
     38c:	00095663          	bgez	s2,398 <bsp_sync2boards+0xec>
     390:	a02d                	j	3ba <bsp_sync2boards+0x10e>
     392:	0405                	addi	s0,s0,1
     394:	00e40563          	beq	s0,a4,39e <bsp_sync2boards+0xf2>
bsp_gpio_read():
/home/ju/HydraDancer/enumeration/firmware/../../wch-ch56x-bsp/drv/CH56x_bsp.c:336
		return GPIOA_ReadPortPin(pinBit);
     398:	42fc                	lw	a5,68(a3)
     39a:	8fe5                	and	a5,a5,s1
bsp_sync2boards():
/home/ju/HydraDancer/enumeration/firmware/../../wch-ch56x-bsp/drv/CH56x_bsp.c:455
			if(bsp_gpio_read(gpio2) != 0)
     39c:	dbfd                	beqz	a5,392 <bsp_sync2boards+0xe6>
bsp_gpio_cfg():
/home/ju/HydraDancer/enumeration/firmware/../../wch-ch56x-bsp/drv/CH56x_bsp.c:310
	if((gpioPortPin & BSP_PORTB_FLAG) == 0) // PA
     39e:	f80a51e3          	bgez	s4,320 <bsp_sync2boards+0x74>
/home/ju/HydraDancer/enumeration/firmware/../../wch-ch56x-bsp/drv/CH56x_bsp.c:316
		GPIOB_ModeCfg(pinBit, mode);
     3a2:	4581                	li	a1,0
     3a4:	854e                	mv	a0,s3
     3a6:	211d                	jal	7cc <GPIOB_ModeCfg>
/home/ju/HydraDancer/enumeration/firmware/../../wch-ch56x-bsp/drv/CH56x_bsp.c:312
		GPIOA_ModeCfg(pinBit, mode);
     3a8:	4581                	li	a1,0
     3aa:	8526                	mv	a0,s1
/home/ju/HydraDancer/enumeration/firmware/../../wch-ch56x-bsp/drv/CH56x_bsp.c:310
	if((gpioPortPin & BSP_PORTB_FLAG) == 0) // PA
     3ac:	f80951e3          	bgez	s2,32e <bsp_sync2boards+0x82>
/home/ju/HydraDancer/enumeration/firmware/../../wch-ch56x-bsp/drv/CH56x_bsp.c:316
		GPIOB_ModeCfg(pinBit, mode);
     3b0:	2931                	jal	7cc <GPIOB_ModeCfg>
     3b2:	bfbd                	j	330 <bsp_sync2boards+0x84>
bsp_sync2boards():
/home/ju/HydraDancer/enumeration/firmware/../../wch-ch56x-bsp/drv/CH56x_bsp.c:451
			if(i++ > BSP_SYNCHRO_TIMEOUT)
     3b4:	0405                	addi	s0,s0,1
     3b6:	fee404e3          	beq	s0,a4,39e <bsp_sync2boards+0xf2>
bsp_gpio_read():
/home/ju/HydraDancer/enumeration/firmware/../../wch-ch56x-bsp/drv/CH56x_bsp.c:340
		return GPIOB_ReadPortPin(pinBit);
     3ba:	52fc                	lw	a5,100(a3)
     3bc:	8fe5                	and	a5,a5,s1
bsp_sync2boards():
/home/ju/HydraDancer/enumeration/firmware/../../wch-ch56x-bsp/drv/CH56x_bsp.c:455
			if(bsp_gpio_read(gpio2) != 0)
     3be:	dbfd                	beqz	a5,3b4 <bsp_sync2boards+0x108>
     3c0:	bff9                	j	39e <bsp_sync2boards+0xf2>
/home/ju/HydraDancer/enumeration/firmware/../../wch-ch56x-bsp/drv/CH56x_bsp.c:428
			if(i++ > BSP_SYNCHRO_TIMEOUT)
     3c2:	0405                	addi	s0,s0,1
     3c4:	fce40fe3          	beq	s0,a4,3a2 <bsp_sync2boards+0xf6>
bsp_gpio_read():
/home/ju/HydraDancer/enumeration/firmware/../../wch-ch56x-bsp/drv/CH56x_bsp.c:340
		return GPIOB_ReadPortPin(pinBit);
     3c8:	52fc                	lw	a5,100(a3)
     3ca:	0137f7b3          	and	a5,a5,s3
bsp_sync2boards():
/home/ju/HydraDancer/enumeration/firmware/../../wch-ch56x-bsp/drv/CH56x_bsp.c:432
			if(bsp_gpio_read(gpio1) != 0)
     3ce:	dbf5                	beqz	a5,3c2 <bsp_sync2boards+0x116>
     3d0:	bfc9                	j	3a2 <bsp_sync2boards+0xf6>
bsp_gpio_clr():
/home/ju/HydraDancer/enumeration/firmware/../../wch-ch56x-bsp/drv/CH56x_bsp.c:388
		R32_PB_CLR |= pinBit;
     3d2:	577c                	lw	a5,108(a4)
bsp_gpio_cfg():
/home/ju/HydraDancer/enumeration/firmware/../../wch-ch56x-bsp/drv/CH56x_bsp.c:316
		GPIOB_ModeCfg(pinBit, mode);
     3d4:	4591                	li	a1,4
     3d6:	8526                	mv	a0,s1
bsp_gpio_clr():
/home/ju/HydraDancer/enumeration/firmware/../../wch-ch56x-bsp/drv/CH56x_bsp.c:388
		R32_PB_CLR |= pinBit;
     3d8:	8fc5                	or	a5,a5,s1
     3da:	d77c                	sw	a5,108(a4)
bsp_gpio_cfg():
/home/ju/HydraDancer/enumeration/firmware/../../wch-ch56x-bsp/drv/CH56x_bsp.c:316
		GPIOB_ModeCfg(pinBit, mode);
     3dc:	2ec5                	jal	7cc <GPIOB_ModeCfg>
bsp_gpio_clr():
/home/ju/HydraDancer/enumeration/firmware/../../wch-ch56x-bsp/drv/CH56x_bsp.c:384
		R32_PA_CLR |= pinBit;
     3de:	40001437          	lui	s0,0x40001
/home/ju/HydraDancer/enumeration/firmware/../../wch-ch56x-bsp/drv/CH56x_bsp.c:382
	if((gpioPortPin & BSP_PORTB_FLAG) == 0) // PA
     3e2:	f80a53e3          	bgez	s4,368 <bsp_sync2boards+0xbc>
/home/ju/HydraDancer/enumeration/firmware/../../wch-ch56x-bsp/drv/CH56x_bsp.c:388
		R32_PB_CLR |= pinBit;
     3e6:	547c                	lw	a5,108(s0)
bsp_gpio_cfg():
/home/ju/HydraDancer/enumeration/firmware/../../wch-ch56x-bsp/drv/CH56x_bsp.c:316
		GPIOB_ModeCfg(pinBit, mode);
     3e8:	459d                	li	a1,7
     3ea:	854e                	mv	a0,s3
bsp_gpio_clr():
/home/ju/HydraDancer/enumeration/firmware/../../wch-ch56x-bsp/drv/CH56x_bsp.c:388
		R32_PB_CLR |= pinBit;
     3ec:	0137e7b3          	or	a5,a5,s3
     3f0:	d47c                	sw	a5,108(s0)
bsp_gpio_cfg():
/home/ju/HydraDancer/enumeration/firmware/../../wch-ch56x-bsp/drv/CH56x_bsp.c:316
		GPIOB_ModeCfg(pinBit, mode);
     3f2:	2ee9                	jal	7cc <GPIOB_ModeCfg>
bsp_gpio_set():
/home/ju/HydraDancer/enumeration/firmware/../../wch-ch56x-bsp/drv/CH56x_bsp.c:364
		R32_PB_OUT |= pinBit;
     3f4:	543c                	lw	a5,104(s0)
     3f6:	0137e7b3          	or	a5,a5,s3
     3fa:	d43c                	sw	a5,104(s0)
     3fc:	b749                	j	37e <bsp_sync2boards+0xd2>
bsp_gpio_clr():
/home/ju/HydraDancer/enumeration/firmware/../../wch-ch56x-bsp/drv/CH56x_bsp.c:388
		R32_PB_CLR |= pinBit;
     3fe:	577c                	lw	a5,108(a4)
bsp_gpio_cfg():
/home/ju/HydraDancer/enumeration/firmware/../../wch-ch56x-bsp/drv/CH56x_bsp.c:316
		GPIOB_ModeCfg(pinBit, mode);
     400:	4591                	li	a1,4
     402:	854e                	mv	a0,s3
bsp_gpio_clr():
/home/ju/HydraDancer/enumeration/firmware/../../wch-ch56x-bsp/drv/CH56x_bsp.c:388
		R32_PB_CLR |= pinBit;
     404:	0137e7b3          	or	a5,a5,s3
     408:	d77c                	sw	a5,108(a4)
bsp_gpio_cfg():
/home/ju/HydraDancer/enumeration/firmware/../../wch-ch56x-bsp/drv/CH56x_bsp.c:316
		GPIOB_ModeCfg(pinBit, mode);
     40a:	26c9                	jal	7cc <GPIOB_ModeCfg>
bsp_gpio_clr():
/home/ju/HydraDancer/enumeration/firmware/../../wch-ch56x-bsp/drv/CH56x_bsp.c:384
		R32_PA_CLR |= pinBit;
     40c:	40001437          	lui	s0,0x40001
/home/ju/HydraDancer/enumeration/firmware/../../wch-ch56x-bsp/drv/CH56x_bsp.c:382
	if((gpioPortPin & BSP_PORTB_FLAG) == 0) // PA
     410:	ec095ee3          	bgez	s2,2ec <bsp_sync2boards+0x40>
/home/ju/HydraDancer/enumeration/firmware/../../wch-ch56x-bsp/drv/CH56x_bsp.c:388
		R32_PB_CLR |= pinBit;
     414:	547c                	lw	a5,108(s0)
bsp_gpio_cfg():
/home/ju/HydraDancer/enumeration/firmware/../../wch-ch56x-bsp/drv/CH56x_bsp.c:316
		GPIOB_ModeCfg(pinBit, mode);
     416:	459d                	li	a1,7
     418:	8526                	mv	a0,s1
bsp_gpio_clr():
/home/ju/HydraDancer/enumeration/firmware/../../wch-ch56x-bsp/drv/CH56x_bsp.c:388
		R32_PB_CLR |= pinBit;
     41a:	8fc5                	or	a5,a5,s1
     41c:	d47c                	sw	a5,108(s0)
bsp_gpio_cfg():
/home/ju/HydraDancer/enumeration/firmware/../../wch-ch56x-bsp/drv/CH56x_bsp.c:316
		GPIOB_ModeCfg(pinBit, mode);
     41e:	267d                	jal	7cc <GPIOB_ModeCfg>
bsp_gpio_set():
/home/ju/HydraDancer/enumeration/firmware/../../wch-ch56x-bsp/drv/CH56x_bsp.c:364
		R32_PB_OUT |= pinBit;
     420:	543c                	lw	a5,104(s0)
     422:	8fc5                	or	a5,a5,s1
     424:	d43c                	sw	a5,104(s0)
     426:	bde1                	j	2fe <bsp_sync2boards+0x52>

00000428 <SystemInit>:
SystemInit():
/home/ju/HydraDancer/enumeration/firmware/../../wch-ch56x-bsp/drv/CH56x_clk.c:25
 */
void SystemInit(uint32_t systemclck)
{
	uint8_t sc;

	sc = systemclck/1000000;
     428:	000f47b7          	lui	a5,0xf4
     42c:	24078793          	addi	a5,a5,576 # f4240 <_data_lma+0xef6d0>
     430:	02f55533          	divu	a0,a0,a5
     434:	05000793          	li	a5,80
     438:	0ff57513          	andi	a0,a0,255
     43c:	06f50663          	beq	a0,a5,4a8 <SystemInit+0x80>
     440:	02a7f363          	bgeu	a5,a0,466 <SystemInit+0x3e>
     444:	07800793          	li	a5,120
     448:	08f50763          	beq	a0,a5,4d6 <SystemInit+0xae>
     44c:	0a000793          	li	a5,160
     450:	0af50a63          	beq	a0,a5,504 <SystemInit+0xdc>
     454:	06000793          	li	a5,96
     458:	0cf50d63          	beq	a0,a5,532 <SystemInit+0x10a>
/home/ju/HydraDancer/enumeration/firmware/../../wch-ch56x-bsp/drv/CH56x_clk.c:90
			break;
		*/
		default :
			break;
	}
	R8_SAFE_ACCESS_SIG = 0;
     45c:	400017b7          	lui	a5,0x40001
     460:	00078023          	sb	zero,0(a5) # 40001000 <_dmadata_end+0x1ffcde00>
/home/ju/HydraDancer/enumeration/firmware/../../wch-ch56x-bsp/drv/CH56x_clk.c:91
}
     464:	8082                	ret
     466:	47f9                	li	a5,30
     468:	0ef50c63          	beq	a0,a5,560 <SystemInit+0x138>
     46c:	03c00793          	li	a5,60
     470:	10f50f63          	beq	a0,a5,58e <SystemInit+0x166>
     474:	47bd                	li	a5,15
     476:	fef513e3          	bne	a0,a5,45c <SystemInit+0x34>
/home/ju/HydraDancer/enumeration/firmware/../../wch-ch56x-bsp/drv/CH56x_clk.c:30
			R8_SAFE_ACCESS_SIG = 0x57; // enable safe access mode
     47a:	400017b7          	lui	a5,0x40001
     47e:	05700713          	li	a4,87
     482:	00e78023          	sb	a4,0(a5) # 40001000 <_dmadata_end+0x1ffcde00>
/home/ju/HydraDancer/enumeration/firmware/../../wch-ch56x-bsp/drv/CH56x_clk.c:31
			R8_SAFE_ACCESS_SIG = 0xa8;
     486:	fa800713          	li	a4,-88
     48a:	00e78023          	sb	a4,0(a5)
/home/ju/HydraDancer/enumeration/firmware/../../wch-ch56x-bsp/drv/CH56x_clk.c:32
			R8_CLK_PLL_DIV = 0x40 | 0x02; // BaseCLK= 30MHz/2 => 15MHz
     48e:	04200713          	li	a4,66
     492:	00e78423          	sb	a4,8(a5)
/home/ju/HydraDancer/enumeration/firmware/../../wch-ch56x-bsp/drv/CH56x_clk.c:33
			R8_CLK_CFG_CTRL = 0x80 ;
     496:	f8000713          	li	a4,-128
     49a:	00e78523          	sb	a4,10(a5)
/home/ju/HydraDancer/enumeration/firmware/../../wch-ch56x-bsp/drv/CH56x_clk.c:90
	R8_SAFE_ACCESS_SIG = 0;
     49e:	400017b7          	lui	a5,0x40001
     4a2:	00078023          	sb	zero,0(a5) # 40001000 <_dmadata_end+0x1ffcde00>
/home/ju/HydraDancer/enumeration/firmware/../../wch-ch56x-bsp/drv/CH56x_clk.c:91
}
     4a6:	8082                	ret
/home/ju/HydraDancer/enumeration/firmware/../../wch-ch56x-bsp/drv/CH56x_clk.c:51
			R8_SAFE_ACCESS_SIG = 0x57; // enable safe access mode
     4a8:	400017b7          	lui	a5,0x40001
     4ac:	05700713          	li	a4,87
     4b0:	00e78023          	sb	a4,0(a5) # 40001000 <_dmadata_end+0x1ffcde00>
/home/ju/HydraDancer/enumeration/firmware/../../wch-ch56x-bsp/drv/CH56x_clk.c:52
			R8_SAFE_ACCESS_SIG = 0xa8;
     4b4:	fa800713          	li	a4,-88
     4b8:	00e78023          	sb	a4,0(a5)
/home/ju/HydraDancer/enumeration/firmware/../../wch-ch56x-bsp/drv/CH56x_clk.c:53
			R8_CLK_PLL_DIV = 0x40 | 0x06; // BaseCLK= 480MHz/6 => 80MHz
     4bc:	04600713          	li	a4,70
     4c0:	00e78423          	sb	a4,8(a5)
/home/ju/HydraDancer/enumeration/firmware/../../wch-ch56x-bsp/drv/CH56x_clk.c:54
			R8_CLK_CFG_CTRL = 0x80 | RB_CLK_SEL_PLL;
     4c4:	f8200713          	li	a4,-126
     4c8:	00e78523          	sb	a4,10(a5)
/home/ju/HydraDancer/enumeration/firmware/../../wch-ch56x-bsp/drv/CH56x_clk.c:90
	R8_SAFE_ACCESS_SIG = 0;
     4cc:	400017b7          	lui	a5,0x40001
     4d0:	00078023          	sb	zero,0(a5) # 40001000 <_dmadata_end+0x1ffcde00>
/home/ju/HydraDancer/enumeration/firmware/../../wch-ch56x-bsp/drv/CH56x_clk.c:91
}
     4d4:	8082                	ret
/home/ju/HydraDancer/enumeration/firmware/../../wch-ch56x-bsp/drv/CH56x_clk.c:65
			R8_SAFE_ACCESS_SIG = 0x57; // enable safe access mode
     4d6:	400017b7          	lui	a5,0x40001
     4da:	05700713          	li	a4,87
     4de:	00e78023          	sb	a4,0(a5) # 40001000 <_dmadata_end+0x1ffcde00>
/home/ju/HydraDancer/enumeration/firmware/../../wch-ch56x-bsp/drv/CH56x_clk.c:66
			R8_SAFE_ACCESS_SIG = 0xa8;
     4e2:	fa800713          	li	a4,-88
     4e6:	00e78023          	sb	a4,0(a5)
/home/ju/HydraDancer/enumeration/firmware/../../wch-ch56x-bsp/drv/CH56x_clk.c:67
			R8_CLK_PLL_DIV = 0x40 | 0x04; // BaseCLK= 480MHz/4 => 120MHz
     4ea:	04400713          	li	a4,68
     4ee:	00e78423          	sb	a4,8(a5)
/home/ju/HydraDancer/enumeration/firmware/../../wch-ch56x-bsp/drv/CH56x_clk.c:68
			R8_CLK_CFG_CTRL = 0x80 | RB_CLK_SEL_PLL;
     4f2:	f8200713          	li	a4,-126
     4f6:	00e78523          	sb	a4,10(a5)
/home/ju/HydraDancer/enumeration/firmware/../../wch-ch56x-bsp/drv/CH56x_clk.c:90
	R8_SAFE_ACCESS_SIG = 0;
     4fa:	400017b7          	lui	a5,0x40001
     4fe:	00078023          	sb	zero,0(a5) # 40001000 <_dmadata_end+0x1ffcde00>
/home/ju/HydraDancer/enumeration/firmware/../../wch-ch56x-bsp/drv/CH56x_clk.c:91
}
     502:	8082                	ret
/home/ju/HydraDancer/enumeration/firmware/../../wch-ch56x-bsp/drv/CH56x_clk.c:72
			R8_SAFE_ACCESS_SIG = 0x57; // enable safe access mode
     504:	400017b7          	lui	a5,0x40001
     508:	05700713          	li	a4,87
     50c:	00e78023          	sb	a4,0(a5) # 40001000 <_dmadata_end+0x1ffcde00>
/home/ju/HydraDancer/enumeration/firmware/../../wch-ch56x-bsp/drv/CH56x_clk.c:73
			R8_SAFE_ACCESS_SIG = 0xa8;
     510:	fa800713          	li	a4,-88
     514:	00e78023          	sb	a4,0(a5)
/home/ju/HydraDancer/enumeration/firmware/../../wch-ch56x-bsp/drv/CH56x_clk.c:74
			R8_CLK_PLL_DIV = 0x40 | 0x03;
     518:	04300713          	li	a4,67
     51c:	00e78423          	sb	a4,8(a5)
/home/ju/HydraDancer/enumeration/firmware/../../wch-ch56x-bsp/drv/CH56x_clk.c:75
			R8_CLK_CFG_CTRL = 0x80 | RB_CLK_SEL_PLL;
     520:	f8200713          	li	a4,-126
     524:	00e78523          	sb	a4,10(a5)
/home/ju/HydraDancer/enumeration/firmware/../../wch-ch56x-bsp/drv/CH56x_clk.c:90
	R8_SAFE_ACCESS_SIG = 0;
     528:	400017b7          	lui	a5,0x40001
     52c:	00078023          	sb	zero,0(a5) # 40001000 <_dmadata_end+0x1ffcde00>
/home/ju/HydraDancer/enumeration/firmware/../../wch-ch56x-bsp/drv/CH56x_clk.c:91
}
     530:	8082                	ret
/home/ju/HydraDancer/enumeration/firmware/../../wch-ch56x-bsp/drv/CH56x_clk.c:58
			R8_SAFE_ACCESS_SIG = 0x57; // enable safe access mode
     532:	400017b7          	lui	a5,0x40001
     536:	05700713          	li	a4,87
     53a:	00e78023          	sb	a4,0(a5) # 40001000 <_dmadata_end+0x1ffcde00>
/home/ju/HydraDancer/enumeration/firmware/../../wch-ch56x-bsp/drv/CH56x_clk.c:59
			R8_SAFE_ACCESS_SIG = 0xa8;
     53e:	fa800713          	li	a4,-88
     542:	00e78023          	sb	a4,0(a5)
/home/ju/HydraDancer/enumeration/firmware/../../wch-ch56x-bsp/drv/CH56x_clk.c:60
			R8_CLK_PLL_DIV = 0x40 | 0x05; // BaseCLK= 480MHz/5 => 96MHz
     546:	04500713          	li	a4,69
     54a:	00e78423          	sb	a4,8(a5)
/home/ju/HydraDancer/enumeration/firmware/../../wch-ch56x-bsp/drv/CH56x_clk.c:61
			R8_CLK_CFG_CTRL = 0x80 | RB_CLK_SEL_PLL;
     54e:	f8200713          	li	a4,-126
     552:	00e78523          	sb	a4,10(a5)
/home/ju/HydraDancer/enumeration/firmware/../../wch-ch56x-bsp/drv/CH56x_clk.c:90
	R8_SAFE_ACCESS_SIG = 0;
     556:	400017b7          	lui	a5,0x40001
     55a:	00078023          	sb	zero,0(a5) # 40001000 <_dmadata_end+0x1ffcde00>
/home/ju/HydraDancer/enumeration/firmware/../../wch-ch56x-bsp/drv/CH56x_clk.c:91
}
     55e:	8082                	ret
/home/ju/HydraDancer/enumeration/firmware/../../wch-ch56x-bsp/drv/CH56x_clk.c:37
			R8_SAFE_ACCESS_SIG = 0x57; // enable safe access mode
     560:	400017b7          	lui	a5,0x40001
     564:	05700713          	li	a4,87
     568:	00e78023          	sb	a4,0(a5) # 40001000 <_dmadata_end+0x1ffcde00>
/home/ju/HydraDancer/enumeration/firmware/../../wch-ch56x-bsp/drv/CH56x_clk.c:38
			R8_SAFE_ACCESS_SIG = 0xa8;
     56c:	fa800713          	li	a4,-88
     570:	00e78023          	sb	a4,0(a5)
/home/ju/HydraDancer/enumeration/firmware/../../wch-ch56x-bsp/drv/CH56x_clk.c:39
			R8_CLK_PLL_DIV = 0x40; // BaseCLK= 480MHz/1 => 30MHz
     574:	04000713          	li	a4,64
     578:	00e78423          	sb	a4,8(a5)
/home/ju/HydraDancer/enumeration/firmware/../../wch-ch56x-bsp/drv/CH56x_clk.c:40
			R8_CLK_CFG_CTRL = 0x80 | RB_CLK_SEL_PLL;
     57c:	f8200713          	li	a4,-126
     580:	00e78523          	sb	a4,10(a5)
/home/ju/HydraDancer/enumeration/firmware/../../wch-ch56x-bsp/drv/CH56x_clk.c:90
	R8_SAFE_ACCESS_SIG = 0;
     584:	400017b7          	lui	a5,0x40001
     588:	00078023          	sb	zero,0(a5) # 40001000 <_dmadata_end+0x1ffcde00>
/home/ju/HydraDancer/enumeration/firmware/../../wch-ch56x-bsp/drv/CH56x_clk.c:91
}
     58c:	8082                	ret
/home/ju/HydraDancer/enumeration/firmware/../../wch-ch56x-bsp/drv/CH56x_clk.c:44
			R8_SAFE_ACCESS_SIG = 0x57; // enable safe access mode
     58e:	400017b7          	lui	a5,0x40001
     592:	05700713          	li	a4,87
     596:	00e78023          	sb	a4,0(a5) # 40001000 <_dmadata_end+0x1ffcde00>
/home/ju/HydraDancer/enumeration/firmware/../../wch-ch56x-bsp/drv/CH56x_clk.c:45
			R8_SAFE_ACCESS_SIG = 0xa8;
     59a:	fa800713          	li	a4,-88
     59e:	00e78023          	sb	a4,0(a5)
/home/ju/HydraDancer/enumeration/firmware/../../wch-ch56x-bsp/drv/CH56x_clk.c:46
			R8_CLK_PLL_DIV = 0x40 | 0x08; // BaseCLK= 480MHz/8 => 60MHz
     5a2:	04800713          	li	a4,72
     5a6:	00e78423          	sb	a4,8(a5)
/home/ju/HydraDancer/enumeration/firmware/../../wch-ch56x-bsp/drv/CH56x_clk.c:47
			R8_CLK_CFG_CTRL = 0x80 | RB_CLK_SEL_PLL;
     5aa:	f8200713          	li	a4,-126
     5ae:	00e78523          	sb	a4,10(a5)
/home/ju/HydraDancer/enumeration/firmware/../../wch-ch56x-bsp/drv/CH56x_clk.c:90
	R8_SAFE_ACCESS_SIG = 0;
     5b2:	400017b7          	lui	a5,0x40001
     5b6:	00078023          	sb	zero,0(a5) # 40001000 <_dmadata_end+0x1ffcde00>
/home/ju/HydraDancer/enumeration/firmware/../../wch-ch56x-bsp/drv/CH56x_clk.c:91
}
     5ba:	8082                	ret

000005bc <GetSysClock>:
GetSysClock():
/home/ju/HydraDancer/enumeration/firmware/../../wch-ch56x-bsp/drv/CH56x_clk.c:106
 */
uint32_t GetSysClock( void )
{
	uint8_t  rev;

	rev = R8_CLK_PLL_DIV & 0x0F;
     5bc:	400016b7          	lui	a3,0x40001
     5c0:	0086c783          	lbu	a5,8(a3) # 40001008 <_dmadata_end+0x1ffcde08>
/home/ju/HydraDancer/enumeration/firmware/../../wch-ch56x-bsp/drv/CH56x_clk.c:107
	if(R8_CLK_CFG_CTRL & RB_CLK_SEL_PLL)
     5c4:	00a6c703          	lbu	a4,10(a3)
/home/ju/HydraDancer/enumeration/firmware/../../wch-ch56x-bsp/drv/CH56x_clk.c:106
	rev = R8_CLK_PLL_DIV & 0x0F;
     5c8:	8bbd                	andi	a5,a5,15
/home/ju/HydraDancer/enumeration/firmware/../../wch-ch56x-bsp/drv/CH56x_clk.c:107
	if(R8_CLK_CFG_CTRL & RB_CLK_SEL_PLL)
     5ca:	8b09                	andi	a4,a4,2
     5cc:	cb19                	beqz	a4,5e2 <GetSysClock+0x26>
/home/ju/HydraDancer/enumeration/firmware/../../wch-ch56x-bsp/drv/CH56x_clk.c:110
	{
		// The system clock source comes from the 480M provided by the USB PHY
		if(rev == 0)
     5ce:	c785                	beqz	a5,5f6 <GetSysClock+0x3a>
/home/ju/HydraDancer/enumeration/firmware/../../wch-ch56x-bsp/drv/CH56x_clk.c:116
		{
			return (30000000);
		}
		else
		{
			return (480000000/R8_CLK_PLL_DIV);
     5d0:	0086c783          	lbu	a5,8(a3)
     5d4:	1c9c4537          	lui	a0,0x1c9c4
     5d8:	80050513          	addi	a0,a0,-2048 # 1c9c3800 <_data_lma+0x1c9bec90>
     5dc:	02f54533          	div	a0,a0,a5
     5e0:	8082                	ret
/home/ju/HydraDancer/enumeration/firmware/../../wch-ch56x-bsp/drv/CH56x_clk.c:122
		}
	}
	else
	{
		// The system clock source comes from an external crystal oscillator 30M
		if(rev == 0)
     5e2:	cf99                	beqz	a5,600 <GetSysClock+0x44>
/home/ju/HydraDancer/enumeration/firmware/../../wch-ch56x-bsp/drv/CH56x_clk.c:128
		{
			return (2000000);
		}
		else
		{
			return (30000000/R8_CLK_PLL_DIV);
     5e4:	0086c783          	lbu	a5,8(a3)
     5e8:	01c9c537          	lui	a0,0x1c9c
     5ec:	38050513          	addi	a0,a0,896 # 1c9c380 <_data_lma+0x1c97810>
     5f0:	02f54533          	div	a0,a0,a5
     5f4:	8082                	ret
/home/ju/HydraDancer/enumeration/firmware/../../wch-ch56x-bsp/drv/CH56x_clk.c:112
			return (30000000);
     5f6:	01c9c537          	lui	a0,0x1c9c
     5fa:	38050513          	addi	a0,a0,896 # 1c9c380 <_data_lma+0x1c97810>
     5fe:	8082                	ret
/home/ju/HydraDancer/enumeration/firmware/../../wch-ch56x-bsp/drv/CH56x_clk.c:124
			return (2000000);
     600:	001e8537          	lui	a0,0x1e8
     604:	48050513          	addi	a0,a0,1152 # 1e8480 <_data_lma+0x1e3910>
/home/ju/HydraDancer/enumeration/firmware/../../wch-ch56x-bsp/drv/CH56x_clk.c:131
		}
	}
}
     608:	8082                	ret

0000060a <cprintf>:
cprintf():
/home/ju/HydraDancer/enumeration/firmware/../../wch-ch56x-bsp/drv/CH56x_debug_log.c:65
{
	startCNT64 = bsp_get_SysTickCNT();
}

void cprintf(const char *fmt, ...)
{
     60a:	dc010113          	addi	sp,sp,-576
     60e:	20112e23          	sw	ra,540(sp)
     612:	20812c23          	sw	s0,536(sp)
     616:	20912a23          	sw	s1,532(sp)
     61a:	22b12223          	sw	a1,548(sp)
     61e:	22c12423          	sw	a2,552(sp)
     622:	22d12623          	sw	a3,556(sp)
     626:	22e12823          	sw	a4,560(sp)
     62a:	22f12a23          	sw	a5,564(sp)
     62e:	23012c23          	sw	a6,568(sp)
     632:	23112e23          	sw	a7,572(sp)
/home/ju/HydraDancer/enumeration/firmware/../../wch-ch56x-bsp/drv/CH56x_debug_log.c:70
	va_list va_args;
	int print_size;
	char log_printf_buff[LOG_PRINTF_BUFF_SIZE+1];

	bsp_disable_interrupt(); // Enter Critical Section
     636:	30047073          	csrci	mstatus,8
/home/ju/HydraDancer/enumeration/firmware/../../wch-ch56x-bsp/drv/CH56x_debug_log.c:72

	va_start(va_args, fmt);
     63a:	145c                	addi	a5,sp,548
/home/ju/HydraDancer/enumeration/firmware/../../wch-ch56x-bsp/drv/CH56x_debug_log.c:73
	print_size = vsnprintf(log_printf_buff, LOG_PRINTF_BUFF_SIZE, fmt, va_args);
     63c:	862a                	mv	a2,a0
     63e:	86be                	mv	a3,a5
     640:	1ff00593          	li	a1,511
     644:	0808                	addi	a0,sp,16
/home/ju/HydraDancer/enumeration/firmware/../../wch-ch56x-bsp/drv/CH56x_debug_log.c:72
	va_start(va_args, fmt);
     646:	c63e                	sw	a5,12(sp)
/home/ju/HydraDancer/enumeration/firmware/../../wch-ch56x-bsp/drv/CH56x_debug_log.c:73
	print_size = vsnprintf(log_printf_buff, LOG_PRINTF_BUFF_SIZE, fmt, va_args);
     648:	242020ef          	jal	ra,288a <vsniprintf>
/home/ju/HydraDancer/enumeration/firmware/../../wch-ch56x-bsp/drv/CH56x_debug_log.c:75
	va_end(va_args);
	if(print_size > 0)
     64c:	02a05a63          	blez	a0,680 <cprintf+0x76>
/home/ju/HydraDancer/enumeration/firmware/../../wch-ch56x-bsp/drv/CH56x_debug_log.c:78
	{
		/* Save all log_printf data in a big buffer */
		int idx = debug_log_buf->idx;
     650:	842a                	mv	s0,a0
     652:	8381a503          	lw	a0,-1992(gp) # 20000168 <debug_log_buf>
     656:	6785                	lui	a5,0x1
/home/ju/HydraDancer/enumeration/firmware/../../wch-ch56x-bsp/drv/CH56x_debug_log.c:79
		if((idx + print_size) < DEBUG_LOG_BUF_SIZE)
     658:	ffe78713          	addi	a4,a5,-2 # ffe <bbio_command_handle+0xc4>
/home/ju/HydraDancer/enumeration/firmware/../../wch-ch56x-bsp/drv/CH56x_debug_log.c:78
		int idx = debug_log_buf->idx;
     65c:	00f504b3          	add	s1,a0,a5
     660:	0004d783          	lhu	a5,0(s1) # 80000000 <_dmadata_end+0x5ffcce00>
     664:	07c2                	slli	a5,a5,0x10
     666:	83c1                	srli	a5,a5,0x10
/home/ju/HydraDancer/enumeration/firmware/../../wch-ch56x-bsp/drv/CH56x_debug_log.c:79
		if((idx + print_size) < DEBUG_LOG_BUF_SIZE)
     668:	008786b3          	add	a3,a5,s0
     66c:	02d75563          	bge	a4,a3,696 <cprintf+0x8c>
/home/ju/HydraDancer/enumeration/firmware/../../wch-ch56x-bsp/drv/CH56x_debug_log.c:85
		{
			memcpy(&debug_log_buf->buf[idx], log_printf_buff, print_size);
			debug_log_buf->idx += print_size;
		}
#if(defined DEBUG)
		fwrite(log_printf_buff, sizeof(char), print_size, stdout);
     670:	8141a783          	lw	a5,-2028(gp) # 20000144 <_impure_ptr>
     674:	8622                	mv	a2,s0
     676:	4585                	li	a1,1
     678:	4794                	lw	a3,8(a5)
     67a:	0808                	addi	a0,sp,16
     67c:	0d0020ef          	jal	ra,274c <fwrite>
/home/ju/HydraDancer/enumeration/firmware/../../wch-ch56x-bsp/drv/CH56x_debug_log.c:89
#endif
	}

	bsp_enable_interrupt(); // Exit Critical Section
     680:	30046073          	csrsi	mstatus,8
/home/ju/HydraDancer/enumeration/firmware/../../wch-ch56x-bsp/drv/CH56x_debug_log.c:90
}
     684:	21c12083          	lw	ra,540(sp)
     688:	21812403          	lw	s0,536(sp)
     68c:	21412483          	lw	s1,532(sp)
     690:	24010113          	addi	sp,sp,576
     694:	8082                	ret
/home/ju/HydraDancer/enumeration/firmware/../../wch-ch56x-bsp/drv/CH56x_debug_log.c:81
			memcpy(&debug_log_buf->buf[idx], log_printf_buff, print_size);
     696:	953e                	add	a0,a0,a5
     698:	8622                	mv	a2,s0
     69a:	080c                	addi	a1,sp,16
     69c:	0c0020ef          	jal	ra,275c <memcpy>
/home/ju/HydraDancer/enumeration/firmware/../../wch-ch56x-bsp/drv/CH56x_debug_log.c:82
			debug_log_buf->idx += print_size;
     6a0:	0004d783          	lhu	a5,0(s1)
     6a4:	97a2                	add	a5,a5,s0
     6a6:	07c2                	slli	a5,a5,0x10
     6a8:	83c1                	srli	a5,a5,0x10
     6aa:	00f49023          	sh	a5,0(s1)
     6ae:	b7c9                	j	670 <cprintf+0x66>

000006b0 <GPIOA_ModeCfg>:
GPIOA_ModeCfg():
/home/ju/HydraDancer/enumeration/firmware/../../wch-ch56x-bsp/drv/CH56x_gpio.c:37
 *
 * @return None
 */
void GPIOA_ModeCfg(uint32_t pin, GPIOModeTypeDef mode)
{
	switch(mode)
     6b0:	47a9                	li	a5,10
     6b2:	02b7e663          	bltu	a5,a1,6de <GPIOA_ModeCfg+0x2e>
     6b6:	6791                	lui	a5,0x4
     6b8:	b1c78793          	addi	a5,a5,-1252 # 3b1c <_sbrk+0x24>
     6bc:	058a                	slli	a1,a1,0x2
     6be:	95be                	add	a1,a1,a5
     6c0:	419c                	lw	a5,0(a1)
     6c2:	8782                	jr	a5
/home/ju/HydraDancer/enumeration/firmware/../../wch-ch56x-bsp/drv/CH56x_gpio.c:102
			R32_PA_PD &= ~pin;
			R32_PA_DIR    |= pin;
			break;

		case GPIO_ModeOut_OP_8mA:
			R32_PA_DRV &= ~pin;
     6c4:	400017b7          	lui	a5,0x40001
     6c8:	4fb4                	lw	a3,88(a5)
     6ca:	fff54713          	not	a4,a0
     6ce:	8f75                	and	a4,a4,a3
/home/ju/HydraDancer/enumeration/firmware/../../wch-ch56x-bsp/drv/CH56x_gpio.c:108
			R32_PA_PD  |= pin;
			R32_PA_DIR    |= pin;
			break;

		case GPIO_ModeOut_OP_16mA:
			R32_PA_DRV  |= pin;
     6d0:	cfb8                	sw	a4,88(a5)
/home/ju/HydraDancer/enumeration/firmware/../../wch-ch56x-bsp/drv/CH56x_gpio.c:109
			R32_PA_PD  |= pin;
     6d2:	4bf8                	lw	a4,84(a5)
     6d4:	8f49                	or	a4,a4,a0
     6d6:	cbf8                	sw	a4,84(a5)
/home/ju/HydraDancer/enumeration/firmware/../../wch-ch56x-bsp/drv/CH56x_gpio.c:110
			R32_PA_DIR    |= pin;
     6d8:	43b8                	lw	a4,64(a5)
     6da:	8d59                	or	a0,a0,a4
     6dc:	c3a8                	sw	a0,64(a5)
/home/ju/HydraDancer/enumeration/firmware/../../wch-ch56x-bsp/drv/CH56x_gpio.c:116
			break;

		default:
			break;
	}
}
     6de:	8082                	ret
/home/ju/HydraDancer/enumeration/firmware/../../wch-ch56x-bsp/drv/CH56x_gpio.c:108
			R32_PA_DRV  |= pin;
     6e0:	400017b7          	lui	a5,0x40001
     6e4:	4fb8                	lw	a4,88(a5)
     6e6:	8f49                	or	a4,a4,a0
     6e8:	b7e5                	j	6d0 <GPIOA_ModeCfg+0x20>
/home/ju/HydraDancer/enumeration/firmware/../../wch-ch56x-bsp/drv/CH56x_gpio.c:40
			R32_PA_PD &= ~pin;
     6ea:	400017b7          	lui	a5,0x40001
     6ee:	4bf8                	lw	a4,84(a5)
     6f0:	fff54513          	not	a0,a0
     6f4:	8f69                	and	a4,a4,a0
     6f6:	cbf8                	sw	a4,84(a5)
/home/ju/HydraDancer/enumeration/firmware/../../wch-ch56x-bsp/drv/CH56x_gpio.c:41
			R32_PA_PU     &= ~pin;
     6f8:	4bb8                	lw	a4,80(a5)
     6fa:	8f69                	and	a4,a4,a0
     6fc:	cbb8                	sw	a4,80(a5)
/home/ju/HydraDancer/enumeration/firmware/../../wch-ch56x-bsp/drv/CH56x_gpio.c:42
			R32_PA_DIR    &= ~pin;
     6fe:	43b8                	lw	a4,64(a5)
     700:	8d79                	and	a0,a0,a4
     702:	c3a8                	sw	a0,64(a5)
/home/ju/HydraDancer/enumeration/firmware/../../wch-ch56x-bsp/drv/CH56x_gpio.c:43
			break;
     704:	8082                	ret
/home/ju/HydraDancer/enumeration/firmware/../../wch-ch56x-bsp/drv/CH56x_gpio.c:46
			R32_PA_SMT &=~ pin;
     706:	400017b7          	lui	a5,0x40001
     70a:	4ff4                	lw	a3,92(a5)
     70c:	fff54713          	not	a4,a0
     710:	8ef9                	and	a3,a3,a4
/home/ju/HydraDancer/enumeration/firmware/../../wch-ch56x-bsp/drv/CH56x_gpio.c:60
			R32_PA_SMT |= pin;
     712:	cff4                	sw	a3,92(a5)
/home/ju/HydraDancer/enumeration/firmware/../../wch-ch56x-bsp/drv/CH56x_gpio.c:61
			R32_PA_PD &= ~pin;
     714:	4bf4                	lw	a3,84(a5)
     716:	8ef9                	and	a3,a3,a4
     718:	cbf4                	sw	a3,84(a5)
/home/ju/HydraDancer/enumeration/firmware/../../wch-ch56x-bsp/drv/CH56x_gpio.c:62
			R32_PA_PU     |= pin;
     71a:	4bb4                	lw	a3,80(a5)
     71c:	8d55                	or	a0,a0,a3
     71e:	cba8                	sw	a0,80(a5)
/home/ju/HydraDancer/enumeration/firmware/../../wch-ch56x-bsp/drv/CH56x_gpio.c:63
			R32_PA_DIR    &= ~pin;
     720:	43b4                	lw	a3,64(a5)
     722:	8f75                	and	a4,a4,a3
     724:	c3b8                	sw	a4,64(a5)
/home/ju/HydraDancer/enumeration/firmware/../../wch-ch56x-bsp/drv/CH56x_gpio.c:64
			break;
     726:	8082                	ret
/home/ju/HydraDancer/enumeration/firmware/../../wch-ch56x-bsp/drv/CH56x_gpio.c:53
			R32_PA_SMT &=~ pin;
     728:	400017b7          	lui	a5,0x40001
     72c:	4ff4                	lw	a3,92(a5)
     72e:	fff54713          	not	a4,a0
     732:	8ef9                	and	a3,a3,a4
/home/ju/HydraDancer/enumeration/firmware/../../wch-ch56x-bsp/drv/CH56x_gpio.c:67
			R32_PA_SMT |= pin;
     734:	cff4                	sw	a3,92(a5)
/home/ju/HydraDancer/enumeration/firmware/../../wch-ch56x-bsp/drv/CH56x_gpio.c:68
			R32_PA_PD |= pin;
     736:	4bf4                	lw	a3,84(a5)
     738:	8d55                	or	a0,a0,a3
     73a:	cbe8                	sw	a0,84(a5)
/home/ju/HydraDancer/enumeration/firmware/../../wch-ch56x-bsp/drv/CH56x_gpio.c:69
			R32_PA_PU     &= ~pin;
     73c:	4bb4                	lw	a3,80(a5)
     73e:	8ef9                	and	a3,a3,a4
     740:	cbb4                	sw	a3,80(a5)
/home/ju/HydraDancer/enumeration/firmware/../../wch-ch56x-bsp/drv/CH56x_gpio.c:70
			R32_PA_DIR    &= ~pin;
     742:	43b4                	lw	a3,64(a5)
     744:	8f75                	and	a4,a4,a3
     746:	c3b8                	sw	a4,64(a5)
/home/ju/HydraDancer/enumeration/firmware/../../wch-ch56x-bsp/drv/CH56x_gpio.c:71
			break;
     748:	8082                	ret
/home/ju/HydraDancer/enumeration/firmware/../../wch-ch56x-bsp/drv/CH56x_gpio.c:60
			R32_PA_SMT |= pin;
     74a:	400017b7          	lui	a5,0x40001
     74e:	4ff4                	lw	a3,92(a5)
/home/ju/HydraDancer/enumeration/firmware/../../wch-ch56x-bsp/drv/CH56x_gpio.c:61
			R32_PA_PD &= ~pin;
     750:	fff54713          	not	a4,a0
/home/ju/HydraDancer/enumeration/firmware/../../wch-ch56x-bsp/drv/CH56x_gpio.c:60
			R32_PA_SMT |= pin;
     754:	8ec9                	or	a3,a3,a0
     756:	bf75                	j	712 <GPIOA_ModeCfg+0x62>
/home/ju/HydraDancer/enumeration/firmware/../../wch-ch56x-bsp/drv/CH56x_gpio.c:67
			R32_PA_SMT |= pin;
     758:	400017b7          	lui	a5,0x40001
     75c:	4ff4                	lw	a3,92(a5)
/home/ju/HydraDancer/enumeration/firmware/../../wch-ch56x-bsp/drv/CH56x_gpio.c:69
			R32_PA_PU     &= ~pin;
     75e:	fff54713          	not	a4,a0
/home/ju/HydraDancer/enumeration/firmware/../../wch-ch56x-bsp/drv/CH56x_gpio.c:67
			R32_PA_SMT |= pin;
     762:	8ec9                	or	a3,a3,a0
     764:	bfc1                	j	734 <GPIOA_ModeCfg+0x84>
/home/ju/HydraDancer/enumeration/firmware/../../wch-ch56x-bsp/drv/CH56x_gpio.c:74
			R32_PA_SMT |= pin;
     766:	400017b7          	lui	a5,0x40001
     76a:	4ff4                	lw	a3,92(a5)
/home/ju/HydraDancer/enumeration/firmware/../../wch-ch56x-bsp/drv/CH56x_gpio.c:75
			R32_PA_DRV &= ~pin;
     76c:	fff54713          	not	a4,a0
/home/ju/HydraDancer/enumeration/firmware/../../wch-ch56x-bsp/drv/CH56x_gpio.c:74
			R32_PA_SMT |= pin;
     770:	8ec9                	or	a3,a3,a0
     772:	cff4                	sw	a3,92(a5)
/home/ju/HydraDancer/enumeration/firmware/../../wch-ch56x-bsp/drv/CH56x_gpio.c:75
			R32_PA_DRV &= ~pin;
     774:	4fb4                	lw	a3,88(a5)
     776:	8ef9                	and	a3,a3,a4
/home/ju/HydraDancer/enumeration/firmware/../../wch-ch56x-bsp/drv/CH56x_gpio.c:96
			R32_PA_DRV |= pin;
     778:	cfb4                	sw	a3,88(a5)
/home/ju/HydraDancer/enumeration/firmware/../../wch-ch56x-bsp/drv/CH56x_gpio.c:97
			R32_PA_PD &= ~pin;
     77a:	4bf4                	lw	a3,84(a5)
     77c:	8f75                	and	a4,a4,a3
     77e:	cbf8                	sw	a4,84(a5)
/home/ju/HydraDancer/enumeration/firmware/../../wch-ch56x-bsp/drv/CH56x_gpio.c:98
			R32_PA_DIR    |= pin;
     780:	43b8                	lw	a4,64(a5)
     782:	8d59                	or	a0,a0,a4
     784:	c3a8                	sw	a0,64(a5)
/home/ju/HydraDancer/enumeration/firmware/../../wch-ch56x-bsp/drv/CH56x_gpio.c:99
			break;
     786:	8082                	ret
/home/ju/HydraDancer/enumeration/firmware/../../wch-ch56x-bsp/drv/CH56x_gpio.c:81
			R32_PA_SMT |= pin;
     788:	400017b7          	lui	a5,0x40001
     78c:	4ff4                	lw	a3,92(a5)
/home/ju/HydraDancer/enumeration/firmware/../../wch-ch56x-bsp/drv/CH56x_gpio.c:83
			R32_PA_PD &= ~pin;
     78e:	fff54713          	not	a4,a0
/home/ju/HydraDancer/enumeration/firmware/../../wch-ch56x-bsp/drv/CH56x_gpio.c:81
			R32_PA_SMT |= pin;
     792:	8ec9                	or	a3,a3,a0
/home/ju/HydraDancer/enumeration/firmware/../../wch-ch56x-bsp/drv/CH56x_gpio.c:95
			R32_PA_SMT &= ~pin;
     794:	cff4                	sw	a3,92(a5)
/home/ju/HydraDancer/enumeration/firmware/../../wch-ch56x-bsp/drv/CH56x_gpio.c:96
			R32_PA_DRV |= pin;
     796:	4fb4                	lw	a3,88(a5)
     798:	8ec9                	or	a3,a3,a0
     79a:	cfb4                	sw	a3,88(a5)
/home/ju/HydraDancer/enumeration/firmware/../../wch-ch56x-bsp/drv/CH56x_gpio.c:97
			R32_PA_PD &= ~pin;
     79c:	4bf4                	lw	a3,84(a5)
     79e:	8f75                	and	a4,a4,a3
     7a0:	cbf8                	sw	a4,84(a5)
/home/ju/HydraDancer/enumeration/firmware/../../wch-ch56x-bsp/drv/CH56x_gpio.c:98
			R32_PA_DIR    |= pin;
     7a2:	43b8                	lw	a4,64(a5)
     7a4:	8d59                	or	a0,a0,a4
     7a6:	c3a8                	sw	a0,64(a5)
/home/ju/HydraDancer/enumeration/firmware/../../wch-ch56x-bsp/drv/CH56x_gpio.c:99
			break;
     7a8:	8082                	ret
/home/ju/HydraDancer/enumeration/firmware/../../wch-ch56x-bsp/drv/CH56x_gpio.c:88
			R32_PA_SMT &= ~pin;
     7aa:	400017b7          	lui	a5,0x40001
     7ae:	4ff4                	lw	a3,92(a5)
     7b0:	fff54713          	not	a4,a0
     7b4:	8ef9                	and	a3,a3,a4
     7b6:	cff4                	sw	a3,92(a5)
/home/ju/HydraDancer/enumeration/firmware/../../wch-ch56x-bsp/drv/CH56x_gpio.c:89
			R32_PA_DRV &= ~pin;
     7b8:	4fb4                	lw	a3,88(a5)
     7ba:	8ef9                	and	a3,a3,a4
     7bc:	bf75                	j	778 <GPIOA_ModeCfg+0xc8>
/home/ju/HydraDancer/enumeration/firmware/../../wch-ch56x-bsp/drv/CH56x_gpio.c:95
			R32_PA_SMT &= ~pin;
     7be:	400017b7          	lui	a5,0x40001
     7c2:	4ff4                	lw	a3,92(a5)
     7c4:	fff54713          	not	a4,a0
     7c8:	8ef9                	and	a3,a3,a4
     7ca:	b7e9                	j	794 <GPIOA_ModeCfg+0xe4>

000007cc <GPIOB_ModeCfg>:
GPIOB_ModeCfg():
/home/ju/HydraDancer/enumeration/firmware/../../wch-ch56x-bsp/drv/CH56x_gpio.c:142
 * @return None
 */

void GPIOB_ModeCfg(uint32_t pin, GPIOModeTypeDef mode)
{
	switch(mode)
     7cc:	47a9                	li	a5,10
     7ce:	02b7e663          	bltu	a5,a1,7fa <GPIOB_ModeCfg+0x2e>
     7d2:	6791                	lui	a5,0x4
     7d4:	b4878793          	addi	a5,a5,-1208 # 3b48 <_sbrk+0x50>
     7d8:	058a                	slli	a1,a1,0x2
     7da:	95be                	add	a1,a1,a5
     7dc:	419c                	lw	a5,0(a1)
     7de:	8782                	jr	a5
/home/ju/HydraDancer/enumeration/firmware/../../wch-ch56x-bsp/drv/CH56x_gpio.c:207
			R32_PB_PD &= ~pin;
			R32_PB_DIR    |= pin;
			break;

		case GPIO_ModeOut_OP_8mA:
			R32_PB_DRV &= ~pin;
     7e0:	400017b7          	lui	a5,0x40001
     7e4:	5fb4                	lw	a3,120(a5)
     7e6:	fff54713          	not	a4,a0
     7ea:	8f75                	and	a4,a4,a3
/home/ju/HydraDancer/enumeration/firmware/../../wch-ch56x-bsp/drv/CH56x_gpio.c:213
			R32_PB_PD  |= pin;
			R32_PB_DIR    |= pin;
			break;

		case GPIO_ModeOut_OP_16mA:
			R32_PB_DRV |= pin;
     7ec:	dfb8                	sw	a4,120(a5)
/home/ju/HydraDancer/enumeration/firmware/../../wch-ch56x-bsp/drv/CH56x_gpio.c:214
			R32_PB_PD  |= pin;
     7ee:	5bf8                	lw	a4,116(a5)
     7f0:	8f49                	or	a4,a4,a0
     7f2:	dbf8                	sw	a4,116(a5)
/home/ju/HydraDancer/enumeration/firmware/../../wch-ch56x-bsp/drv/CH56x_gpio.c:215
			R32_PB_DIR    |= pin;
     7f4:	53b8                	lw	a4,96(a5)
     7f6:	8d59                	or	a0,a0,a4
     7f8:	d3a8                	sw	a0,96(a5)
/home/ju/HydraDancer/enumeration/firmware/../../wch-ch56x-bsp/drv/CH56x_gpio.c:221
			break;

		default:
			break;
	}
}
     7fa:	8082                	ret
/home/ju/HydraDancer/enumeration/firmware/../../wch-ch56x-bsp/drv/CH56x_gpio.c:213
			R32_PB_DRV |= pin;
     7fc:	400017b7          	lui	a5,0x40001
     800:	5fb8                	lw	a4,120(a5)
     802:	8f49                	or	a4,a4,a0
     804:	b7e5                	j	7ec <GPIOB_ModeCfg+0x20>
/home/ju/HydraDancer/enumeration/firmware/../../wch-ch56x-bsp/drv/CH56x_gpio.c:145
			R32_PB_PD &= ~pin;
     806:	400017b7          	lui	a5,0x40001
     80a:	5bf8                	lw	a4,116(a5)
     80c:	fff54513          	not	a0,a0
     810:	8f69                	and	a4,a4,a0
     812:	dbf8                	sw	a4,116(a5)
/home/ju/HydraDancer/enumeration/firmware/../../wch-ch56x-bsp/drv/CH56x_gpio.c:146
			R32_PB_PU     &= ~pin;
     814:	5bb8                	lw	a4,112(a5)
     816:	8f69                	and	a4,a4,a0
     818:	dbb8                	sw	a4,112(a5)
/home/ju/HydraDancer/enumeration/firmware/../../wch-ch56x-bsp/drv/CH56x_gpio.c:147
			R32_PB_DIR    &= ~pin;
     81a:	53b8                	lw	a4,96(a5)
     81c:	8d79                	and	a0,a0,a4
     81e:	d3a8                	sw	a0,96(a5)
/home/ju/HydraDancer/enumeration/firmware/../../wch-ch56x-bsp/drv/CH56x_gpio.c:148
			break;
     820:	8082                	ret
/home/ju/HydraDancer/enumeration/firmware/../../wch-ch56x-bsp/drv/CH56x_gpio.c:151
			R32_PB_SMT &=~ pin;
     822:	400017b7          	lui	a5,0x40001
     826:	5ff4                	lw	a3,124(a5)
     828:	fff54713          	not	a4,a0
     82c:	8ef9                	and	a3,a3,a4
/home/ju/HydraDancer/enumeration/firmware/../../wch-ch56x-bsp/drv/CH56x_gpio.c:165
			R32_PB_SMT |= pin;
     82e:	dff4                	sw	a3,124(a5)
/home/ju/HydraDancer/enumeration/firmware/../../wch-ch56x-bsp/drv/CH56x_gpio.c:166
			R32_PB_PD &= ~pin;
     830:	5bf4                	lw	a3,116(a5)
     832:	8ef9                	and	a3,a3,a4
     834:	dbf4                	sw	a3,116(a5)
/home/ju/HydraDancer/enumeration/firmware/../../wch-ch56x-bsp/drv/CH56x_gpio.c:167
			R32_PB_PU     |= pin;
     836:	5bb4                	lw	a3,112(a5)
     838:	8d55                	or	a0,a0,a3
     83a:	dba8                	sw	a0,112(a5)
/home/ju/HydraDancer/enumeration/firmware/../../wch-ch56x-bsp/drv/CH56x_gpio.c:168
			R32_PB_DIR    &= ~pin;
     83c:	53b4                	lw	a3,96(a5)
     83e:	8f75                	and	a4,a4,a3
     840:	d3b8                	sw	a4,96(a5)
/home/ju/HydraDancer/enumeration/firmware/../../wch-ch56x-bsp/drv/CH56x_gpio.c:169
			break;
     842:	8082                	ret
/home/ju/HydraDancer/enumeration/firmware/../../wch-ch56x-bsp/drv/CH56x_gpio.c:158
			R32_PB_SMT &=~ pin;
     844:	400017b7          	lui	a5,0x40001
     848:	5ff4                	lw	a3,124(a5)
     84a:	fff54713          	not	a4,a0
     84e:	8ef9                	and	a3,a3,a4
/home/ju/HydraDancer/enumeration/firmware/../../wch-ch56x-bsp/drv/CH56x_gpio.c:172
			R32_PB_SMT |= pin;
     850:	dff4                	sw	a3,124(a5)
/home/ju/HydraDancer/enumeration/firmware/../../wch-ch56x-bsp/drv/CH56x_gpio.c:173
			R32_PB_PD |= pin;
     852:	5bf4                	lw	a3,116(a5)
     854:	8d55                	or	a0,a0,a3
     856:	dbe8                	sw	a0,116(a5)
/home/ju/HydraDancer/enumeration/firmware/../../wch-ch56x-bsp/drv/CH56x_gpio.c:174
			R32_PB_PU     &= ~pin;
     858:	5bb4                	lw	a3,112(a5)
     85a:	8ef9                	and	a3,a3,a4
     85c:	dbb4                	sw	a3,112(a5)
/home/ju/HydraDancer/enumeration/firmware/../../wch-ch56x-bsp/drv/CH56x_gpio.c:175
			R32_PB_DIR    &= ~pin;
     85e:	53b4                	lw	a3,96(a5)
     860:	8f75                	and	a4,a4,a3
     862:	d3b8                	sw	a4,96(a5)
/home/ju/HydraDancer/enumeration/firmware/../../wch-ch56x-bsp/drv/CH56x_gpio.c:176
			break;
     864:	8082                	ret
/home/ju/HydraDancer/enumeration/firmware/../../wch-ch56x-bsp/drv/CH56x_gpio.c:165
			R32_PB_SMT |= pin;
     866:	400017b7          	lui	a5,0x40001
     86a:	5ff4                	lw	a3,124(a5)
/home/ju/HydraDancer/enumeration/firmware/../../wch-ch56x-bsp/drv/CH56x_gpio.c:166
			R32_PB_PD &= ~pin;
     86c:	fff54713          	not	a4,a0
/home/ju/HydraDancer/enumeration/firmware/../../wch-ch56x-bsp/drv/CH56x_gpio.c:165
			R32_PB_SMT |= pin;
     870:	8ec9                	or	a3,a3,a0
     872:	bf75                	j	82e <__stack_size+0x2e>
/home/ju/HydraDancer/enumeration/firmware/../../wch-ch56x-bsp/drv/CH56x_gpio.c:172
			R32_PB_SMT |= pin;
     874:	400017b7          	lui	a5,0x40001
     878:	5ff4                	lw	a3,124(a5)
/home/ju/HydraDancer/enumeration/firmware/../../wch-ch56x-bsp/drv/CH56x_gpio.c:174
			R32_PB_PU     &= ~pin;
     87a:	fff54713          	not	a4,a0
/home/ju/HydraDancer/enumeration/firmware/../../wch-ch56x-bsp/drv/CH56x_gpio.c:172
			R32_PB_SMT |= pin;
     87e:	8ec9                	or	a3,a3,a0
     880:	bfc1                	j	850 <__stack_size+0x50>
/home/ju/HydraDancer/enumeration/firmware/../../wch-ch56x-bsp/drv/CH56x_gpio.c:179
			R32_PB_SMT |= pin;
     882:	400017b7          	lui	a5,0x40001
     886:	5ff4                	lw	a3,124(a5)
/home/ju/HydraDancer/enumeration/firmware/../../wch-ch56x-bsp/drv/CH56x_gpio.c:180
			R32_PB_DRV &= ~pin;
     888:	fff54713          	not	a4,a0
/home/ju/HydraDancer/enumeration/firmware/../../wch-ch56x-bsp/drv/CH56x_gpio.c:179
			R32_PB_SMT |= pin;
     88c:	8ec9                	or	a3,a3,a0
     88e:	dff4                	sw	a3,124(a5)
/home/ju/HydraDancer/enumeration/firmware/../../wch-ch56x-bsp/drv/CH56x_gpio.c:180
			R32_PB_DRV &= ~pin;
     890:	5fb4                	lw	a3,120(a5)
     892:	8ef9                	and	a3,a3,a4
/home/ju/HydraDancer/enumeration/firmware/../../wch-ch56x-bsp/drv/CH56x_gpio.c:201
			R32_PB_DRV |= pin;
     894:	dfb4                	sw	a3,120(a5)
/home/ju/HydraDancer/enumeration/firmware/../../wch-ch56x-bsp/drv/CH56x_gpio.c:202
			R32_PB_PD &= ~pin;
     896:	5bf4                	lw	a3,116(a5)
     898:	8f75                	and	a4,a4,a3
     89a:	dbf8                	sw	a4,116(a5)
/home/ju/HydraDancer/enumeration/firmware/../../wch-ch56x-bsp/drv/CH56x_gpio.c:203
			R32_PB_DIR    |= pin;
     89c:	53b8                	lw	a4,96(a5)
     89e:	8d59                	or	a0,a0,a4
     8a0:	d3a8                	sw	a0,96(a5)
/home/ju/HydraDancer/enumeration/firmware/../../wch-ch56x-bsp/drv/CH56x_gpio.c:204
			break;
     8a2:	8082                	ret
/home/ju/HydraDancer/enumeration/firmware/../../wch-ch56x-bsp/drv/CH56x_gpio.c:186
			R32_PB_SMT |= pin;
     8a4:	400017b7          	lui	a5,0x40001
     8a8:	5ff4                	lw	a3,124(a5)
/home/ju/HydraDancer/enumeration/firmware/../../wch-ch56x-bsp/drv/CH56x_gpio.c:188
			R32_PB_PD &= ~pin;
     8aa:	fff54713          	not	a4,a0
/home/ju/HydraDancer/enumeration/firmware/../../wch-ch56x-bsp/drv/CH56x_gpio.c:186
			R32_PB_SMT |= pin;
     8ae:	8ec9                	or	a3,a3,a0
/home/ju/HydraDancer/enumeration/firmware/../../wch-ch56x-bsp/drv/CH56x_gpio.c:200
			R32_PB_SMT &= ~pin;
     8b0:	dff4                	sw	a3,124(a5)
/home/ju/HydraDancer/enumeration/firmware/../../wch-ch56x-bsp/drv/CH56x_gpio.c:201
			R32_PB_DRV |= pin;
     8b2:	5fb4                	lw	a3,120(a5)
     8b4:	8ec9                	or	a3,a3,a0
     8b6:	dfb4                	sw	a3,120(a5)
/home/ju/HydraDancer/enumeration/firmware/../../wch-ch56x-bsp/drv/CH56x_gpio.c:202
			R32_PB_PD &= ~pin;
     8b8:	5bf4                	lw	a3,116(a5)
     8ba:	8f75                	and	a4,a4,a3
     8bc:	dbf8                	sw	a4,116(a5)
/home/ju/HydraDancer/enumeration/firmware/../../wch-ch56x-bsp/drv/CH56x_gpio.c:203
			R32_PB_DIR    |= pin;
     8be:	53b8                	lw	a4,96(a5)
     8c0:	8d59                	or	a0,a0,a4
     8c2:	d3a8                	sw	a0,96(a5)
/home/ju/HydraDancer/enumeration/firmware/../../wch-ch56x-bsp/drv/CH56x_gpio.c:204
			break;
     8c4:	8082                	ret
/home/ju/HydraDancer/enumeration/firmware/../../wch-ch56x-bsp/drv/CH56x_gpio.c:193
			R32_PB_SMT &= ~pin;
     8c6:	400017b7          	lui	a5,0x40001
     8ca:	5ff4                	lw	a3,124(a5)
     8cc:	fff54713          	not	a4,a0
     8d0:	8ef9                	and	a3,a3,a4
     8d2:	dff4                	sw	a3,124(a5)
/home/ju/HydraDancer/enumeration/firmware/../../wch-ch56x-bsp/drv/CH56x_gpio.c:194
			R32_PB_DRV &= ~pin;
     8d4:	5fb4                	lw	a3,120(a5)
     8d6:	8ef9                	and	a3,a3,a4
     8d8:	bf75                	j	894 <__stack_size+0x94>
/home/ju/HydraDancer/enumeration/firmware/../../wch-ch56x-bsp/drv/CH56x_gpio.c:200
			R32_PB_SMT &= ~pin;
     8da:	400017b7          	lui	a5,0x40001
     8de:	5ff4                	lw	a3,124(a5)
     8e0:	fff54713          	not	a4,a0
     8e4:	8ef9                	and	a3,a3,a4
     8e6:	b7e9                	j	8b0 <__stack_size+0xb0>

000008e8 <HSPI_DoubleDMA_Init>:
HSPI_DoubleDMA_Init():
/home/ju/HydraDancer/enumeration/firmware/../../wch-ch56x-bsp/drv/CH56x_hspi.c:40
						 uint32_t DMA0_addr, uint32_t DMA1_addr,
						 uint16_t DMA_addr_len)
{
	/* HSPI GPIO configuration */
	// TX GPIO PA9/PA11/PA21 Push-pull output
	R32_PA_DIR |= (1<<9) | (1<<11) | (1<<21);
     8e8:	400017b7          	lui	a5,0x40001
     8ec:	0407a803          	lw	a6,64(a5) # 40001040 <_dmadata_end+0x1ffcde40>
     8f0:	002018b7          	lui	a7,0x201
/home/ju/HydraDancer/enumeration/firmware/../../wch-ch56x-bsp/drv/CH56x_hspi.c:37
{
     8f4:	1101                	addi	sp,sp,-32
/home/ju/HydraDancer/enumeration/firmware/../../wch-ch56x-bsp/drv/CH56x_hspi.c:40
	R32_PA_DIR |= (1<<9) | (1<<11) | (1<<21);
     8f6:	a0088893          	addi	a7,a7,-1536 # 200a00 <_data_lma+0x1fbe90>
/home/ju/HydraDancer/enumeration/firmware/../../wch-ch56x-bsp/drv/CH56x_hspi.c:37
{
     8fa:	cc22                	sw	s0,24(sp)
     8fc:	ca26                	sw	s1,20(sp)
     8fe:	c84a                	sw	s2,16(sp)
     900:	c64e                	sw	s3,12(sp)
     902:	c452                	sw	s4,8(sp)
     904:	ce06                	sw	ra,28(sp)
/home/ju/HydraDancer/enumeration/firmware/../../wch-ch56x-bsp/drv/CH56x_hspi.c:40
	R32_PA_DIR |= (1<<9) | (1<<11) | (1<<21);
     906:	01186833          	or	a6,a6,a7
     90a:	0507a023          	sw	a6,64(a5)
/home/ju/HydraDancer/enumeration/firmware/../../wch-ch56x-bsp/drv/CH56x_hspi.c:42
	// clk 16mA
	R32_PA_DRV |= (1<<11);
     90e:	0587a803          	lw	a6,88(a5)
     912:	6885                	lui	a7,0x1
     914:	80088893          	addi	a7,a7,-2048 # 800 <__stack_size>
     918:	01186833          	or	a6,a6,a7
     91c:	0507ac23          	sw	a6,88(a5)
/home/ju/HydraDancer/enumeration/firmware/../../wch-ch56x-bsp/drv/CH56x_hspi.c:44
	// RX GPIO PA10 Push-pull output
	R32_PA_DIR |= (1<<10);
     920:	0407a803          	lw	a6,64(a5)
/home/ju/HydraDancer/enumeration/firmware/../../wch-ch56x-bsp/drv/CH56x_hspi.c:37
{
     924:	8a2a                	mv	s4,a0
/home/ju/HydraDancer/enumeration/firmware/../../wch-ch56x-bsp/drv/CH56x_hspi.c:45
	bsp_wait_us_delay(1); /* Wait "GPIO stabilization" mandatory before HSPI configuration to avoid potential CRC error */
     926:	4505                	li	a0,1
/home/ju/HydraDancer/enumeration/firmware/../../wch-ch56x-bsp/drv/CH56x_hspi.c:44
	R32_PA_DIR |= (1<<10);
     928:	40086813          	ori	a6,a6,1024
     92c:	0507a023          	sw	a6,64(a5)
/home/ju/HydraDancer/enumeration/firmware/../../wch-ch56x-bsp/drv/CH56x_hspi.c:37
{
     930:	843a                	mv	s0,a4
     932:	84ae                	mv	s1,a1
     934:	89b2                	mv	s3,a2
     936:	8936                	mv	s2,a3
/home/ju/HydraDancer/enumeration/firmware/../../wch-ch56x-bsp/drv/CH56x_hspi.c:45
	bsp_wait_us_delay(1); /* Wait "GPIO stabilization" mandatory before HSPI configuration to avoid potential CRC error */
     938:	3861                	jal	1d0 <bsp_wait_us_delay>
/home/ju/HydraDancer/enumeration/firmware/../../wch-ch56x-bsp/drv/CH56x_hspi.c:47

	R8_HSPI_CFG &= ~(RB_HSPI_MODE | RB_HSPI_MSK_SIZE); // Clear HSPI Configuration
     93a:	400067b7          	lui	a5,0x40006
     93e:	0007c703          	lbu	a4,0(a5) # 40006000 <_dmadata_end+0x1ffd2e00>
     942:	0f277713          	andi	a4,a4,242
     946:	00e78023          	sb	a4,0(a5)
/home/ju/HydraDancer/enumeration/firmware/../../wch-ch56x-bsp/drv/CH56x_hspi.c:50
	if (mode_type == HSPI_HOST)
	{
		R8_HSPI_CFG |= RB_HSPI_MODE; // Host
     94a:	0007c703          	lbu	a4,0(a5)
/home/ju/HydraDancer/enumeration/firmware/../../wch-ch56x-bsp/drv/CH56x_hspi.c:48
	if (mode_type == HSPI_HOST)
     94e:	100a1c63          	bnez	s4,a66 <HSPI_DoubleDMA_Init+0x17e>
/home/ju/HydraDancer/enumeration/firmware/../../wch-ch56x-bsp/drv/CH56x_hspi.c:50
		R8_HSPI_CFG |= RB_HSPI_MODE; // Host
     952:	00176713          	ori	a4,a4,1
     956:	00e78023          	sb	a4,0(a5)
/home/ju/HydraDancer/enumeration/firmware/../../wch-ch56x-bsp/drv/CH56x_hspi.c:57
	else
	{
		R8_HSPI_CFG &= ~(RB_HSPI_MODE); // Device
	}
	// Data size (8/16 or 32bits)
	R8_HSPI_CFG |= mode_data;
     95a:	0007c583          	lbu	a1,0(a5)
     95e:	8ccd                	or	s1,s1,a1
     960:	00978023          	sb	s1,0(a5)
/home/ju/HydraDancer/enumeration/firmware/../../wch-ch56x-bsp/drv/CH56x_hspi.c:60

	// ACk mode 0 (Hardware auto-answer mode is used in burst mode, not in normal mode)
	R8_HSPI_CFG &= ~RB_HSPI_HW_ACK;
     964:	0007c703          	lbu	a4,0(a5)
     968:	07f77713          	andi	a4,a4,127
     96c:	00e78023          	sb	a4,0(a5)
/home/ju/HydraDancer/enumeration/firmware/../../wch-ch56x-bsp/drv/CH56x_hspi.c:64

	if (mode_type == HSPI_HOST)
	{
		R8_HSPI_CFG |= RB_HSPI_TX_TOG_EN;
     970:	0007c703          	lbu	a4,0(a5)
     974:	02076713          	ori	a4,a4,32
     978:	00e78023          	sb	a4,0(a5)
/home/ju/HydraDancer/enumeration/firmware/../../wch-ch56x-bsp/drv/CH56x_hspi.c:73
		// HSPI_DEVICE
		R8_HSPI_CFG |= RB_HSPI_RX_TOG_EN;
	}

	// DUDMA 1 Enable dual DMA function Default enabled
	R8_HSPI_CFG |= RB_HSPI_DUALDMA;
     97c:	400067b7          	lui	a5,0x40006
     980:	0007c703          	lbu	a4,0(a5) # 40006000 <_dmadata_end+0x1ffd2e00>
     984:	00276713          	ori	a4,a4,2
     988:	00e78023          	sb	a4,0(a5)
/home/ju/HydraDancer/enumeration/firmware/../../wch-ch56x-bsp/drv/CH56x_hspi.c:76

	// Enable fast DMA request
	R8_HSPI_AUX |= RB_HSPI_REQ_FT;
     98c:	0037c703          	lbu	a4,3(a5)
     990:	02076713          	ori	a4,a4,32
     994:	00e781a3          	sb	a4,3(a5)
/home/ju/HydraDancer/enumeration/firmware/../../wch-ch56x-bsp/drv/CH56x_hspi.c:79

	// TX sampling edge
	R8_HSPI_AUX |= RB_HSPI_TCK_MOD; // falling edge sampling
     998:	0037c703          	lbu	a4,3(a5)
     99c:	00176713          	ori	a4,a4,1
     9a0:	00e781a3          	sb	a4,3(a5)
/home/ju/HydraDancer/enumeration/firmware/../../wch-ch56x-bsp/drv/CH56x_hspi.c:82

	// Hardware Auto ack time disabled
	R8_HSPI_AUX &= ~RB_HSPI_ACK_TX_MOD;
     9a4:	0037c703          	lbu	a4,3(a5)
     9a8:	0fb77713          	andi	a4,a4,251
     9ac:	00e781a3          	sb	a4,3(a5)
/home/ju/HydraDancer/enumeration/firmware/../../wch-ch56x-bsp/drv/CH56x_hspi.c:85

	// Delay time
	R8_HSPI_AUX &= ~RB_HSPI_ACK_CNT_SEL; //  Delay 2T
     9b0:	0037c703          	lbu	a4,3(a5)
     9b4:	0e777713          	andi	a4,a4,231
     9b8:	00e781a3          	sb	a4,3(a5)
/home/ju/HydraDancer/enumeration/firmware/../../wch-ch56x-bsp/drv/CH56x_hspi.c:88

	//clear ALL_CLR  TRX_RST  (reset)
	R8_HSPI_CTRL &= ~(RB_HSPI_ALL_CLR|RB_HSPI_TRX_RST);
     9bc:	0017c703          	lbu	a4,1(a5)
     9c0:	0e777713          	andi	a4,a4,231
     9c4:	00e780a3          	sb	a4,1(a5)
/home/ju/HydraDancer/enumeration/firmware/../../wch-ch56x-bsp/drv/CH56x_hspi.c:93

	//Enable Interrupt
	if (mode_type == HSPI_HOST)
	{
		R8_HSPI_INT_EN |= RB_HSPI_IE_T_DONE;  // Single packet sending completed
     9c8:	0027c703          	lbu	a4,2(a5)
/home/ju/HydraDancer/enumeration/firmware/../../wch-ch56x-bsp/drv/CH56x_hspi.c:91
	if (mode_type == HSPI_HOST)
     9cc:	080a1263          	bnez	s4,a50 <HSPI_DoubleDMA_Init+0x168>
/home/ju/HydraDancer/enumeration/firmware/../../wch-ch56x-bsp/drv/CH56x_hspi.c:93
		R8_HSPI_INT_EN |= RB_HSPI_IE_T_DONE;  // Single packet sending completed
     9d0:	00176713          	ori	a4,a4,1
     9d4:	00e78123          	sb	a4,2(a5)
/home/ju/HydraDancer/enumeration/firmware/../../wch-ch56x-bsp/drv/CH56x_hspi.c:94
		R8_HSPI_INT_EN |= RB_HSPI_IE_FIFO_OV;
     9d8:	0027c703          	lbu	a4,2(a5)
     9dc:	00476713          	ori	a4,a4,4
     9e0:	00e78123          	sb	a4,2(a5)
/home/ju/HydraDancer/enumeration/firmware/../../wch-ch56x-bsp/drv/CH56x_hspi.c:103
		// HSPI_DEVICE
		R8_HSPI_INT_EN |= RB_HSPI_IE_R_DONE;  // Single packet reception completed
		R8_HSPI_INT_EN |= RB_HSPI_IE_FIFO_OV;
	}
	// Config TX customized Header
	R32_HSPI_UDF0 = 0x3ABCDEF; // UDF0
     9e4:	03abd737          	lui	a4,0x3abd
     9e8:	400067b7          	lui	a5,0x40006
     9ec:	def70713          	addi	a4,a4,-529 # 3abcdef <_data_lma+0x3ab827f>
     9f0:	d398                	sw	a4,32(a5)
/home/ju/HydraDancer/enumeration/firmware/../../wch-ch56x-bsp/drv/CH56x_hspi.c:104
	R32_HSPI_UDF1 = 0x3456789; // UDF1
     9f2:	03456737          	lui	a4,0x3456
     9f6:	78970713          	addi	a4,a4,1929 # 3456789 <_data_lma+0x3451c19>
     9fa:	d3d8                	sw	a4,36(a5)
/home/ju/HydraDancer/enumeration/firmware/../../wch-ch56x-bsp/drv/CH56x_hspi.c:107

	// addr0 DMA TX RX addr
	R32_HSPI_TX_ADDR0 = DMA0_addr;
     9fc:	0137a223          	sw	s3,4(a5) # 40006004 <_dmadata_end+0x1ffd2e04>
/home/ju/HydraDancer/enumeration/firmware/../../wch-ch56x-bsp/drv/CH56x_hspi.c:108
	R32_HSPI_RX_ADDR0 = DMA0_addr;
     a00:	0137a623          	sw	s3,12(a5)
/home/ju/HydraDancer/enumeration/firmware/../../wch-ch56x-bsp/drv/CH56x_hspi.c:114
	// addr1 DMA TX RX addr
	R32_HSPI_TX_ADDR1 = DMA1_addr;
	R32_HSPI_RX_ADDR1 = DMA1_addr;

	// addr0 TX DMA len
	R16_HSPI_DMA_LEN0 = DMA_addr_len - 1;
     a04:	fff40713          	addi	a4,s0,-1 # 40000fff <_dmadata_end+0x1ffcddff>
/home/ju/HydraDancer/enumeration/firmware/../../wch-ch56x-bsp/drv/CH56x_hspi.c:110
	R32_HSPI_TX_ADDR1 = DMA1_addr;
     a08:	0127a423          	sw	s2,8(a5)
/home/ju/HydraDancer/enumeration/firmware/../../wch-ch56x-bsp/drv/CH56x_hspi.c:114
	R16_HSPI_DMA_LEN0 = DMA_addr_len - 1;
     a0c:	0742                	slli	a4,a4,0x10
/home/ju/HydraDancer/enumeration/firmware/../../wch-ch56x-bsp/drv/CH56x_hspi.c:111
	R32_HSPI_RX_ADDR1 = DMA1_addr;
     a0e:	0127a823          	sw	s2,16(a5)
/home/ju/HydraDancer/enumeration/firmware/../../wch-ch56x-bsp/drv/CH56x_hspi.c:114
	R16_HSPI_DMA_LEN0 = DMA_addr_len - 1;
     a12:	8341                	srli	a4,a4,0x10
     a14:	00e79a23          	sh	a4,20(a5)
/home/ju/HydraDancer/enumeration/firmware/../../wch-ch56x-bsp/drv/CH56x_hspi.c:116
	// addr1 TX DMA len
	R16_HSPI_DMA_LEN1 = DMA_addr_len - 1;
     a18:	00e79c23          	sh	a4,24(a5)
/home/ju/HydraDancer/enumeration/firmware/../../wch-ch56x-bsp/drv/CH56x_hspi.c:119

	// addr0 RX DMA len
	R16_HSPI_RX_LEN0 = 0; // 0 means max size 4096 bytes
     a1c:	00079b23          	sh	zero,22(a5)
/home/ju/HydraDancer/enumeration/firmware/../../wch-ch56x-bsp/drv/CH56x_hspi.c:121
	// addr1 RX DMA len
	R16_HSPI_RX_LEN1 = 0; // 0 means max size 4096 bytes
     a20:	00079d23          	sh	zero,26(a5)
/home/ju/HydraDancer/enumeration/firmware/../../wch-ch56x-bsp/drv/CH56x_hspi.c:124

	// Burst Disabled
	R16_HSPI_BURST_CFG = 0x0000;
     a24:	00079e23          	sh	zero,28(a5)
/home/ju/HydraDancer/enumeration/firmware/../../wch-ch56x-bsp/drv/CH56x_hspi.c:127

	//Enable HSPI DMA
	R8_HSPI_CTRL |= RB_HSPI_ENABLE | RB_HSPI_DMA_EN;
     a28:	0017c703          	lbu	a4,1(a5)
     a2c:	00376713          	ori	a4,a4,3
     a30:	00e780a3          	sb	a4,1(a5)
/home/ju/HydraDancer/enumeration/firmware/../../wch-ch56x-bsp/drv/CH56x_hspi.c:130

	PFIC_EnableIRQ(HSPI_IRQn);
}
     a34:	40f2                	lw	ra,28(sp)
     a36:	4462                	lw	s0,24(sp)
PFIC_EnableIRQ():
/home/ju/HydraDancer/enumeration/firmware/../../wch-ch56x-bsp/rvmsis/core_riscv.h:103
 *
 * @return  none
 */
RV_STATIC_INLINE void PFIC_EnableIRQ(IRQn_Type IRQn)
{
	PFIC->IENR[((uint32_t)(IRQn) >> 5)] = (1 << ((uint32_t)(IRQn) & 0x1F));
     a38:	e000e7b7          	lui	a5,0xe000e
     a3c:	10000737          	lui	a4,0x10000
     a40:	10e7a023          	sw	a4,256(a5) # e000e100 <_dmadata_end+0xbffdaf00>
HSPI_DoubleDMA_Init():
/home/ju/HydraDancer/enumeration/firmware/../../wch-ch56x-bsp/drv/CH56x_hspi.c:130
     a44:	44d2                	lw	s1,20(sp)
     a46:	4942                	lw	s2,16(sp)
     a48:	49b2                	lw	s3,12(sp)
     a4a:	4a22                	lw	s4,8(sp)
     a4c:	6105                	addi	sp,sp,32
     a4e:	8082                	ret
/home/ju/HydraDancer/enumeration/firmware/../../wch-ch56x-bsp/drv/CH56x_hspi.c:99
		R8_HSPI_INT_EN |= RB_HSPI_IE_R_DONE;  // Single packet reception completed
     a50:	00276713          	ori	a4,a4,2
     a54:	00e78123          	sb	a4,2(a5)
/home/ju/HydraDancer/enumeration/firmware/../../wch-ch56x-bsp/drv/CH56x_hspi.c:100
		R8_HSPI_INT_EN |= RB_HSPI_IE_FIFO_OV;
     a58:	0027c703          	lbu	a4,2(a5)
     a5c:	00476713          	ori	a4,a4,4
     a60:	00e78123          	sb	a4,2(a5)
     a64:	b741                	j	9e4 <HSPI_DoubleDMA_Init+0xfc>
/home/ju/HydraDancer/enumeration/firmware/../../wch-ch56x-bsp/drv/CH56x_hspi.c:54
		R8_HSPI_CFG &= ~(RB_HSPI_MODE); // Device
     a66:	0fe77713          	andi	a4,a4,254
     a6a:	00e78023          	sb	a4,0(a5)
/home/ju/HydraDancer/enumeration/firmware/../../wch-ch56x-bsp/drv/CH56x_hspi.c:57
	R8_HSPI_CFG |= mode_data;
     a6e:	0007c583          	lbu	a1,0(a5)
     a72:	8ccd                	or	s1,s1,a1
     a74:	00978023          	sb	s1,0(a5)
/home/ju/HydraDancer/enumeration/firmware/../../wch-ch56x-bsp/drv/CH56x_hspi.c:60
	R8_HSPI_CFG &= ~RB_HSPI_HW_ACK;
     a78:	0007c703          	lbu	a4,0(a5)
     a7c:	07f77713          	andi	a4,a4,127
     a80:	00e78023          	sb	a4,0(a5)
/home/ju/HydraDancer/enumeration/firmware/../../wch-ch56x-bsp/drv/CH56x_hspi.c:69
		R8_HSPI_CFG |= RB_HSPI_RX_TOG_EN;
     a84:	0007c703          	lbu	a4,0(a5)
     a88:	04076713          	ori	a4,a4,64
     a8c:	00e78023          	sb	a4,0(a5)
     a90:	b5f5                	j	97c <HSPI_DoubleDMA_Init+0x94>

00000a92 <HSPI_DMA_Tx>:
HSPI_DMA_Tx():
/home/ju/HydraDancer/enumeration/firmware/../../wch-ch56x-bsp/drv/CH56x_hspi.c:192
 *
 * @return   None
 */
void HSPI_DMA_Tx(void)
{
	R8_HSPI_INT_FLAG = 0xF; // Clear all HSPI flags to 0 before sending
     a92:	400067b7          	lui	a5,0x40006
     a96:	473d                	li	a4,15
     a98:	02e78423          	sb	a4,40(a5) # 40006028 <_dmadata_end+0x1ffd2e28>
/home/ju/HydraDancer/enumeration/firmware/../../wch-ch56x-bsp/drv/CH56x_hspi.c:193
	R8_HSPI_CTRL |= RB_HSPI_SW_ACT; // Software, trigger to send
     a9c:	0017c703          	lbu	a4,1(a5)
     aa0:	00476713          	ori	a4,a4,4
     aa4:	00e780a3          	sb	a4,1(a5)
/home/ju/HydraDancer/enumeration/firmware/../../wch-ch56x-bsp/drv/CH56x_hspi.c:194
}
     aa8:	8082                	ret

00000aaa <SerDes_Tx_Init>:
SerDes_Tx_Init():
/home/ju/HydraDancer/enumeration/firmware/../../wch-ch56x-bsp/drv/CH56x_serdes.c:20
* Description    : SerDes configuration of hardware in Tx mode
* Input          : SDS_PLL_FREQ see e_sds_pll_freq
* Return         : None
*******************************************************************************/
void SerDes_Tx_Init(e_sds_pll_freq SDS_PLL_FREQ)
{
     aaa:	1141                	addi	sp,sp,-16
     aac:	c422                	sw	s0,8(sp)
     aae:	c226                	sw	s1,4(sp)
     ab0:	c606                	sw	ra,12(sp)
/home/ju/HydraDancer/enumeration/firmware/../../wch-ch56x-bsp/drv/CH56x_serdes.c:23
	uint32_t sds_status;

	R8_SAFE_ACCESS_SIG = 0x57; // enable safe access mode
     ab2:	400017b7          	lui	a5,0x40001
     ab6:	05700713          	li	a4,87
     aba:	00e78023          	sb	a4,0(a5) # 40001000 <_dmadata_end+0x1ffcde00>
/home/ju/HydraDancer/enumeration/firmware/../../wch-ch56x-bsp/drv/CH56x_serdes.c:24
	R8_SAFE_ACCESS_SIG = 0xa8;
     abe:	fa800713          	li	a4,-88
     ac2:	00e78023          	sb	a4,0(a5)
/home/ju/HydraDancer/enumeration/firmware/../../wch-ch56x-bsp/drv/CH56x_serdes.c:25
	R16_SERD_ANA_CFG1 = 0x5a;
     ac6:	05a00713          	li	a4,90
     aca:	02e79023          	sh	a4,32(a5)
/home/ju/HydraDancer/enumeration/firmware/../../wch-ch56x-bsp/drv/CH56x_serdes.c:26
	R32_SERD_ANA_CFG2 = 0x00423015; // This value is not documented
     ace:	00423737          	lui	a4,0x423
     ad2:	0755                	addi	a4,a4,21
     ad4:	d3d8                	sw	a4,36(a5)
/home/ju/HydraDancer/enumeration/firmware/../../wch-ch56x-bsp/drv/CH56x_serdes.c:32
	/* R32_SERD_ANA_CFG2
	 * [24:0] RB_SERD_TRX_CFG (Undocumented)
	 * Receive/transmit parameter configuration of SerDes PHY.
	 */

	SDS->SDS_CTRL = (PHY_RESET | LINK_RESET | SDS_ALL_CLR); // Init all required to change in live from TX/RX...
     ad6:	4000b737          	lui	a4,0x4000b
     ada:	479d                	li	a5,7
     adc:	c31c                	sw	a5,0(a4)
/home/ju/HydraDancer/enumeration/firmware/../../wch-ch56x-bsp/drv/CH56x_serdes.c:36
	SDS->SDS_CTRL = (SDS_POWR_UP |
					 SDS_TX_PU | SDS_RX_PU |
					 SDS_PLL_PU | SDS_PLL_FREQ |
					 LINK_RESET | SDS_ALL_CLR);
     ade:	67f9                	lui	a5,0x1e
     ae0:	078d                	addi	a5,a5,3
     ae2:	8fc9                	or	a5,a5,a0
/home/ju/HydraDancer/enumeration/firmware/../../wch-ch56x-bsp/drv/CH56x_serdes.c:20
{
     ae4:	84aa                	mv	s1,a0
/home/ju/HydraDancer/enumeration/firmware/../../wch-ch56x-bsp/drv/CH56x_serdes.c:33
	SDS->SDS_CTRL = (SDS_POWR_UP |
     ae6:	c31c                	sw	a5,0(a4)
/home/ju/HydraDancer/enumeration/firmware/../../wch-ch56x-bsp/drv/CH56x_serdes.c:39
	do
	{
		sds_status = SDS->SDS_STATUS;
     ae8:	4000b437          	lui	s0,0x4000b
/home/ju/HydraDancer/enumeration/firmware/../../wch-ch56x-bsp/drv/CH56x_serdes.c:39 (discriminator 1)
     aec:	441c                	lw	a5,8(s0)
/home/ju/HydraDancer/enumeration/firmware/../../wch-ch56x-bsp/drv/CH56x_serdes.c:41 (discriminator 1)
	}
	while ( !(sds_status & SDS_PLL_READY) );
     aee:	00c79713          	slli	a4,a5,0xc
     af2:	fe075de3          	bgez	a4,aec <SerDes_Tx_Init+0x42>
/home/ju/HydraDancer/enumeration/firmware/../../wch-ch56x-bsp/drv/CH56x_serdes.c:43

	bsp_wait_us_delay(1);
     af6:	4505                	li	a0,1
     af8:	ed8ff0ef          	jal	ra,1d0 <bsp_wait_us_delay>
/home/ju/HydraDancer/enumeration/firmware/../../wch-ch56x-bsp/drv/CH56x_serdes.c:51
					 SDS_TX_PU | SDS_RX_PU |
					 SDS_PLL_PU | SDS_PLL_FREQ |
					 SDS_INT_BUSY_EN |
					 SDS_DMA_EN |
					 SDS_TX_EN |
					 SDS_ALIGN_EN |
     afc:	0007e7b7          	lui	a5,0x7e
     b00:	0c878793          	addi	a5,a5,200 # 7e0c8 <_data_lma+0x79558>
     b04:	8cdd                	or	s1,s1,a5
/home/ju/HydraDancer/enumeration/firmware/../../wch-ch56x-bsp/drv/CH56x_serdes.c:45
	SDS->SDS_CTRL = (SDS_POWR_UP |
     b06:	c004                	sw	s1,0(s0)
/home/ju/HydraDancer/enumeration/firmware/../../wch-ch56x-bsp/drv/CH56x_serdes.c:54
					 SDS_CONT_EN);

	SDS->SDS_RTX_CTRL = SDS_LINK_INIT;
     b08:	67c1                	lui	a5,0x10
     b0a:	c45c                	sw	a5,12(s0)
/home/ju/HydraDancer/enumeration/firmware/../../wch-ch56x-bsp/drv/CH56x_serdes.c:55
	bsp_wait_us_delay(1);
     b0c:	4505                	li	a0,1
     b0e:	ec2ff0ef          	jal	ra,1d0 <bsp_wait_us_delay>
/home/ju/HydraDancer/enumeration/firmware/../../wch-ch56x-bsp/drv/CH56x_serdes.c:60

	SDS->SDS_RTX_CTRL = 0;
	do
	{
		sds_status = SDS->SDS_STATUS;
     b12:	4000b737          	lui	a4,0x4000b
/home/ju/HydraDancer/enumeration/firmware/../../wch-ch56x-bsp/drv/CH56x_serdes.c:57
	SDS->SDS_RTX_CTRL = 0;
     b16:	00042623          	sw	zero,12(s0) # 4000b00c <_dmadata_end+0x1ffd7e0c>
/home/ju/HydraDancer/enumeration/firmware/../../wch-ch56x-bsp/drv/CH56x_serdes.c:60 (discriminator 1)
		sds_status = SDS->SDS_STATUS;
     b1a:	471c                	lw	a5,8(a4)
/home/ju/HydraDancer/enumeration/firmware/../../wch-ch56x-bsp/drv/CH56x_serdes.c:62 (discriminator 1)
	}
	while(!(sds_status & SDS_TX_READY));
     b1c:	00b79693          	slli	a3,a5,0xb
     b20:	fe06dde3          	bgez	a3,b1a <SerDes_Tx_Init+0x70>
/home/ju/HydraDancer/enumeration/firmware/../../wch-ch56x-bsp/drv/CH56x_serdes.c:63
}
     b24:	40b2                	lw	ra,12(sp)
     b26:	4422                	lw	s0,8(sp)
     b28:	4492                	lw	s1,4(sp)
     b2a:	0141                	addi	sp,sp,16
     b2c:	8082                	ret

00000b2e <SerDes_Rx_Init>:
SerDes_Rx_Init():
/home/ju/HydraDancer/enumeration/firmware/../../wch-ch56x-bsp/drv/CH56x_serdes.c:72
* Description    : SerDes configuration of hardware in Rx mode
* Input          : SDS_PLL_FREQ see e_sds_pll_freq
* Return         : None
*******************************************************************************/
void SerDes_Rx_Init(e_sds_pll_freq SDS_PLL_FREQ)
{
     b2e:	1141                	addi	sp,sp,-16
     b30:	c422                	sw	s0,8(sp)
     b32:	c226                	sw	s1,4(sp)
     b34:	c606                	sw	ra,12(sp)
/home/ju/HydraDancer/enumeration/firmware/../../wch-ch56x-bsp/drv/CH56x_serdes.c:75
	uint32_t sds_status;

	R8_SAFE_ACCESS_SIG = 0x57; // enable safe access mode
     b36:	400017b7          	lui	a5,0x40001
     b3a:	05700713          	li	a4,87
     b3e:	00e78023          	sb	a4,0(a5) # 40001000 <_dmadata_end+0x1ffcde00>
/home/ju/HydraDancer/enumeration/firmware/../../wch-ch56x-bsp/drv/CH56x_serdes.c:76
	R8_SAFE_ACCESS_SIG = 0xa8;
     b42:	fa800713          	li	a4,-88
     b46:	00e78023          	sb	a4,0(a5)
/home/ju/HydraDancer/enumeration/firmware/../../wch-ch56x-bsp/drv/CH56x_serdes.c:77
	R16_SERD_ANA_CFG1 = 0x5a;
     b4a:	05a00713          	li	a4,90
     b4e:	02e79023          	sh	a4,32(a5)
/home/ju/HydraDancer/enumeration/firmware/../../wch-ch56x-bsp/drv/CH56x_serdes.c:78
	R32_SERD_ANA_CFG2 = 0x00423015;
     b52:	00423737          	lui	a4,0x423
     b56:	0755                	addi	a4,a4,21
     b58:	d3d8                	sw	a4,36(a5)
/home/ju/HydraDancer/enumeration/firmware/../../wch-ch56x-bsp/drv/CH56x_serdes.c:80

	SDS->SDS_CTRL = (PHY_RESET | LINK_RESET | SDS_ALL_CLR);
     b5a:	4000b437          	lui	s0,0x4000b
     b5e:	479d                	li	a5,7
/home/ju/HydraDancer/enumeration/firmware/../../wch-ch56x-bsp/drv/CH56x_serdes.c:72
{
     b60:	84aa                	mv	s1,a0
/home/ju/HydraDancer/enumeration/firmware/../../wch-ch56x-bsp/drv/CH56x_serdes.c:80
	SDS->SDS_CTRL = (PHY_RESET | LINK_RESET | SDS_ALL_CLR);
     b62:	c01c                	sw	a5,0(s0)
/home/ju/HydraDancer/enumeration/firmware/../../wch-ch56x-bsp/drv/CH56x_serdes.c:81
	bsp_wait_us_delay(1);
     b64:	4505                	li	a0,1
     b66:	e6aff0ef          	jal	ra,1d0 <bsp_wait_us_delay>
/home/ju/HydraDancer/enumeration/firmware/../../wch-ch56x-bsp/drv/CH56x_serdes.c:90
	 * Receive/transmit parameter configuration of SerDes PHY.
	 */
	SDS->SDS_CTRL = (SDS_POWR_UP |
					 SDS_TX_PU | SDS_RX_PU |
					 SDS_PLL_PU | SDS_PLL_FREQ |
					 LINK_RESET | SDS_ALL_CLR);
     b6a:	67f9                	lui	a5,0x1e
     b6c:	078d                	addi	a5,a5,3
     b6e:	8fc5                	or	a5,a5,s1
/home/ju/HydraDancer/enumeration/firmware/../../wch-ch56x-bsp/drv/CH56x_serdes.c:87
	SDS->SDS_CTRL = (SDS_POWR_UP |
     b70:	c01c                	sw	a5,0(s0)
/home/ju/HydraDancer/enumeration/firmware/../../wch-ch56x-bsp/drv/CH56x_serdes.c:95 (discriminator 1)

	/* Wait until SDS PLL is ready */
	do
	{
		sds_status = SDS->SDS_STATUS;
     b72:	441c                	lw	a5,8(s0)
/home/ju/HydraDancer/enumeration/firmware/../../wch-ch56x-bsp/drv/CH56x_serdes.c:97 (discriminator 1)
	}
	while(!(sds_status & SDS_PLL_READY));
     b74:	00c79713          	slli	a4,a5,0xc
     b78:	fe075de3          	bgez	a4,b72 <SerDes_Rx_Init+0x44>
/home/ju/HydraDancer/enumeration/firmware/../../wch-ch56x-bsp/drv/CH56x_serdes.c:99

	bsp_wait_us_delay(1);
     b7c:	4505                	li	a0,1
     b7e:	e52ff0ef          	jal	ra,1d0 <bsp_wait_us_delay>
/home/ju/HydraDancer/enumeration/firmware/../../wch-ch56x-bsp/drv/CH56x_serdes.c:104

	SDS->SDS_CTRL = (SDS_POWR_UP |
					 SDS_TX_PU | SDS_RX_PU |
					 SDS_PLL_PU | SDS_PLL_FREQ |
					 SDS_DMA_EN | SDS_RX_EN);
     b82:	67f9                	lui	a5,0x1e
     b84:	0a078793          	addi	a5,a5,160 # 1e0a0 <_data_lma+0x19530>
     b88:	8cdd                	or	s1,s1,a5
/home/ju/HydraDancer/enumeration/firmware/../../wch-ch56x-bsp/drv/CH56x_serdes.c:101
	SDS->SDS_CTRL = (SDS_POWR_UP |
     b8a:	c004                	sw	s1,0(s0)
/home/ju/HydraDancer/enumeration/firmware/../../wch-ch56x-bsp/drv/CH56x_serdes.c:105
}
     b8c:	40b2                	lw	ra,12(sp)
     b8e:	4422                	lw	s0,8(sp)
     b90:	4492                	lw	s1,4(sp)
     b92:	0141                	addi	sp,sp,16
     b94:	8082                	ret

00000b96 <SerDes_DMA_Tx_CFG>:
SerDes_DMA_Tx_CFG():
/home/ju/HydraDancer/enumeration/firmware/../../wch-ch56x-bsp/drv/CH56x_serdes.c:120
void SerDes_DMA_Tx_CFG(uint32_t DMAaddr, uint32_t Tx_len, uint32_t custom_number)
{
	uint32_t sds_status;
	do
	{
		sds_status = SDS->SDS_STATUS;
     b96:	4000b737          	lui	a4,0x4000b
/home/ju/HydraDancer/enumeration/firmware/../../wch-ch56x-bsp/drv/CH56x_serdes.c:120 (discriminator 1)
     b9a:	471c                	lw	a5,8(a4)
/home/ju/HydraDancer/enumeration/firmware/../../wch-ch56x-bsp/drv/CH56x_serdes.c:122 (discriminator 1)
	}
	while(!(sds_status & SDS_TX_READY));
     b9c:	00b79693          	slli	a3,a5,0xb
     ba0:	fe06dde3          	bgez	a3,b9a <SerDes_DMA_Tx_CFG+0x4>
/home/ju/HydraDancer/enumeration/firmware/../../wch-ch56x-bsp/drv/CH56x_serdes.c:124

	SDS->SDS_DMA0 = DMAaddr;
     ba4:	cf08                	sw	a0,24(a4)
/home/ju/HydraDancer/enumeration/firmware/../../wch-ch56x-bsp/drv/CH56x_serdes.c:125
	SDS->SDS_RTX_CTRL = Tx_len;
     ba6:	c74c                	sw	a1,12(a4)
/home/ju/HydraDancer/enumeration/firmware/../../wch-ch56x-bsp/drv/CH56x_serdes.c:126
	SDS->SDS_DATA0 = custom_number;
     ba8:	cb50                	sw	a2,20(a4)
/home/ju/HydraDancer/enumeration/firmware/../../wch-ch56x-bsp/drv/CH56x_serdes.c:127
}
     baa:	8082                	ret

00000bac <SerDes_DMA_Tx>:
SerDes_DMA_Tx():
/home/ju/HydraDancer/enumeration/firmware/../../wch-ch56x-bsp/drv/CH56x_serdes.c:140
void SerDes_DMA_Tx(void)
{
	uint32_t sds_status;
	do
	{
		sds_status = SDS->SDS_STATUS;
     bac:	4000b737          	lui	a4,0x4000b
/home/ju/HydraDancer/enumeration/firmware/../../wch-ch56x-bsp/drv/CH56x_serdes.c:140 (discriminator 1)
     bb0:	471c                	lw	a5,8(a4)
/home/ju/HydraDancer/enumeration/firmware/../../wch-ch56x-bsp/drv/CH56x_serdes.c:142 (discriminator 1)
	}
	while(!(sds_status & SDS_TX_READY));
     bb2:	00b79693          	slli	a3,a5,0xb
     bb6:	fe06dde3          	bgez	a3,bb0 <SerDes_DMA_Tx+0x4>
/home/ju/HydraDancer/enumeration/firmware/../../wch-ch56x-bsp/drv/CH56x_serdes.c:144

	SDS->SDS_RTX_CTRL |= SDS_TX_START;
     bba:	475c                	lw	a5,12(a4)
     bbc:	000206b7          	lui	a3,0x20
     bc0:	8fd5                	or	a5,a5,a3
     bc2:	c75c                	sw	a5,12(a4)
/home/ju/HydraDancer/enumeration/firmware/../../wch-ch56x-bsp/drv/CH56x_serdes.c:145
}
     bc4:	8082                	ret

00000bc6 <SerDes_Wait_Txdone>:
SerDes_Wait_Txdone():
/home/ju/HydraDancer/enumeration/firmware/../../wch-ch56x-bsp/drv/CH56x_serdes.c:160
	uint32_t sds_status;
	uint32_t sds_rtx_ctrl;

	do
	{
		sds_status = SDS->SDS_STATUS;
     bc6:	4000b737          	lui	a4,0x4000b
/home/ju/HydraDancer/enumeration/firmware/../../wch-ch56x-bsp/drv/CH56x_serdes.c:160 (discriminator 1)
     bca:	471c                	lw	a5,8(a4)
/home/ju/HydraDancer/enumeration/firmware/../../wch-ch56x-bsp/drv/CH56x_serdes.c:162 (discriminator 1)
	}
	while((sds_status & SDS_TX_INT_FLG) == 0);
     bcc:	8b89                	andi	a5,a5,2
     bce:	dff5                	beqz	a5,bca <SerDes_Wait_Txdone+0x4>
/home/ju/HydraDancer/enumeration/firmware/../../wch-ch56x-bsp/drv/CH56x_serdes.c:164

	SDS->SDS_RTX_CTRL &= ~SDS_TX_START;
     bd0:	475c                	lw	a5,12(a4)
     bd2:	7681                	lui	a3,0xfffe0
     bd4:	16fd                	addi	a3,a3,-1
     bd6:	8ff5                	and	a5,a5,a3
     bd8:	c75c                	sw	a5,12(a4)
/home/ju/HydraDancer/enumeration/firmware/../../wch-ch56x-bsp/drv/CH56x_serdes.c:167
	do
	{
		sds_rtx_ctrl = SDS->SDS_RTX_CTRL;
     bda:	4000b737          	lui	a4,0x4000b
/home/ju/HydraDancer/enumeration/firmware/../../wch-ch56x-bsp/drv/CH56x_serdes.c:167 (discriminator 1)
     bde:	475c                	lw	a5,12(a4)
/home/ju/HydraDancer/enumeration/firmware/../../wch-ch56x-bsp/drv/CH56x_serdes.c:169 (discriminator 1)
	}
	while(sds_rtx_ctrl & SDS_TX_START);
     be0:	00e79693          	slli	a3,a5,0xe
     be4:	fe06cde3          	bltz	a3,bde <SerDes_Wait_Txdone+0x18>
/home/ju/HydraDancer/enumeration/firmware/../../wch-ch56x-bsp/drv/CH56x_serdes.c:172

	/* Clear TX Interrupt Flag */
	SDS->SDS_STATUS = SDS_TX_INT_FLG;
     be8:	4789                	li	a5,2
     bea:	c71c                	sw	a5,8(a4)
/home/ju/HydraDancer/enumeration/firmware/../../wch-ch56x-bsp/drv/CH56x_serdes.c:173
}
     bec:	8082                	ret

00000bee <SerDes_DMA_Rx_CFG>:
SerDes_DMA_Rx_CFG():
/home/ju/HydraDancer/enumeration/firmware/../../wch-ch56x-bsp/drv/CH56x_serdes.c:215
* Input          : DMA0_addr: DMA0 starting address
* Return         : None
*******************************************************************************/
void SerDes_DMA_Rx_CFG(uint32_t DMA0_addr)
{
	SDS->SDS_DMA0 = DMA0_addr;
     bee:	4000b7b7          	lui	a5,0x4000b
     bf2:	cf88                	sw	a0,24(a5)
/home/ju/HydraDancer/enumeration/firmware/../../wch-ch56x-bsp/drv/CH56x_serdes.c:216
	SDS->SDS_RTX_CTRL = 0;
     bf4:	0007a623          	sw	zero,12(a5) # 4000b00c <_dmadata_end+0x1ffd7e0c>
/home/ju/HydraDancer/enumeration/firmware/../../wch-ch56x-bsp/drv/CH56x_serdes.c:217
}
     bf8:	8082                	ret

00000bfa <_write>:
_write():
/home/ju/HydraDancer/enumeration/firmware/../../wch-ch56x-bsp/drv/CH56x_sys.c:159
__attribute__((used))
int _write(int fd, char *buf, int size)
{
	int i;

	for(i=0; i<size; i++)
     bfa:	02c05263          	blez	a2,c1e <_write+0x24>
     bfe:	00c58833          	add	a6,a1,a2
/home/ju/HydraDancer/enumeration/firmware/../../wch-ch56x-bsp/drv/CH56x_sys.c:165
	{
#if  DEBUG == Debug_UART0
		while( R8_UART0_TFC == UART_FIFO_SIZE );
		R8_UART0_THR = *buf++;
#elif DEBUG == Debug_UART1
		while( R8_UART1_TFC == UART_FIFO_SIZE );
     c02:	40003737          	lui	a4,0x40003
     c06:	46a1                	li	a3,8
/home/ju/HydraDancer/enumeration/firmware/../../wch-ch56x-bsp/drv/CH56x_sys.c:165 (discriminator 1)
     c08:	40b74783          	lbu	a5,1035(a4) # 4000340b <_dmadata_end+0x1ffd020b>
     c0c:	fef68ee3          	beq	a3,a5,c08 <_write+0xe>
/home/ju/HydraDancer/enumeration/firmware/../../wch-ch56x-bsp/drv/CH56x_sys.c:166 (discriminator 2)
		R8_UART1_THR = *buf++;
     c10:	0585                	addi	a1,a1,1
     c12:	fff5c783          	lbu	a5,-1(a1)
     c16:	40f70423          	sb	a5,1032(a4)
/home/ju/HydraDancer/enumeration/firmware/../../wch-ch56x-bsp/drv/CH56x_sys.c:159 (discriminator 2)
	for(i=0; i<size; i++)
     c1a:	ff0597e3          	bne	a1,a6,c08 <_write+0xe>
/home/ju/HydraDancer/enumeration/firmware/../../wch-ch56x-bsp/drv/CH56x_sys.c:176
		while( R8_UART3_TFC == UART_FIFO_SIZE );
		R8_UART3_THR = *buf++;
#endif
	}
	return size;
}
     c1e:	8532                	mv	a0,a2
     c20:	8082                	ret

00000c22 <UART1_init>:
UART1_init():
/home/ju/HydraDancer/enumeration/firmware/../../wch-ch56x-bsp/drv/CH56x_uart.c:75
 **/
void UART1_init(uint32_t baudrate, uint32_t systemclck)
{
	uint32_t x;
	uint32_t t = systemclck;
	x = 10 * t * 2 / 16 / baudrate;
     c22:	00259793          	slli	a5,a1,0x2
     c26:	95be                	add	a1,a1,a5
     c28:	058a                	slli	a1,a1,0x2
     c2a:	8191                	srli	a1,a1,0x4
     c2c:	02a5d5b3          	divu	a1,a1,a0
/home/ju/HydraDancer/enumeration/firmware/../../wch-ch56x-bsp/drv/CH56x_uart.c:76
	x = ( x + 5 ) / 10;
     c30:	4529                	li	a0,10
/home/ju/HydraDancer/enumeration/firmware/../../wch-ch56x-bsp/drv/CH56x_uart.c:78

	R8_UART1_DIV = 1;
     c32:	400037b7          	lui	a5,0x40003
     c36:	4705                	li	a4,1
     c38:	40e78723          	sb	a4,1038(a5) # 4000340e <_dmadata_end+0x1ffd020e>
/home/ju/HydraDancer/enumeration/firmware/../../wch-ch56x-bsp/drv/CH56x_uart.c:80
	R16_UART1_DL = x;
	R8_UART1_FCR = RB_FCR_FIFO_TRIG | RB_FCR_TX_FIFO_CLR | RB_FCR_RX_FIFO_CLR | RB_FCR_FIFO_EN;
     c3c:	fc700693          	li	a3,-57
/home/ju/HydraDancer/enumeration/firmware/../../wch-ch56x-bsp/drv/CH56x_uart.c:83
	R8_UART1_LCR = RB_LCR_WORD_SZ;
	R8_UART1_IER = RB_IER_TXD_EN;
	R32_PA_SMT |= (1<<8) |(1<<7); // PA8 TXD1 & PA7 RXD1
     c40:	40001737          	lui	a4,0x40001
/home/ju/HydraDancer/enumeration/firmware/../../wch-ch56x-bsp/drv/CH56x_uart.c:76
	x = ( x + 5 ) / 10;
     c44:	0595                	addi	a1,a1,5
     c46:	02a5d5b3          	divu	a1,a1,a0
/home/ju/HydraDancer/enumeration/firmware/../../wch-ch56x-bsp/drv/CH56x_uart.c:79
	R16_UART1_DL = x;
     c4a:	05c2                	slli	a1,a1,0x10
     c4c:	81c1                	srli	a1,a1,0x10
     c4e:	40b79623          	sh	a1,1036(a5)
/home/ju/HydraDancer/enumeration/firmware/../../wch-ch56x-bsp/drv/CH56x_uart.c:80
	R8_UART1_FCR = RB_FCR_FIFO_TRIG | RB_FCR_TX_FIFO_CLR | RB_FCR_RX_FIFO_CLR | RB_FCR_FIFO_EN;
     c52:	40d78123          	sb	a3,1026(a5)
/home/ju/HydraDancer/enumeration/firmware/../../wch-ch56x-bsp/drv/CH56x_uart.c:81
	R8_UART1_LCR = RB_LCR_WORD_SZ;
     c56:	468d                	li	a3,3
     c58:	40d781a3          	sb	a3,1027(a5)
/home/ju/HydraDancer/enumeration/firmware/../../wch-ch56x-bsp/drv/CH56x_uart.c:82
	R8_UART1_IER = RB_IER_TXD_EN;
     c5c:	04000693          	li	a3,64
     c60:	40d780a3          	sb	a3,1025(a5)
/home/ju/HydraDancer/enumeration/firmware/../../wch-ch56x-bsp/drv/CH56x_uart.c:83
	R32_PA_SMT |= (1<<8) |(1<<7); // PA8 TXD1 & PA7 RXD1
     c64:	4f7c                	lw	a5,92(a4)
     c66:	1807e793          	ori	a5,a5,384
     c6a:	cf7c                	sw	a5,92(a4)
/home/ju/HydraDancer/enumeration/firmware/../../wch-ch56x-bsp/drv/CH56x_uart.c:84
	R32_PA_DIR |= (1<<8); // PA8 Output
     c6c:	433c                	lw	a5,64(a4)
     c6e:	1007e793          	ori	a5,a5,256
     c72:	c33c                	sw	a5,64(a4)
/home/ju/HydraDancer/enumeration/firmware/../../wch-ch56x-bsp/drv/CH56x_uart.c:85
}
     c74:	8082                	ret

00000c76 <bsp_gpio_init>:
bsp_gpio_init():
/home/ju/HydraDancer/enumeration/firmware/../../wch-ch56x-bsp/board/hydrausb3_v1.c:32
 *         Initializes HydraUSB3 board
 *
 * @return None
 **/
void bsp_gpio_init(void)
{
     c76:	1141                	addi	sp,sp,-16
/home/ju/HydraDancer/enumeration/firmware/../../wch-ch56x-bsp/board/hydrausb3_v1.c:34
	/* Configure all GPIO to safe state Input Floating */
	GPIOA_ModeCfg(HYDRAUSB3_V1_GPIOA_Pins, GPIO_ModeIN_Floating);
     c78:	4581                	li	a1,0
     c7a:	e7f00513          	li	a0,-385
/home/ju/HydraDancer/enumeration/firmware/../../wch-ch56x-bsp/board/hydrausb3_v1.c:32
{
     c7e:	c606                	sw	ra,12(sp)
     c80:	c422                	sw	s0,8(sp)
/home/ju/HydraDancer/enumeration/firmware/../../wch-ch56x-bsp/board/hydrausb3_v1.c:34
	GPIOA_ModeCfg(HYDRAUSB3_V1_GPIOA_Pins, GPIO_ModeIN_Floating);
     c82:	343d                	jal	6b0 <GPIOA_ModeCfg>
/home/ju/HydraDancer/enumeration/firmware/../../wch-ch56x-bsp/board/hydrausb3_v1.c:35
	GPIOB_ModeCfg(GPIO_Pin_All, GPIO_ModeIN_Floating);
     c84:	4581                	li	a1,0
     c86:	557d                	li	a0,-1
     c88:	3691                	jal	7cc <GPIOB_ModeCfg>
/home/ju/HydraDancer/enumeration/firmware/../../wch-ch56x-bsp/board/hydrausb3_v1.c:38

	/* Configure ULED(PB22) */
	GPIOB_ResetBits(BSP_ULED_PIN);
     c8a:	40001437          	lui	s0,0x40001
     c8e:	547c                	lw	a5,108(s0)
     c90:	00400737          	lui	a4,0x400
/home/ju/HydraDancer/enumeration/firmware/../../wch-ch56x-bsp/board/hydrausb3_v1.c:39
	GPIOB_ModeCfg(BSP_ULED_PIN, GPIO_Highspeed_PP_8mA); // Output
     c94:	459d                	li	a1,7
/home/ju/HydraDancer/enumeration/firmware/../../wch-ch56x-bsp/board/hydrausb3_v1.c:38
	GPIOB_ResetBits(BSP_ULED_PIN);
     c96:	8fd9                	or	a5,a5,a4
     c98:	d47c                	sw	a5,108(s0)
/home/ju/HydraDancer/enumeration/firmware/../../wch-ch56x-bsp/board/hydrausb3_v1.c:39
	GPIOB_ModeCfg(BSP_ULED_PIN, GPIO_Highspeed_PP_8mA); // Output
     c9a:	00400537          	lui	a0,0x400
     c9e:	363d                	jal	7cc <GPIOB_ModeCfg>
/home/ju/HydraDancer/enumeration/firmware/../../wch-ch56x-bsp/board/hydrausb3_v1.c:42

	/* Configure UBTN(PB23) Input Floating */
	GPIOB_ResetBits(BSP_UBTN_PIN);
     ca0:	547c                	lw	a5,108(s0)
     ca2:	00800737          	lui	a4,0x800
/home/ju/HydraDancer/enumeration/firmware/../../wch-ch56x-bsp/board/hydrausb3_v1.c:43
	GPIOB_ModeCfg(BSP_UBTN_PIN, GPIO_ModeIN_Floating); // Input floating
     ca6:	4581                	li	a1,0
/home/ju/HydraDancer/enumeration/firmware/../../wch-ch56x-bsp/board/hydrausb3_v1.c:42
	GPIOB_ResetBits(BSP_UBTN_PIN);
     ca8:	8fd9                	or	a5,a5,a4
     caa:	d47c                	sw	a5,108(s0)
/home/ju/HydraDancer/enumeration/firmware/../../wch-ch56x-bsp/board/hydrausb3_v1.c:43
	GPIOB_ModeCfg(BSP_UBTN_PIN, GPIO_ModeIN_Floating); // Input floating
     cac:	00800537          	lui	a0,0x800
     cb0:	3e31                	jal	7cc <GPIOB_ModeCfg>
/home/ju/HydraDancer/enumeration/firmware/../../wch-ch56x-bsp/board/hydrausb3_v1.c:46

	/* Configure SWITCH(PB24) Input Pull-up (0=ON, 1=OFF) */
	GPIOB_ResetBits(BSP_SWITCH_PIN);
     cb2:	547c                	lw	a5,108(s0)
     cb4:	01000737          	lui	a4,0x1000
/home/ju/HydraDancer/enumeration/firmware/../../wch-ch56x-bsp/board/hydrausb3_v1.c:48
	GPIOB_ModeCfg(BSP_SWITCH_PIN, GPIO_ModeIN_PU_NSMT); // Pull-up input
}
     cb8:	40b2                	lw	ra,12(sp)
/home/ju/HydraDancer/enumeration/firmware/../../wch-ch56x-bsp/board/hydrausb3_v1.c:46
	GPIOB_ResetBits(BSP_SWITCH_PIN);
     cba:	8fd9                	or	a5,a5,a4
     cbc:	d47c                	sw	a5,108(s0)
/home/ju/HydraDancer/enumeration/firmware/../../wch-ch56x-bsp/board/hydrausb3_v1.c:48
}
     cbe:	4422                	lw	s0,8(sp)
/home/ju/HydraDancer/enumeration/firmware/../../wch-ch56x-bsp/board/hydrausb3_v1.c:47
	GPIOB_ModeCfg(BSP_SWITCH_PIN, GPIO_ModeIN_PU_NSMT); // Pull-up input
     cc0:	4585                	li	a1,1
     cc2:	01000537          	lui	a0,0x1000
/home/ju/HydraDancer/enumeration/firmware/../../wch-ch56x-bsp/board/hydrausb3_v1.c:48
}
     cc6:	0141                	addi	sp,sp,16
/home/ju/HydraDancer/enumeration/firmware/../../wch-ch56x-bsp/board/hydrausb3_v1.c:47
	GPIOB_ModeCfg(BSP_SWITCH_PIN, GPIO_ModeIN_PU_NSMT); // Pull-up input
     cc8:	b611                	j	7cc <GPIOB_ModeCfg>

00000cca <bsp_switch>:
bsp_switch():
/home/ju/HydraDancer/enumeration/firmware/../../wch-ch56x-bsp/board/hydrausb3_v1.c:73
 *
 * @return 0 (PB24 Switch OFF), 1 (PB24 Switch ON)
 **/
int bsp_switch(void)
{
	if(GPIOB_ReadPortPin(BSP_SWITCH_PIN) == 0)
     cca:	400017b7          	lui	a5,0x40001
     cce:	53e8                	lw	a0,100(a5)
     cd0:	8161                	srli	a0,a0,0x18
     cd2:	00154513          	xori	a0,a0,1
/home/ju/HydraDancer/enumeration/firmware/../../wch-ch56x-bsp/board/hydrausb3_v1.c:81
	}
	else
	{
		return 0; /* Logic Reversed with PullUp */
	}
}
     cd6:	8905                	andi	a0,a0,1
     cd8:	8082                	ret

00000cda <bsp_uled_on>:
bsp_uled_on():
/home/ju/HydraDancer/enumeration/firmware/../../wch-ch56x-bsp/board/hydrausb3_v1.c:92
 *
 * @return None
 **/
void bsp_uled_on(void)
{
	GPIOB_SetBits(BSP_ULED_PIN);
     cda:	40001737          	lui	a4,0x40001
     cde:	573c                	lw	a5,104(a4)
     ce0:	004006b7          	lui	a3,0x400
     ce4:	8fd5                	or	a5,a5,a3
     ce6:	d73c                	sw	a5,104(a4)
/home/ju/HydraDancer/enumeration/firmware/../../wch-ch56x-bsp/board/hydrausb3_v1.c:93
}
     ce8:	8082                	ret

00000cea <bsp_uled_off>:
bsp_uled_off():
/home/ju/HydraDancer/enumeration/firmware/../../wch-ch56x-bsp/board/hydrausb3_v1.c:104
 *
 * @return None
 **/
void bsp_uled_off(void)
{
	GPIOB_ResetBits(BSP_ULED_PIN);
     cea:	40001737          	lui	a4,0x40001
     cee:	577c                	lw	a5,108(a4)
     cf0:	004006b7          	lui	a3,0x400
     cf4:	8fd5                	or	a5,a5,a3
     cf6:	d77c                	sw	a5,108(a4)
/home/ju/HydraDancer/enumeration/firmware/../../wch-ch56x-bsp/board/hydrausb3_v1.c:105
}
     cf8:	8082                	ret

00000cfa <bbio_command_decode>:
bbio_command_decode():
/home/ju/HydraDancer/enumeration/firmware/src/bbio.c:55
 *
 * @return  0 if Success, an error code else
 */
uint8_t
bbio_command_decode(uint8_t *command)
{
     cfa:	1141                	addi	sp,sp,-16
     cfc:	c606                	sw	ra,12(sp)
     cfe:	c422                	sw	s0,8(sp)
/home/ju/HydraDancer/enumeration/firmware/src/bbio.c:71
    _subCommand = 0;
    _descrStringIndex = 0;
    _descrSize = 0;

        // Safeguard
    if (command[0] >= BbioMainMode && command[0] <= BbioResetDescr) {
     d00:	00054403          	lbu	s0,0(a0) # 1000000 <_data_lma+0xffb490>
/home/ju/HydraDancer/enumeration/firmware/src/bbio.c:65
    _command = 0;
     d04:	83c18793          	addi	a5,gp,-1988 # 2000016c <_command>
/home/ju/HydraDancer/enumeration/firmware/src/bbio.c:66
    _subCommand = 0;
     d08:	84118693          	addi	a3,gp,-1983 # 20000171 <_subCommand>
/home/ju/HydraDancer/enumeration/firmware/src/bbio.c:67
    _descrStringIndex = 0;
     d0c:	84018613          	addi	a2,gp,-1984 # 20000170 <_descrStringIndex>
/home/ju/HydraDancer/enumeration/firmware/src/bbio.c:68
    _descrSize = 0;
     d10:	83e18713          	addi	a4,gp,-1986 # 2000016e <_descrSize>
/home/ju/HydraDancer/enumeration/firmware/src/bbio.c:71
    if (command[0] >= BbioMainMode && command[0] <= BbioResetDescr) {
     d14:	fff40593          	addi	a1,s0,-1 # 40000fff <_dmadata_end+0x1ffcddff>
/home/ju/HydraDancer/enumeration/firmware/src/bbio.c:65
    _command = 0;
     d18:	00078023          	sb	zero,0(a5) # 40001000 <_dmadata_end+0x1ffcde00>
/home/ju/HydraDancer/enumeration/firmware/src/bbio.c:66
    _subCommand = 0;
     d1c:	00068023          	sb	zero,0(a3) # 400000 <_data_lma+0x3fb490>
/home/ju/HydraDancer/enumeration/firmware/src/bbio.c:67
    _descrStringIndex = 0;
     d20:	00060023          	sb	zero,0(a2)
/home/ju/HydraDancer/enumeration/firmware/src/bbio.c:68
    _descrSize = 0;
     d24:	00071023          	sh	zero,0(a4) # 40001000 <_dmadata_end+0x1ffcde00>
/home/ju/HydraDancer/enumeration/firmware/src/bbio.c:71
    if (command[0] >= BbioMainMode && command[0] <= BbioResetDescr) {
     d28:	0ff5f593          	andi	a1,a1,255
     d2c:	481d                	li	a6,7
     d2e:	04b86b63          	bltu	a6,a1,d84 <bbio_command_decode+0x8a>
/home/ju/HydraDancer/enumeration/firmware/src/bbio.c:72
        _command = command[0];
     d32:	00878023          	sb	s0,0(a5)
/home/ju/HydraDancer/enumeration/firmware/src/bbio.c:78
    } else {
        log_to_evaluator("ERROR: bbio_decode_command() unknown command\r\n");
        return 1;
    }

    if (_command == BbioSetDescr) {
     d36:	478d                	li	a5,3
     d38:	02f40063          	beq	s0,a5,d58 <bbio_command_decode+0x5e>
/home/ju/HydraDancer/enumeration/firmware/src/bbio.c:97
            return 3;
        }
        _descrStringIndex = command[2];
    }

    _descrSize = (command[4] << 8) | command[3]; // from 2 uint8_t to a uint16_t
     d3c:	00454783          	lbu	a5,4(a0)
     d40:	00354683          	lbu	a3,3(a0)
/home/ju/HydraDancer/enumeration/firmware/src/bbio.c:98
    return 0;
     d44:	4401                	li	s0,0
/home/ju/HydraDancer/enumeration/firmware/src/bbio.c:97
    _descrSize = (command[4] << 8) | command[3]; // from 2 uint8_t to a uint16_t
     d46:	07a2                	slli	a5,a5,0x8
     d48:	8fd5                	or	a5,a5,a3
     d4a:	00f71023          	sh	a5,0(a4)
/home/ju/HydraDancer/enumeration/firmware/src/bbio.c:99
}
     d4e:	8522                	mv	a0,s0
     d50:	40b2                	lw	ra,12(sp)
     d52:	4422                	lw	s0,8(sp)
     d54:	0141                	addi	sp,sp,16
     d56:	8082                	ret
/home/ju/HydraDancer/enumeration/firmware/src/bbio.c:80
        if (command[1] >= BbioSubSetDescrDevice && command[1] <= BbioSubSetDescrString) {
     d58:	00154583          	lbu	a1,1(a0)
     d5c:	4811                	li	a6,4
     d5e:	fff58793          	addi	a5,a1,-1
     d62:	0ff7f793          	andi	a5,a5,255
     d66:	02f86a63          	bltu	a6,a5,d9a <bbio_command_decode+0xa0>
/home/ju/HydraDancer/enumeration/firmware/src/bbio.c:81
            _subCommand = command[1];
     d6a:	00b68023          	sb	a1,0(a3)
/home/ju/HydraDancer/enumeration/firmware/src/bbio.c:88
    if (_subCommand == BbioSubSetDescrString) {
     d6e:	4795                	li	a5,5
     d70:	fcf596e3          	bne	a1,a5,d3c <bbio_command_decode+0x42>
/home/ju/HydraDancer/enumeration/firmware/src/bbio.c:90
        if (command[2] >= _DESCRIPTOR_STRING_CAPACITY) {
     d74:	00254783          	lbu	a5,2(a0)
     d78:	46a5                	li	a3,9
     d7a:	02f6e763          	bltu	a3,a5,da8 <bbio_command_decode+0xae>
/home/ju/HydraDancer/enumeration/firmware/src/bbio.c:94
        _descrStringIndex = command[2];
     d7e:	00f60023          	sb	a5,0(a2)
     d82:	bf6d                	j	d3c <bbio_command_decode+0x42>
/home/ju/HydraDancer/enumeration/firmware/src/bbio.c:74
        log_to_evaluator("ERROR: bbio_decode_command() unknown command\r\n");
     d84:	00004537          	lui	a0,0x4
     d88:	bd850513          	addi	a0,a0,-1064 # 3bd8 <_sbrk+0xe0>
     d8c:	2e29                	jal	10a6 <log_to_evaluator>
/home/ju/HydraDancer/enumeration/firmware/src/bbio.c:75
        return 1;
     d8e:	4405                	li	s0,1
/home/ju/HydraDancer/enumeration/firmware/src/bbio.c:99
}
     d90:	8522                	mv	a0,s0
     d92:	40b2                	lw	ra,12(sp)
     d94:	4422                	lw	s0,8(sp)
     d96:	0141                	addi	sp,sp,16
     d98:	8082                	ret
/home/ju/HydraDancer/enumeration/firmware/src/bbio.c:83
            log_to_evaluator("ERROR: bbio_decode_command() unknown sub command\r\n");
     d9a:	00004537          	lui	a0,0x4
     d9e:	c0850513          	addi	a0,a0,-1016 # 3c08 <_sbrk+0x110>
     da2:	2611                	jal	10a6 <log_to_evaluator>
/home/ju/HydraDancer/enumeration/firmware/src/bbio.c:84
            return 2;
     da4:	4409                	li	s0,2
     da6:	b765                	j	d4e <bbio_command_decode+0x54>
/home/ju/HydraDancer/enumeration/firmware/src/bbio.c:91
            log_to_evaluator("ERROR: bbio_decode_command() string descriptor index out of range\r\n");
     da8:	00004537          	lui	a0,0x4
     dac:	c3c50513          	addi	a0,a0,-964 # 3c3c <_sbrk+0x144>
     db0:	2cdd                	jal	10a6 <log_to_evaluator>
/home/ju/HydraDancer/enumeration/firmware/src/bbio.c:92
            return 3;
     db2:	bf71                	j	d4e <bbio_command_decode+0x54>

00000db4 <bbio_command_set_descriptor_handle>:
bbio_command_set_descriptor_handle():
/home/ju/HydraDancer/enumeration/firmware/src/bbio.c:170
 *
 * @return  0 if Success, an error code else
 */
uint8_t
bbio_command_set_descriptor_handle(uint8_t *bufferData)
{
     db4:	1141                	addi	sp,sp,-16
     db6:	c422                	sw	s0,8(sp)
/home/ju/HydraDancer/enumeration/firmware/src/bbio.c:173
    // log_to_evaluator("bbio_command_set_descriptor_handle()\r\n");
    // Safeguards
    if (_descriptorsStoreCursor + _descrSize > _descriptorsStore + _DESCRIPTOR_STORE_CAPACITY) {
     db8:	20000437          	lui	s0,0x20000
     dbc:	13040413          	addi	s0,s0,304 # 20000130 <_descriptorsStoreCursor>
     dc0:	83e1d603          	lhu	a2,-1986(gp) # 2000016e <_descrSize>
     dc4:	4018                	lw	a4,0(s0)
     dc6:	200017b7          	lui	a5,0x20001
/home/ju/HydraDancer/enumeration/firmware/src/bbio.c:170
{
     dca:	c226                	sw	s1,4(sp)
     dcc:	c606                	sw	ra,12(sp)
/home/ju/HydraDancer/enumeration/firmware/src/bbio.c:173
    if (_descriptorsStoreCursor + _descrSize > _descriptorsStore + _DESCRIPTOR_STORE_CAPACITY) {
     dce:	1b078793          	addi	a5,a5,432 # 200011b0 <g_bbioDescriptorConfigurationSize>
     dd2:	00c704b3          	add	s1,a4,a2
     dd6:	0697e663          	bltu	a5,s1,e42 <bbio_command_set_descriptor_handle+0x8e>
/home/ju/HydraDancer/enumeration/firmware/src/bbio.c:177
        log_to_evaluator("ERROR: bbio_handle_command() No space left in the descriptor store\r\n");
        return 1;
    }
    if (_descrStringIndex >= _DESCRIPTOR_STRING_CAPACITY) {
     dda:	8401c783          	lbu	a5,-1984(gp) # 20000170 <_descrStringIndex>
     dde:	46a5                	li	a3,9
     de0:	08f6e563          	bltu	a3,a5,e6a <bbio_command_set_descriptor_handle+0xb6>
/home/ju/HydraDancer/enumeration/firmware/src/bbio.c:182
        log_to_evaluator("ERROR: bbio_handle_command() string descriptor index out of range\r\n");
        return 2;
    }

    if (_subCommand == BbioSubSetDescrDevice) { 
     de4:	8411c683          	lbu	a3,-1983(gp) # 20000171 <_subCommand>
     de8:	4585                	li	a1,1
     dea:	04b68363          	beq	a3,a1,e30 <bbio_command_set_descriptor_handle+0x7c>
/home/ju/HydraDancer/enumeration/firmware/src/bbio.c:187
        // Device descriptor
        g_bbioDescriptorDevice     = _descriptorsStoreCursor;
        g_bbioDescriptorDeviceSize = _descrSize;
    }
    else if (_subCommand == BbioSubSetDescrConfig) { 
     dee:	4589                	li	a1,2
     df0:	06b68463          	beq	a3,a1,e58 <bbio_command_set_descriptor_handle+0xa4>
/home/ju/HydraDancer/enumeration/firmware/src/bbio.c:192
        // Config descriptor
        g_bbioDescriptorConfiguration     = _descriptorsStoreCursor;
        g_bbioDescriptorConfigurationSize = _descrSize;
    }
    else if (_subCommand == BbioSubSetDescrString) { 
     df4:	4595                	li	a1,5
     df6:	08b69163          	bne	a3,a1,e78 <bbio_command_set_descriptor_handle+0xc4>
/home/ju/HydraDancer/enumeration/firmware/src/bbio.c:194
        // String descriptor
        g_bbioDescriptorsString[_descrStringIndex]      = _descriptorsStoreCursor;
     dfa:	20001837          	lui	a6,0x20001
/home/ju/HydraDancer/enumeration/firmware/src/bbio.c:195
        g_bbioDescriptorsStringSizes[_descrStringIndex] = _descrSize;
     dfe:	200015b7          	lui	a1,0x20001
/home/ju/HydraDancer/enumeration/firmware/src/bbio.c:194
        g_bbioDescriptorsString[_descrStringIndex]      = _descriptorsStoreCursor;
     e02:	00279693          	slli	a3,a5,0x2
     e06:	1d880813          	addi	a6,a6,472 # 200011d8 <g_bbioDescriptorsString>
/home/ju/HydraDancer/enumeration/firmware/src/bbio.c:195
        g_bbioDescriptorsStringSizes[_descrStringIndex] = _descrSize;
     e0a:	0786                	slli	a5,a5,0x1
     e0c:	1b858593          	addi	a1,a1,440 # 200011b8 <g_bbioDescriptorsStringSizes>
/home/ju/HydraDancer/enumeration/firmware/src/bbio.c:194
        g_bbioDescriptorsString[_descrStringIndex]      = _descriptorsStoreCursor;
     e10:	96c2                	add	a3,a3,a6
/home/ju/HydraDancer/enumeration/firmware/src/bbio.c:195
        g_bbioDescriptorsStringSizes[_descrStringIndex] = _descrSize;
     e12:	97ae                	add	a5,a5,a1
/home/ju/HydraDancer/enumeration/firmware/src/bbio.c:194
        g_bbioDescriptorsString[_descrStringIndex]      = _descriptorsStoreCursor;
     e14:	c298                	sw	a4,0(a3)
/home/ju/HydraDancer/enumeration/firmware/src/bbio.c:195
        g_bbioDescriptorsStringSizes[_descrStringIndex] = _descrSize;
     e16:	00c79023          	sh	a2,0(a5)
/home/ju/HydraDancer/enumeration/firmware/src/bbio.c:201
    } else {
        log_to_evaluator("ERROR: bbio_handle_command() unknown sub command\r\n");
        return 3;
    }

    memcpy(_descriptorsStoreCursor, bufferData, _descrSize);
     e1a:	85aa                	mv	a1,a0
     e1c:	853a                	mv	a0,a4
     e1e:	13f010ef          	jal	ra,275c <memcpy>
/home/ju/HydraDancer/enumeration/firmware/src/bbio.c:204
    _descriptorsStoreCursor += _descrSize;

    return 0;
     e22:	4501                	li	a0,0
/home/ju/HydraDancer/enumeration/firmware/src/bbio.c:202
    _descriptorsStoreCursor += _descrSize;
     e24:	c004                	sw	s1,0(s0)
/home/ju/HydraDancer/enumeration/firmware/src/bbio.c:205
}
     e26:	40b2                	lw	ra,12(sp)
     e28:	4422                	lw	s0,8(sp)
     e2a:	4492                	lw	s1,4(sp)
     e2c:	0141                	addi	sp,sp,16
     e2e:	8082                	ret
/home/ju/HydraDancer/enumeration/firmware/src/bbio.c:184
        g_bbioDescriptorDevice     = _descriptorsStoreCursor;
     e30:	200017b7          	lui	a5,0x20001
     e34:	20e7a223          	sw	a4,516(a5) # 20001204 <g_bbioDescriptorDevice>
/home/ju/HydraDancer/enumeration/firmware/src/bbio.c:185
        g_bbioDescriptorDeviceSize = _descrSize;
     e38:	200017b7          	lui	a5,0x20001
     e3c:	1cc79a23          	sh	a2,468(a5) # 200011d4 <g_bbioDescriptorDeviceSize>
     e40:	bfe9                	j	e1a <bbio_command_set_descriptor_handle+0x66>
/home/ju/HydraDancer/enumeration/firmware/src/bbio.c:174
        log_to_evaluator("ERROR: bbio_handle_command() No space left in the descriptor store\r\n");
     e42:	00004537          	lui	a0,0x4
     e46:	cb050513          	addi	a0,a0,-848 # 3cb0 <_sbrk+0x1b8>
     e4a:	2cb1                	jal	10a6 <log_to_evaluator>
/home/ju/HydraDancer/enumeration/firmware/src/bbio.c:205
}
     e4c:	40b2                	lw	ra,12(sp)
     e4e:	4422                	lw	s0,8(sp)
     e50:	4492                	lw	s1,4(sp)
/home/ju/HydraDancer/enumeration/firmware/src/bbio.c:175
        return 1;
     e52:	4505                	li	a0,1
/home/ju/HydraDancer/enumeration/firmware/src/bbio.c:205
}
     e54:	0141                	addi	sp,sp,16
     e56:	8082                	ret
/home/ju/HydraDancer/enumeration/firmware/src/bbio.c:189
        g_bbioDescriptorConfiguration     = _descriptorsStoreCursor;
     e58:	200017b7          	lui	a5,0x20001
     e5c:	1ae7aa23          	sw	a4,436(a5) # 200011b4 <g_bbioDescriptorConfiguration>
/home/ju/HydraDancer/enumeration/firmware/src/bbio.c:190
        g_bbioDescriptorConfigurationSize = _descrSize;
     e60:	200017b7          	lui	a5,0x20001
     e64:	1ac79823          	sh	a2,432(a5) # 200011b0 <g_bbioDescriptorConfigurationSize>
     e68:	bf4d                	j	e1a <bbio_command_set_descriptor_handle+0x66>
/home/ju/HydraDancer/enumeration/firmware/src/bbio.c:178
        log_to_evaluator("ERROR: bbio_handle_command() string descriptor index out of range\r\n");
     e6a:	00004537          	lui	a0,0x4
     e6e:	cf850513          	addi	a0,a0,-776 # 3cf8 <_sbrk+0x200>
     e72:	2c15                	jal	10a6 <log_to_evaluator>
/home/ju/HydraDancer/enumeration/firmware/src/bbio.c:179
        return 2;
     e74:	4509                	li	a0,2
     e76:	bf45                	j	e26 <bbio_command_set_descriptor_handle+0x72>
/home/ju/HydraDancer/enumeration/firmware/src/bbio.c:197
        log_to_evaluator("ERROR: bbio_handle_command() unknown sub command\r\n");
     e78:	00004537          	lui	a0,0x4
     e7c:	d3c50513          	addi	a0,a0,-708 # 3d3c <_sbrk+0x244>
     e80:	241d                	jal	10a6 <log_to_evaluator>
/home/ju/HydraDancer/enumeration/firmware/src/bbio.c:198
        return 3;
     e82:	450d                	li	a0,3
     e84:	b74d                	j	e26 <bbio_command_set_descriptor_handle+0x72>

00000e86 <bbio_command_set_endpoints_handle>:
bbio_command_set_endpoints_handle():
/home/ju/HydraDancer/enumeration/firmware/src/bbio.c:215
 *
 * @return  0 if Success, an error code else
 */
uint8_t
bbio_command_set_endpoints_handle(uint8_t *bufferEndpoints)
{
     e86:	1141                	addi	sp,sp,-16
     e88:	c606                	sw	ra,12(sp)
/home/ju/HydraDancer/enumeration/firmware/src/bbio.c:232
    // X: 0 for OUT, 1 for IN
    // xxx: the endpoint number (from 1 to 7)
    enum Endpoint endpointsIn  = 0;
    enum Endpoint endpointsOut = 0;

    while (*bufferEndpoints != 0) {
     e8a:	00054783          	lbu	a5,0(a0)
     e8e:	cfd1                	beqz	a5,f2a <bbio_command_set_endpoints_handle+0xa4>
/home/ju/HydraDancer/enumeration/firmware/src/bbio.c:258
            case 7:
                endpointsIn |= Ep7Mask;
                break;
            }
        } else { // Else OUT
            switch (*bufferEndpoints & 0b00000111) {
     e90:	6891                	lui	a7,0x4
/home/ju/HydraDancer/enumeration/firmware/src/bbio.c:234
            switch (*bufferEndpoints & 0b00000111) {
     e92:	6811                	lui	a6,0x4
     e94:	872a                	mv	a4,a0
/home/ju/HydraDancer/enumeration/firmware/src/bbio.c:230
    enum Endpoint endpointsOut = 0;
     e96:	4581                	li	a1,0
/home/ju/HydraDancer/enumeration/firmware/src/bbio.c:229
    enum Endpoint endpointsIn  = 0;
     e98:	4501                	li	a0,0
/home/ju/HydraDancer/enumeration/firmware/src/bbio.c:258
            switch (*bufferEndpoints & 0b00000111) {
     e9a:	461d                	li	a2,7
     e9c:	b9488893          	addi	a7,a7,-1132 # 3b94 <_sbrk+0x9c>
/home/ju/HydraDancer/enumeration/firmware/src/bbio.c:234
            switch (*bufferEndpoints & 0b00000111) {
     ea0:	b7480813          	addi	a6,a6,-1164 # 3b74 <_sbrk+0x7c>
/home/ju/HydraDancer/enumeration/firmware/src/bbio.c:233
        if (*bufferEndpoints & 0b00001000) { // If IN
     ea4:	0087f693          	andi	a3,a5,8
     ea8:	8b9d                	andi	a5,a5,7
     eaa:	c6a9                	beqz	a3,ef4 <bbio_command_set_endpoints_handle+0x6e>
/home/ju/HydraDancer/enumeration/firmware/src/bbio.c:234
            switch (*bufferEndpoints & 0b00000111) {
     eac:	00f66863          	bltu	a2,a5,ebc <bbio_command_set_endpoints_handle+0x36>
     eb0:	078a                	slli	a5,a5,0x2
     eb2:	97c2                	add	a5,a5,a6
     eb4:	439c                	lw	a5,0(a5)
     eb6:	8782                	jr	a5
/home/ju/HydraDancer/enumeration/firmware/src/bbio.c:254
                endpointsIn |= Ep7Mask;
     eb8:	08056513          	ori	a0,a0,128
/home/ju/HydraDancer/enumeration/firmware/src/bbio.c:284
                break;
            }
        }

        // epilog
        ++bufferEndpoints;
     ebc:	0705                	addi	a4,a4,1
/home/ju/HydraDancer/enumeration/firmware/src/bbio.c:232
    while (*bufferEndpoints != 0) {
     ebe:	00074783          	lbu	a5,0(a4)
     ec2:	f3ed                	bnez	a5,ea4 <bbio_command_set_endpoints_handle+0x1e>
/home/ju/HydraDancer/enumeration/firmware/src/bbio.c:287
    }

    usb20_endpoints_init(endpointsIn, endpointsOut);
     ec4:	27f000ef          	jal	ra,1942 <usb20_endpoints_init>
/home/ju/HydraDancer/enumeration/firmware/src/bbio.c:290

    return 0;
}
     ec8:	40b2                	lw	ra,12(sp)
     eca:	4501                	li	a0,0
     ecc:	0141                	addi	sp,sp,16
     ece:	8082                	ret
/home/ju/HydraDancer/enumeration/firmware/src/bbio.c:251
                endpointsIn |= Ep6Mask;
     ed0:	04056513          	ori	a0,a0,64
/home/ju/HydraDancer/enumeration/firmware/src/bbio.c:252
                break;
     ed4:	b7e5                	j	ebc <bbio_command_set_endpoints_handle+0x36>
/home/ju/HydraDancer/enumeration/firmware/src/bbio.c:248
                endpointsIn |= Ep5Mask;
     ed6:	02056513          	ori	a0,a0,32
/home/ju/HydraDancer/enumeration/firmware/src/bbio.c:249
                break;
     eda:	b7cd                	j	ebc <bbio_command_set_endpoints_handle+0x36>
/home/ju/HydraDancer/enumeration/firmware/src/bbio.c:239
                endpointsIn |= Ep2Mask;
     edc:	00456513          	ori	a0,a0,4
/home/ju/HydraDancer/enumeration/firmware/src/bbio.c:240
                break;
     ee0:	bff1                	j	ebc <bbio_command_set_endpoints_handle+0x36>
/home/ju/HydraDancer/enumeration/firmware/src/bbio.c:236
                endpointsIn |= Ep1Mask;
     ee2:	00256513          	ori	a0,a0,2
/home/ju/HydraDancer/enumeration/firmware/src/bbio.c:237
                break;
     ee6:	bfd9                	j	ebc <bbio_command_set_endpoints_handle+0x36>
/home/ju/HydraDancer/enumeration/firmware/src/bbio.c:245
                endpointsIn |= Ep4Mask;
     ee8:	01056513          	ori	a0,a0,16
/home/ju/HydraDancer/enumeration/firmware/src/bbio.c:246
                break;
     eec:	bfc1                	j	ebc <bbio_command_set_endpoints_handle+0x36>
/home/ju/HydraDancer/enumeration/firmware/src/bbio.c:242
                endpointsIn |= Ep3Mask;
     eee:	00856513          	ori	a0,a0,8
/home/ju/HydraDancer/enumeration/firmware/src/bbio.c:243
                break;
     ef2:	b7e9                	j	ebc <bbio_command_set_endpoints_handle+0x36>
/home/ju/HydraDancer/enumeration/firmware/src/bbio.c:258
            switch (*bufferEndpoints & 0b00000111) {
     ef4:	fcf664e3          	bltu	a2,a5,ebc <bbio_command_set_endpoints_handle+0x36>
     ef8:	078a                	slli	a5,a5,0x2
     efa:	97c6                	add	a5,a5,a7
     efc:	439c                	lw	a5,0(a5)
     efe:	8782                	jr	a5
/home/ju/HydraDancer/enumeration/firmware/src/bbio.c:278
                endpointsOut |= Ep7Mask;
     f00:	0805e593          	ori	a1,a1,128
/home/ju/HydraDancer/enumeration/firmware/src/bbio.c:279
                break;
     f04:	bf65                	j	ebc <bbio_command_set_endpoints_handle+0x36>
/home/ju/HydraDancer/enumeration/firmware/src/bbio.c:275
                endpointsOut |= Ep6Mask;
     f06:	0405e593          	ori	a1,a1,64
/home/ju/HydraDancer/enumeration/firmware/src/bbio.c:276
                break;
     f0a:	bf4d                	j	ebc <bbio_command_set_endpoints_handle+0x36>
/home/ju/HydraDancer/enumeration/firmware/src/bbio.c:272
                endpointsOut |= Ep5Mask;
     f0c:	0205e593          	ori	a1,a1,32
/home/ju/HydraDancer/enumeration/firmware/src/bbio.c:273
                break;
     f10:	b775                	j	ebc <bbio_command_set_endpoints_handle+0x36>
/home/ju/HydraDancer/enumeration/firmware/src/bbio.c:269
                endpointsOut |= Ep4Mask;
     f12:	0105e593          	ori	a1,a1,16
/home/ju/HydraDancer/enumeration/firmware/src/bbio.c:270
                break;
     f16:	b75d                	j	ebc <bbio_command_set_endpoints_handle+0x36>
/home/ju/HydraDancer/enumeration/firmware/src/bbio.c:266
                endpointsOut |= Ep3Mask;
     f18:	0085e593          	ori	a1,a1,8
/home/ju/HydraDancer/enumeration/firmware/src/bbio.c:267
                break;
     f1c:	b745                	j	ebc <bbio_command_set_endpoints_handle+0x36>
/home/ju/HydraDancer/enumeration/firmware/src/bbio.c:263
                endpointsOut |= Ep2Mask;
     f1e:	0045e593          	ori	a1,a1,4
/home/ju/HydraDancer/enumeration/firmware/src/bbio.c:264
                break;
     f22:	bf69                	j	ebc <bbio_command_set_endpoints_handle+0x36>
/home/ju/HydraDancer/enumeration/firmware/src/bbio.c:260
                endpointsOut |= Ep1Mask;
     f24:	0025e593          	ori	a1,a1,2
/home/ju/HydraDancer/enumeration/firmware/src/bbio.c:261
                break;
     f28:	bf51                	j	ebc <bbio_command_set_endpoints_handle+0x36>
/home/ju/HydraDancer/enumeration/firmware/src/bbio.c:229
    enum Endpoint endpointsIn  = 0;
     f2a:	4501                	li	a0,0
/home/ju/HydraDancer/enumeration/firmware/src/bbio.c:230
    enum Endpoint endpointsOut = 0;
     f2c:	4581                	li	a1,0
/home/ju/HydraDancer/enumeration/firmware/src/bbio.c:287
    usb20_endpoints_init(endpointsIn, endpointsOut);
     f2e:	215000ef          	jal	ra,1942 <usb20_endpoints_init>
/home/ju/HydraDancer/enumeration/firmware/src/bbio.c:290
}
     f32:	40b2                	lw	ra,12(sp)
     f34:	4501                	li	a0,0
     f36:	0141                	addi	sp,sp,16
     f38:	8082                	ret

00000f3a <bbio_command_handle>:
bbio_command_handle():
/home/ju/HydraDancer/enumeration/firmware/src/bbio.c:112
    switch (_command) {
     f3a:	83c1c783          	lbu	a5,-1988(gp) # 2000016c <_command>
/home/ju/HydraDancer/enumeration/firmware/src/bbio.c:110
{
     f3e:	1141                	addi	sp,sp,-16
     f40:	c606                	sw	ra,12(sp)
/home/ju/HydraDancer/enumeration/firmware/src/bbio.c:112
    switch (_command) {
     f42:	4721                	li	a4,8
     f44:	10f76263          	bltu	a4,a5,1048 <bbio_command_handle+0x10e>
     f48:	6711                	lui	a4,0x4
     f4a:	078a                	slli	a5,a5,0x2
     f4c:	bb470713          	addi	a4,a4,-1100 # 3bb4 <_sbrk+0xbc>
     f50:	97ba                	add	a5,a5,a4
     f52:	439c                	lw	a5,0(a5)
     f54:	8782                	jr	a5
/home/ju/HydraDancer/enumeration/firmware/src/bbio.c:160
}
     f56:	40b2                	lw	ra,12(sp)
/home/ju/HydraDancer/enumeration/firmware/src/bbio.c:115
        return 1;
     f58:	4505                	li	a0,1
/home/ju/HydraDancer/enumeration/firmware/src/bbio.c:160
}
     f5a:	0141                	addi	sp,sp,16
     f5c:	8082                	ret
     f5e:	40b2                	lw	ra,12(sp)
/home/ju/HydraDancer/enumeration/firmware/src/bbio.c:118
        return 2;
     f60:	4509                	li	a0,2
/home/ju/HydraDancer/enumeration/firmware/src/bbio.c:160
}
     f62:	0141                	addi	sp,sp,16
     f64:	8082                	ret
/home/ju/HydraDancer/enumeration/firmware/src/bbio.c:120
        bbio_command_set_descriptor_handle(bufferData);
     f66:	35b9                	jal	db4 <bbio_command_set_descriptor_handle>
/home/ju/HydraDancer/enumeration/firmware/src/bbio.c:160
}
     f68:	40b2                	lw	ra,12(sp)
/home/ju/HydraDancer/enumeration/firmware/src/bbio.c:121
        return 0;
     f6a:	4501                	li	a0,0
/home/ju/HydraDancer/enumeration/firmware/src/bbio.c:160
}
     f6c:	0141                	addi	sp,sp,16
     f6e:	8082                	ret
/home/ju/HydraDancer/enumeration/firmware/src/bbio.c:123
        bbio_command_set_endpoints_handle(bufferData);
     f70:	3f19                	jal	e86 <bbio_command_set_endpoints_handle>
/home/ju/HydraDancer/enumeration/firmware/src/bbio.c:160
}
     f72:	40b2                	lw	ra,12(sp)
/home/ju/HydraDancer/enumeration/firmware/src/bbio.c:124
        return 0;
     f74:	4501                	li	a0,0
/home/ju/HydraDancer/enumeration/firmware/src/bbio.c:160
}
     f76:	0141                	addi	sp,sp,16
     f78:	8082                	ret
/home/ju/HydraDancer/enumeration/firmware/src/bbio.c:126
        g_descriptorConfigCustomSize = g_bbioDescriptorConfigurationSize;
     f7a:	200017b7          	lui	a5,0x20001
     f7e:	1b07d603          	lhu	a2,432(a5) # 200011b0 <g_bbioDescriptorConfigurationSize>
/home/ju/HydraDancer/enumeration/firmware/src/bbio.c:130
        g_descriptorDevice  = g_bbioDescriptorDevice;
     f82:	200017b7          	lui	a5,0x20001
     f86:	2047a683          	lw	a3,516(a5) # 20001204 <g_bbioDescriptorDevice>
/home/ju/HydraDancer/enumeration/firmware/src/bbio.c:131
        g_descriptorConfig  = g_bbioDescriptorConfiguration;
     f8a:	200017b7          	lui	a5,0x20001
     f8e:	1b47a703          	lw	a4,436(a5) # 200011b4 <g_bbioDescriptorConfiguration>
/home/ju/HydraDancer/enumeration/firmware/src/bbio.c:126
        g_descriptorConfigCustomSize = g_bbioDescriptorConfigurationSize;
     f92:	84c19c23          	sh	a2,-1960(gp) # 20000188 <g_descriptorConfigCustomSize>
/home/ju/HydraDancer/enumeration/firmware/src/bbio.c:127
        g_usb20Speed = SpeedHigh;
     f96:	200017b7          	lui	a5,0x20001
     f9a:	02000613          	li	a2,32
     f9e:	20c7a023          	sw	a2,512(a5) # 20001200 <g_usb20Speed>
/home/ju/HydraDancer/enumeration/firmware/src/bbio.c:130
        g_descriptorDevice  = g_bbioDescriptorDevice;
     fa2:	84d1ae23          	sw	a3,-1956(gp) # 2000018c <g_descriptorDevice>
/home/ju/HydraDancer/enumeration/firmware/src/bbio.c:131
        g_descriptorConfig  = g_bbioDescriptorConfiguration;
     fa6:	84e1aa23          	sw	a4,-1964(gp) # 20000184 <g_descriptorConfig>
/home/ju/HydraDancer/enumeration/firmware/src/bbio.c:132
        g_descriptorStrings = g_bbioDescriptorsString;
     faa:	200017b7          	lui	a5,0x20001
     fae:	1d878793          	addi	a5,a5,472 # 200011d8 <g_bbioDescriptorsString>
/home/ju/HydraDancer/enumeration/firmware/src/bbio.c:135
        usb20_registers_init(g_usb20Speed);
     fb2:	02000513          	li	a0,32
/home/ju/HydraDancer/enumeration/firmware/src/bbio.c:132
        g_descriptorStrings = g_bbioDescriptorsString;
     fb6:	86f1a023          	sw	a5,-1952(gp) # 20000190 <g_descriptorStrings>
/home/ju/HydraDancer/enumeration/firmware/src/bbio.c:134
        g_doesToeSupportCurrentDevice = false;  // Reset the value
     fba:	84018123          	sb	zero,-1982(gp) # 20000172 <g_doesToeSupportCurrentDevice>
/home/ju/HydraDancer/enumeration/firmware/src/bbio.c:135
        usb20_registers_init(g_usb20Speed);
     fbe:	121000ef          	jal	ra,18de <usb20_registers_init>
/home/ju/HydraDancer/enumeration/firmware/src/bbio.c:160
}
     fc2:	40b2                	lw	ra,12(sp)
/home/ju/HydraDancer/enumeration/firmware/src/bbio.c:136
        return 0;
     fc4:	4501                	li	a0,0
/home/ju/HydraDancer/enumeration/firmware/src/bbio.c:160
}
     fc6:	0141                	addi	sp,sp,16
     fc8:	8082                	ret
     fca:	40b2                	lw	ra,12(sp)
/home/ju/HydraDancer/enumeration/firmware/src/bbio.c:138
        return g_doesToeSupportCurrentDevice;
     fcc:	8421c503          	lbu	a0,-1982(gp) # 20000172 <g_doesToeSupportCurrentDevice>
/home/ju/HydraDancer/enumeration/firmware/src/bbio.c:160
}
     fd0:	0141                	addi	sp,sp,16
     fd2:	8082                	ret
/home/ju/HydraDancer/enumeration/firmware/src/bbio.c:140
        g_doesToeSupportCurrentDevice = false;
     fd4:	84018123          	sb	zero,-1982(gp) # 20000172 <g_doesToeSupportCurrentDevice>
/home/ju/HydraDancer/enumeration/firmware/src/bbio.c:141
        usb20_registers_deinit();
     fd8:	15f000ef          	jal	ra,1936 <usb20_registers_deinit>
/home/ju/HydraDancer/enumeration/firmware/src/bbio.c:160
}
     fdc:	40b2                	lw	ra,12(sp)
/home/ju/HydraDancer/enumeration/firmware/src/bbio.c:142
        return 0;
     fde:	4501                	li	a0,0
/home/ju/HydraDancer/enumeration/firmware/src/bbio.c:160
}
     fe0:	0141                	addi	sp,sp,16
     fe2:	8082                	ret
/home/ju/HydraDancer/enumeration/firmware/src/bbio.c:144
        g_descriptorDevice  = NULL;
     fe4:	8401ae23          	sw	zero,-1956(gp) # 2000018c <g_descriptorDevice>
/home/ju/HydraDancer/enumeration/firmware/src/bbio.c:145
        g_descriptorConfig  = NULL;
     fe8:	20001737          	lui	a4,0x20001
     fec:	8401aa23          	sw	zero,-1964(gp) # 20000184 <g_descriptorConfig>
/home/ju/HydraDancer/enumeration/firmware/src/bbio.c:146
        g_descriptorStrings = NULL;
     ff0:	1d870793          	addi	a5,a4,472 # 200011d8 <g_bbioDescriptorsString>
     ff4:	1c072c23          	sw	zero,472(a4)
     ff8:	8601a023          	sw	zero,-1952(gp) # 20000190 <g_descriptorStrings>
/home/ju/HydraDancer/enumeration/firmware/src/bbio.c:154
        memset(_descriptorsStore, 0, _DESCRIPTOR_STORE_CAPACITY);
     ffc:	20000537          	lui	a0,0x20000
/home/ju/HydraDancer/enumeration/firmware/src/bbio.c:148
        g_bbioDescriptorDevice = NULL;
    1000:	200016b7          	lui	a3,0x20001
    1004:	2006a223          	sw	zero,516(a3) # 20001204 <g_bbioDescriptorDevice>
/home/ju/HydraDancer/enumeration/firmware/src/bbio.c:154
        memset(_descriptorsStore, 0, _DESCRIPTOR_STORE_CAPACITY);
    1008:	6605                	lui	a2,0x1
/home/ju/HydraDancer/enumeration/firmware/src/bbio.c:149
        g_bbioDescriptorConfiguration = NULL;
    100a:	200016b7          	lui	a3,0x20001
/home/ju/HydraDancer/enumeration/firmware/src/bbio.c:154
        memset(_descriptorsStore, 0, _DESCRIPTOR_STORE_CAPACITY);
    100e:	4581                	li	a1,0
    1010:	1b050513          	addi	a0,a0,432 # 200001b0 <_descriptorsStore>
    1014:	0007a223          	sw	zero,4(a5)
    1018:	0007a423          	sw	zero,8(a5)
    101c:	0007a623          	sw	zero,12(a5)
    1020:	0007a823          	sw	zero,16(a5)
    1024:	0007aa23          	sw	zero,20(a5)
    1028:	0007ac23          	sw	zero,24(a5)
    102c:	0007ae23          	sw	zero,28(a5)
    1030:	0207a023          	sw	zero,32(a5)
    1034:	0207a223          	sw	zero,36(a5)
/home/ju/HydraDancer/enumeration/firmware/src/bbio.c:149
        g_bbioDescriptorConfiguration = NULL;
    1038:	1a06aa23          	sw	zero,436(a3) # 200011b4 <g_bbioDescriptorConfiguration>
/home/ju/HydraDancer/enumeration/firmware/src/bbio.c:154
        memset(_descriptorsStore, 0, _DESCRIPTOR_STORE_CAPACITY);
    103c:	884ff0ef          	jal	ra,c0 <memset>
/home/ju/HydraDancer/enumeration/firmware/src/bbio.c:160
}
    1040:	40b2                	lw	ra,12(sp)
/home/ju/HydraDancer/enumeration/firmware/src/bbio.c:155
        return 0;
    1042:	4501                	li	a0,0
/home/ju/HydraDancer/enumeration/firmware/src/bbio.c:160
}
    1044:	0141                	addi	sp,sp,16
    1046:	8082                	ret
/home/ju/HydraDancer/enumeration/firmware/src/bbio.c:157
        log_to_evaluator("ERROR: bbio_command_handle() unknown command\r\n");
    1048:	00004537          	lui	a0,0x4
    104c:	c8050513          	addi	a0,a0,-896 # 3c80 <_sbrk+0x188>
    1050:	2899                	jal	10a6 <log_to_evaluator>
/home/ju/HydraDancer/enumeration/firmware/src/bbio.c:160
}
    1052:	40b2                	lw	ra,12(sp)
/home/ju/HydraDancer/enumeration/firmware/src/bbio.c:158
        return 3;
    1054:	450d                	li	a0,3
/home/ju/HydraDancer/enumeration/firmware/src/bbio.c:160
}
    1056:	0141                	addi	sp,sp,16
    1058:	8082                	ret

0000105a <hspi_get_rtx_status>:
hspi_get_rtx_status():
/home/ju/HydraDancer/enumeration/firmware/src/hspi.c:37
 * @return  Return 0b0010 if CRC_ERR, 0b0100 if NUM_MIS, 0 else
 */
uint8_t
hspi_get_rtx_status(void)
{
    return R8_HSPI_RTX_STATUS & (RB_HSPI_CRC_ERR | RB_HSPI_NUM_MIS);
    105a:	400067b7          	lui	a5,0x40006
    105e:	0297c503          	lbu	a0,41(a5) # 40006029 <_dmadata_end+0x1ffd2e29>
/home/ju/HydraDancer/enumeration/firmware/src/hspi.c:38
}
    1062:	8919                	andi	a0,a0,6
    1064:	8082                	ret

00001066 <hspi_get_buffer_next_tx>:
hspi_get_buffer_next_tx():
/home/ju/HydraDancer/enumeration/firmware/src/hspi.c:52
 */
uint8_t *
hspi_get_buffer_next_tx(void)
{
    uint8_t *bufferTx = hspiDmaAddr0;
    if (R8_HSPI_TX_SC & RB_HSPI_TX_TOG) {
    1066:	400067b7          	lui	a5,0x40006
    106a:	02a7c783          	lbu	a5,42(a5) # 4000602a <_dmadata_end+0x1ffd2e2a>
    106e:	8bc1                	andi	a5,a5,16
    1070:	c791                	beqz	a5,107c <hspi_get_buffer_next_tx+0x16>
/home/ju/HydraDancer/enumeration/firmware/src/hspi.c:53
        bufferTx = hspiDmaAddr1;
    1072:	20020537          	lui	a0,0x20020
    1076:	00050513          	mv	a0,a0
    107a:	8082                	ret
/home/ju/HydraDancer/enumeration/firmware/src/hspi.c:51
    uint8_t *bufferTx = hspiDmaAddr0;
    107c:	20021537          	lui	a0,0x20021
    1080:	00050513          	mv	a0,a0
/home/ju/HydraDancer/enumeration/firmware/src/hspi.c:57
    }

    return bufferTx;
}
    1084:	8082                	ret

00001086 <hspi_get_buffer_rx>:
hspi_get_buffer_rx():
/home/ju/HydraDancer/enumeration/firmware/src/hspi.c:111
hspi_get_buffer_rx(void)
{
    // R8_HSPI_RX_SC stores the buffer that will be used for the next
    // reception, thus we need to inverse the buffers
    uint8_t *bufferRx = hspiDmaAddr1;
    if (R8_HSPI_RX_SC & RB_HSPI_RX_TOG) {
    1086:	400067b7          	lui	a5,0x40006
    108a:	02b7c783          	lbu	a5,43(a5) # 4000602b <_dmadata_end+0x1ffd2e2b>
    108e:	8bc1                	andi	a5,a5,16
    1090:	c791                	beqz	a5,109c <hspi_get_buffer_rx+0x16>
/home/ju/HydraDancer/enumeration/firmware/src/hspi.c:112
        bufferRx = hspiDmaAddr0;
    1092:	20021537          	lui	a0,0x20021
    1096:	00050513          	mv	a0,a0
    109a:	8082                	ret
/home/ju/HydraDancer/enumeration/firmware/src/hspi.c:110
    uint8_t *bufferRx = hspiDmaAddr1;
    109c:	20020537          	lui	a0,0x20020
    10a0:	00050513          	mv	a0,a0
/home/ju/HydraDancer/enumeration/firmware/src/hspi.c:116
    }

    return bufferRx;
}
    10a4:	8082                	ret

000010a6 <log_to_evaluator>:
log_to_evaluator():
/home/ju/HydraDancer/enumeration/firmware/src/log.c:13

#include "log.h"

void
log_to_evaluator(const char *fmt, ...)
{
    10a6:	7139                	addi	sp,sp,-64
    10a8:	da3e                	sw	a5,52(sp)
/home/ju/HydraDancer/enumeration/firmware/src/log.c:15
    va_list ap;
    va_start(ap, fmt);
    10aa:	105c                	addi	a5,sp,36
/home/ju/HydraDancer/enumeration/firmware/src/log.c:13
{
    10ac:	cc22                	sw	s0,24(sp)
    10ae:	ce06                	sw	ra,28(sp)
    10b0:	842a                	mv	s0,a0
    10b2:	d22e                	sw	a1,36(sp)
    10b4:	d432                	sw	a2,40(sp)
    10b6:	d636                	sw	a3,44(sp)
    10b8:	d83a                	sw	a4,48(sp)
    10ba:	dc42                	sw	a6,56(sp)
    10bc:	de46                	sw	a7,60(sp)
/home/ju/HydraDancer/enumeration/firmware/src/log.c:15
    va_start(ap, fmt);
    10be:	c63e                	sw	a5,12(sp)
/home/ju/HydraDancer/enumeration/firmware/src/log.c:17

    if (bsp_switch()) {
    10c0:	3129                	jal	cca <bsp_switch>
    10c2:	c919                	beqz	a0,10d8 <log_to_evaluator+0x32>
/home/ju/HydraDancer/enumeration/firmware/src/log.c:19
        // If is top board
        usb20_vlog(Ep6Mask, fmt, ap);
    10c4:	4632                	lw	a2,12(sp)
    10c6:	85a2                	mv	a1,s0
    10c8:	04000513          	li	a0,64
    10cc:	028010ef          	jal	ra,20f4 <usb20_vlog>
/home/ju/HydraDancer/enumeration/firmware/src/log.c:25
    } else {
        // Else is bottom board
        serdes_vlog(fmt, ap);
    }

}
    10d0:	40f2                	lw	ra,28(sp)
    10d2:	4462                	lw	s0,24(sp)
    10d4:	6121                	addi	sp,sp,64
    10d6:	8082                	ret
/home/ju/HydraDancer/enumeration/firmware/src/log.c:22
        serdes_vlog(fmt, ap);
    10d8:	45b2                	lw	a1,12(sp)
    10da:	8522                	mv	a0,s0
    10dc:	7b2000ef          	jal	ra,188e <serdes_vlog>
/home/ju/HydraDancer/enumeration/firmware/src/log.c:25
}
    10e0:	40f2                	lw	ra,28(sp)
    10e2:	4462                	lw	s0,24(sp)
    10e4:	6121                	addi	sp,sp,64
    10e6:	8082                	ret

000010e8 <main>:
main():
/home/ju/HydraDancer/enumeration/firmware/src/main.c:47
 *
 * @return  none
 */
int
main(void)
{
    10e8:	1141                	addi	sp,sp,-16
    10ea:	c606                	sw	ra,12(sp)
    10ec:	c422                	sw	s0,8(sp)
    10ee:	c226                	sw	s1,4(sp)
    10f0:	c04a                	sw	s2,0(sp)
/home/ju/HydraDancer/enumeration/firmware/src/main.c:49
    bsp_gpio_init();
    bsp_init(FREQ_SYS);
    10f2:	04c4b437          	lui	s0,0x4c4b
/home/ju/HydraDancer/enumeration/firmware/src/main.c:48
    bsp_gpio_init();
    10f6:	3641                	jal	c76 <bsp_gpio_init>
/home/ju/HydraDancer/enumeration/firmware/src/main.c:49
    bsp_init(FREQ_SYS);
    10f8:	40040513          	addi	a0,s0,1024 # 4c4b400 <_data_lma+0x4c46890>
    10fc:	882ff0ef          	jal	ra,17e <bsp_init>
/home/ju/HydraDancer/enumeration/firmware/src/main.c:50
    UART1_init(115200, FREQ_SYS);
    1100:	6571                	lui	a0,0x1c
    1102:	40040593          	addi	a1,s0,1024
    1106:	20050513          	addi	a0,a0,512 # 1c200 <_data_lma+0x17690>
    110a:	3e21                	jal	c22 <UART1_init>
/home/ju/HydraDancer/enumeration/firmware/src/main.c:54


    /* USB Init */
    if (bsp_switch()) {
    110c:	3e7d                	jal	cca <bsp_switch>
    110e:	0e051463          	bnez	a0,11f6 <main+0x10e>
/home/ju/HydraDancer/enumeration/firmware/src/main.c:70
        usb20_endpoints_init(g_usb20EpInMask, g_usb20EpOutMask);
    }

    /* Board sync */
    int retCode;
    if (bsp_switch()) {
    1112:	3e65                	jal	cca <bsp_switch>
/home/ju/HydraDancer/enumeration/firmware/src/main.c:71
        g_isHost = true;
    1114:	84b18413          	addi	s0,gp,-1973 # 2000017b <g_isHost>
/home/ju/HydraDancer/enumeration/firmware/src/main.c:70
    if (bsp_switch()) {
    1118:	0c050763          	beqz	a0,11e6 <main+0xfe>
/home/ju/HydraDancer/enumeration/firmware/src/main.c:71
        g_isHost = true;
    111c:	4785                	li	a5,1
/home/ju/HydraDancer/enumeration/firmware/src/main.c:72
        retCode = bsp_sync2boards(PA14, PA12, BSP_BOARD1);
    111e:	4601                	li	a2,0
    1120:	6585                	lui	a1,0x1
    1122:	6511                	lui	a0,0x4
/home/ju/HydraDancer/enumeration/firmware/src/main.c:71
        g_isHost = true;
    1124:	00f40023          	sb	a5,0(s0)
/home/ju/HydraDancer/enumeration/firmware/src/main.c:72
        retCode = bsp_sync2boards(PA14, PA12, BSP_BOARD1);
    1128:	984ff0ef          	jal	ra,2ac <bsp_sync2boards>
/home/ju/HydraDancer/enumeration/firmware/src/main.c:79
        g_isHost = false;
        retCode = bsp_sync2boards(PA14, PA12, BSP_BOARD2);
    }

    /* HSPI Init */
    memset((void *)hspiDmaAddr0, 0, HSPI_DMA_LEN0);
    112c:	200214b7          	lui	s1,0x20021
    1130:	20000613          	li	a2,512
    1134:	4581                	li	a1,0
    1136:	00048513          	mv	a0,s1
    113a:	f87fe0ef          	jal	ra,c0 <memset>
/home/ju/HydraDancer/enumeration/firmware/src/main.c:81
    hspiDmaAddr0[HSPI_DMA_LEN0-1] = 0;
    memset((void *)hspiDmaAddr1, 0, HSPI_DMA_LEN1);
    113e:	20020937          	lui	s2,0x20020
    1142:	20000613          	li	a2,512
    1146:	4581                	li	a1,0
    1148:	00090513          	mv	a0,s2
    114c:	f75fe0ef          	jal	ra,c0 <memset>
/home/ju/HydraDancer/enumeration/firmware/src/main.c:83
    hspiDmaAddr1[HSPI_DMA_LEN1-1] = 0;
    if (g_isHost) {
    1150:	00044783          	lbu	a5,0(s0)
    1154:	cfbd                	beqz	a5,11d2 <main+0xea>
/home/ju/HydraDancer/enumeration/firmware/src/main.c:84
        HSPI_DoubleDMA_Init(HSPI_HOST, RB_HSPI_DAT8_MOD, (uint32_t)hspiDmaAddr0, (uint32_t)hspiDmaAddr1, HSPI_DMA_LEN);
    1156:	20000713          	li	a4,512
    115a:	00090693          	mv	a3,s2
    115e:	00048613          	mv	a2,s1
    1162:	4581                	li	a1,0
    1164:	4501                	li	a0,0
    1166:	f82ff0ef          	jal	ra,8e8 <HSPI_DoubleDMA_Init>
/home/ju/HydraDancer/enumeration/firmware/src/main.c:92
    }

    /* SerDes Init */
    PFIC_EnableIRQ(SERDES_IRQn);
    SerDes_EnableIT(ALL_INT_TYPE);
    if (g_isHost) {
    116a:	00044703          	lbu	a4,0(s0)
PFIC_EnableIRQ():
/home/ju/HydraDancer/enumeration/firmware/../../wch-ch56x-bsp/rvmsis/core_riscv.h:103
    116e:	e000e7b7          	lui	a5,0xe000e
    1172:	4689                	li	a3,2
    1174:	10d7a223          	sw	a3,260(a5) # e000e104 <_dmadata_end+0xbffdaf04>
main():
/home/ju/HydraDancer/enumeration/firmware/src/main.c:91
    SerDes_EnableIT(ALL_INT_TYPE);
    1178:	4000b7b7          	lui	a5,0x4000b
    117c:	02f00693          	li	a3,47
    1180:	c3d4                	sw	a3,4(a5)
/home/ju/HydraDancer/enumeration/firmware/src/main.c:92
    if (g_isHost) {
    1182:	cf1d                	beqz	a4,11c0 <main+0xd8>
/home/ju/HydraDancer/enumeration/firmware/src/main.c:93
        SerDes_Rx_Init(SDS_PLL_FREQ_1_20G);
    1184:	6505                	lui	a0,0x1
    1186:	20050513          	addi	a0,a0,512 # 1200 <main+0x118>
    118a:	3255                	jal	b2e <SerDes_Rx_Init>
/home/ju/HydraDancer/enumeration/firmware/src/main.c:94
        SerDes_DMA_Rx_CFG((uint32_t)serdesDmaAddr);
    118c:	20022537          	lui	a0,0x20022
    1190:	00050513          	mv	a0,a0
    1194:	3ca9                	jal	bee <SerDes_DMA_Rx_CFG>
/home/ju/HydraDancer/enumeration/firmware/src/main.c:107
        // SerDes_DMA_Tx_CFG((uint32_t)serdesDmaAddr, SERDES_DMA_LEN, serdesCustomNumber);
    }



    if (g_isHost) {
    1196:	00044783          	lbu	a5,0(s0)
/home/ju/HydraDancer/enumeration/firmware/src/main.c:108
        log_to_evaluator("Init all done!\r\n");
    119a:	00004537          	lui	a0,0x4
    119e:	15c50513          	addi	a0,a0,348 # 415c <_sbrk+0x664>
/home/ju/HydraDancer/enumeration/firmware/src/main.c:107
    if (g_isHost) {
    11a2:	c399                	beqz	a5,11a8 <main+0xc0>
/home/ju/HydraDancer/enumeration/firmware/src/main.c:108
        log_to_evaluator("Init all done!\r\n");
    11a4:	3709                	jal	10a6 <log_to_evaluator>
/home/ju/HydraDancer/enumeration/firmware/src/main.c:113 (discriminator 1)
        while (1) {
            // BBIO commands are passed directly to the bottom board,
            // There is no logic in the top board
            // See usb20_ep1_transceive_and_update_host()
        }
    11a6:	a001                	j	11a6 <main+0xbe>
/home/ju/HydraDancer/enumeration/firmware/src/main.c:115
    } else {
        log_to_evaluator("Init all done!\r\n");
    11a8:	3dfd                	jal	10a6 <log_to_evaluator>
/home/ju/HydraDancer/enumeration/firmware/src/main.c:117 (discriminator 1)
        while (1) { 
            bsp_uled_on();
    11aa:	3e05                	jal	cda <bsp_uled_on>
/home/ju/HydraDancer/enumeration/firmware/src/main.c:118 (discriminator 1)
            bsp_wait_ms_delay(500);
    11ac:	1f400513          	li	a0,500
    11b0:	88eff0ef          	jal	ra,23e <bsp_wait_ms_delay>
/home/ju/HydraDancer/enumeration/firmware/src/main.c:119 (discriminator 1)
            bsp_uled_off();
    11b4:	3e1d                	jal	cea <bsp_uled_off>
/home/ju/HydraDancer/enumeration/firmware/src/main.c:120 (discriminator 1)
            bsp_wait_ms_delay(500);
    11b6:	1f400513          	li	a0,500
    11ba:	884ff0ef          	jal	ra,23e <bsp_wait_ms_delay>
    11be:	b7f5                	j	11aa <main+0xc2>
/home/ju/HydraDancer/enumeration/firmware/src/main.c:98
        SerDes_EnableIT(ALL_INT_TYPE & ~SDS_TX_INT_FLG);
    11c0:	02d00713          	li	a4,45
/home/ju/HydraDancer/enumeration/firmware/src/main.c:99
        SerDes_Tx_Init(SDS_PLL_FREQ_1_20G);
    11c4:	6505                	lui	a0,0x1
/home/ju/HydraDancer/enumeration/firmware/src/main.c:98
        SerDes_EnableIT(ALL_INT_TYPE & ~SDS_TX_INT_FLG);
    11c6:	c3d8                	sw	a4,4(a5)
/home/ju/HydraDancer/enumeration/firmware/src/main.c:99
        SerDes_Tx_Init(SDS_PLL_FREQ_1_20G);
    11c8:	20050513          	addi	a0,a0,512 # 1200 <main+0x118>
    11cc:	8dfff0ef          	jal	ra,aaa <SerDes_Tx_Init>
    11d0:	b7d9                	j	1196 <main+0xae>
/home/ju/HydraDancer/enumeration/firmware/src/main.c:86
        HSPI_DoubleDMA_Init(HSPI_DEVICE, RB_HSPI_DAT8_MOD, (uint32_t)hspiDmaAddr0, (uint32_t)hspiDmaAddr1, 0);
    11d2:	4701                	li	a4,0
    11d4:	00090693          	mv	a3,s2
    11d8:	00048613          	mv	a2,s1
    11dc:	4581                	li	a1,0
    11de:	4505                	li	a0,1
    11e0:	f08ff0ef          	jal	ra,8e8 <HSPI_DoubleDMA_Init>
    11e4:	b759                	j	116a <main+0x82>
/home/ju/HydraDancer/enumeration/firmware/src/main.c:75
        retCode = bsp_sync2boards(PA14, PA12, BSP_BOARD2);
    11e6:	4605                	li	a2,1
    11e8:	6585                	lui	a1,0x1
    11ea:	6511                	lui	a0,0x4
/home/ju/HydraDancer/enumeration/firmware/src/main.c:74
        g_isHost = false;
    11ec:	00040023          	sb	zero,0(s0)
/home/ju/HydraDancer/enumeration/firmware/src/main.c:75
        retCode = bsp_sync2boards(PA14, PA12, BSP_BOARD2);
    11f0:	8bcff0ef          	jal	ra,2ac <bsp_sync2boards>
    11f4:	bf25                	j	112c <main+0x44>
/home/ju/HydraDancer/enumeration/firmware/src/main.c:55
        g_usb20Speed = SpeedHigh;
    11f6:	200017b7          	lui	a5,0x20001
    11fa:	02000713          	li	a4,32
/home/ju/HydraDancer/enumeration/firmware/src/main.c:56
        g_usb20EpInMask  = Ep1Mask | Ep6Mask| Ep7Mask;
    11fe:	20001437          	lui	s0,0x20001
/home/ju/HydraDancer/enumeration/firmware/src/main.c:55
        g_usb20Speed = SpeedHigh;
    1202:	20e7a023          	sw	a4,512(a5) # 20001200 <g_usb20Speed>
/home/ju/HydraDancer/enumeration/firmware/src/main.c:56
        g_usb20EpInMask  = Ep1Mask | Ep6Mask| Ep7Mask;
    1206:	0c200793          	li	a5,194
/home/ju/HydraDancer/enumeration/firmware/src/main.c:57
        g_usb20EpOutMask = Ep1Mask;
    120a:	200014b7          	lui	s1,0x20001
/home/ju/HydraDancer/enumeration/firmware/src/main.c:56
        g_usb20EpInMask  = Ep1Mask | Ep6Mask| Ep7Mask;
    120e:	1cf42823          	sw	a5,464(s0) # 200011d0 <g_usb20EpInMask>
/home/ju/HydraDancer/enumeration/firmware/src/main.c:57
        g_usb20EpOutMask = Ep1Mask;
    1212:	4789                	li	a5,2
    1214:	1cf4a623          	sw	a5,460(s1) # 200011cc <g_usb20EpOutMask>
/home/ju/HydraDancer/enumeration/firmware/src/main.c:60
        g_descriptorDevice  = (uint8_t *)&stBoardTopDeviceDescriptor;
    1218:	200007b7          	lui	a5,0x20000
    121c:	04c78793          	addi	a5,a5,76 # 2000004c <stBoardTopDeviceDescriptor>
    1220:	84f1ae23          	sw	a5,-1956(gp) # 2000018c <g_descriptorDevice>
/home/ju/HydraDancer/enumeration/firmware/src/main.c:61
        g_descriptorConfig  = (uint8_t *)&stBoardTopConfigurationDescriptor;
    1224:	200007b7          	lui	a5,0x20000
    1228:	01c78793          	addi	a5,a5,28 # 2000001c <stBoardTopConfigurationDescriptor>
    122c:	84f1aa23          	sw	a5,-1964(gp) # 20000184 <g_descriptorConfig>
/home/ju/HydraDancer/enumeration/firmware/src/main.c:62
        g_descriptorStrings = boardTopStringDescriptors;
    1230:	200007b7          	lui	a5,0x20000
    1234:	00078793          	mv	a5,a5
/home/ju/HydraDancer/enumeration/firmware/src/main.c:64
        usb20_registers_init(g_usb20Speed);
    1238:	02000513          	li	a0,32
/home/ju/HydraDancer/enumeration/firmware/src/main.c:62
        g_descriptorStrings = boardTopStringDescriptors;
    123c:	86f1a023          	sw	a5,-1952(gp) # 20000190 <g_descriptorStrings>
/home/ju/HydraDancer/enumeration/firmware/src/main.c:64
        usb20_registers_init(g_usb20Speed);
    1240:	69e000ef          	jal	ra,18de <usb20_registers_init>
/home/ju/HydraDancer/enumeration/firmware/src/main.c:65
        usb20_endpoints_init(g_usb20EpInMask, g_usb20EpOutMask);
    1244:	1cc4a583          	lw	a1,460(s1)
    1248:	1d042503          	lw	a0,464(s0)
    124c:	6f6000ef          	jal	ra,1942 <usb20_endpoints_init>
    1250:	b5c9                	j	1112 <main+0x2a>

00001252 <SERDES_IRQHandler>:
SERDES_IRQHandler():
/home/ju/HydraDancer/enumeration/firmware/src/main.c:138
 */
__attribute__((interrupt("WCH-Interrupt-fast"))) void 
SERDES_IRQHandler(void)
{
    uint16_t logLen;
    switch (SerDes_StatusIT() & ALL_INT_TYPE) {
    1252:	4000b7b7          	lui	a5,0x4000b
    1256:	479c                	lw	a5,8(a5)
    1258:	02000713          	li	a4,32
    125c:	02f7f793          	andi	a5,a5,47
    1260:	14f76263          	bltu	a4,a5,13a4 <SERDES_IRQHandler+0x152>
    1264:	6711                	lui	a4,0x4
    1266:	078a                	slli	a5,a5,0x2
    1268:	d7070713          	addi	a4,a4,-656 # 3d70 <_sbrk+0x278>
    126c:	97ba                	add	a5,a5,a4
    126e:	439c                	lw	a5,0(a5)
/home/ju/HydraDancer/enumeration/firmware/src/main.c:136
{
    1270:	1141                	addi	sp,sp,-16
    1272:	c622                	sw	s0,12(sp)
    1274:	c426                	sw	s1,8(sp)
    1276:	c24a                	sw	s2,4(sp)
/home/ju/HydraDancer/enumeration/firmware/src/main.c:138
    switch (SerDes_StatusIT() & ALL_INT_TYPE) {
    1278:	8782                	jr	a5
/home/ju/HydraDancer/enumeration/firmware/src/main.c:147
    // SDS_TX_INT_FLG == SDS_RX_ERR_FLG, depend if it is Tx or Rx
    case SDS_TX_INT_FLG:
        SerDes_ClearIT(SDS_TX_INT_FLG);
        break;
    case SDS_RX_INT_FLG | SDS_RX_ERR_FLG:
        log_to_evaluator("SDS_RX_INT_FLG | SDS_RX_ERR_FLG\r\n");
    127a:	00004537          	lui	a0,0x4
    127e:	f4050513          	addi	a0,a0,-192 # 3f40 <_sbrk+0x448>
    1282:	3515                	jal	10a6 <log_to_evaluator>
/home/ju/HydraDancer/enumeration/firmware/src/main.c:150
        // No breaks, the handling is the same for both interrupts
    case SDS_RX_INT_FLG:
        switch(SDS->SDS_DATA0 & SerdesMagicNumberMask) {
    1284:	4000b6b7          	lui	a3,0x4000b
    1288:	4adc                	lw	a5,20(a3)
    128a:	01111737          	lui	a4,0x1111
    128e:	11170713          	addi	a4,a4,273 # 1111111 <_data_lma+0x110c5a1>
    1292:	0792                	slli	a5,a5,0x4
    1294:	8391                	srli	a5,a5,0x4
    1296:	0ae78b63          	beq	a5,a4,134c <SERDES_IRQHandler+0xfa>
    129a:	02222737          	lui	a4,0x2222
    129e:	22270713          	addi	a4,a4,546 # 2222222 <_data_lma+0x221d6b2>
    12a2:	06e78c63          	beq	a5,a4,131a <SERDES_IRQHandler+0xc8>
/home/ju/HydraDancer/enumeration/firmware/src/main.c:178
            usb20_endpoint_ack(0x81);
            R16_UEP1_T_LEN = 1; /* The call to usb20_endpoint_ack() reset R16_UEP1_T_LEN to 0 */

            break;
        default:
            log_to_evaluator("ERROR: SERDES_IRQHandler() unknown magic number\r\n");
    12a6:	00004537          	lui	a0,0x4
    12aa:	f6450513          	addi	a0,a0,-156 # 3f64 <_sbrk+0x46c>
    12ae:	3be5                	jal	10a6 <log_to_evaluator>
/home/ju/HydraDancer/enumeration/firmware/src/main.c:182
            break;
        }

        SerDes_ClearIT(SerDes_StatusIT() & ALL_INT_TYPE);
    12b0:	4000b737          	lui	a4,0x4000b
    12b4:	471c                	lw	a5,8(a4)
/home/ju/HydraDancer/enumeration/firmware/src/main.c:194
        break;
    default:
        SerDes_ClearIT(ALL_INT_FLG);
        break;
    }
}
    12b6:	4432                	lw	s0,12(sp)
    12b8:	44a2                	lw	s1,8(sp)
/home/ju/HydraDancer/enumeration/firmware/src/main.c:182
        SerDes_ClearIT(SerDes_StatusIT() & ALL_INT_TYPE);
    12ba:	02f7f793          	andi	a5,a5,47
    12be:	c71c                	sw	a5,8(a4)
/home/ju/HydraDancer/enumeration/firmware/src/main.c:194
}
    12c0:	4912                	lw	s2,4(sp)
    12c2:	0141                	addi	sp,sp,16
    12c4:	30200073          	mret
    12c8:	4432                	lw	s0,12(sp)
/home/ju/HydraDancer/enumeration/firmware/src/main.c:144
        SerDes_ClearIT(SDS_TX_INT_FLG);
    12ca:	4000b7b7          	lui	a5,0x4000b
    12ce:	4709                	li	a4,2
    12d0:	c798                	sw	a4,8(a5)
/home/ju/HydraDancer/enumeration/firmware/src/main.c:194
}
    12d2:	44a2                	lw	s1,8(sp)
    12d4:	4912                	lw	s2,4(sp)
    12d6:	0141                	addi	sp,sp,16
    12d8:	30200073          	mret
    12dc:	4432                	lw	s0,12(sp)
/home/ju/HydraDancer/enumeration/firmware/src/main.c:185
        SerDes_ClearIT(SDS_FIFO_OV_FLG);
    12de:	4000b7b7          	lui	a5,0x4000b
    12e2:	4721                	li	a4,8
    12e4:	c798                	sw	a4,8(a5)
/home/ju/HydraDancer/enumeration/firmware/src/main.c:194
}
    12e6:	44a2                	lw	s1,8(sp)
    12e8:	4912                	lw	s2,4(sp)
    12ea:	0141                	addi	sp,sp,16
    12ec:	30200073          	mret
    12f0:	4432                	lw	s0,12(sp)
/home/ju/HydraDancer/enumeration/firmware/src/main.c:188
        SerDes_ClearIT(SDS_COMMA_INT_FLG);
    12f2:	4000b7b7          	lui	a5,0x4000b
    12f6:	02000713          	li	a4,32
    12fa:	c798                	sw	a4,8(a5)
/home/ju/HydraDancer/enumeration/firmware/src/main.c:194
}
    12fc:	44a2                	lw	s1,8(sp)
    12fe:	4912                	lw	s2,4(sp)
    1300:	0141                	addi	sp,sp,16
    1302:	30200073          	mret
    1306:	4432                	lw	s0,12(sp)
/home/ju/HydraDancer/enumeration/firmware/src/main.c:140
        SerDes_ClearIT(SDS_PHY_RDY_FLG);
    1308:	4000b7b7          	lui	a5,0x4000b
    130c:	4705                	li	a4,1
    130e:	c798                	sw	a4,8(a5)
/home/ju/HydraDancer/enumeration/firmware/src/main.c:194
}
    1310:	44a2                	lw	s1,8(sp)
    1312:	4912                	lw	s2,4(sp)
    1314:	0141                	addi	sp,sp,16
    1316:	30200073          	mret
/home/ju/HydraDancer/enumeration/firmware/src/main.c:165
            if (SerDes_StatusIT() & SDS_RX_ERR_FLG) {
    131a:	469c                	lw	a5,8(a3)
    131c:	200226b7          	lui	a3,0x20022
    1320:	0006c703          	lbu	a4,0(a3) # 20022000 <serdesDmaAddr>
    1324:	8b89                	andi	a5,a5,2
    1326:	c789                	beqz	a5,1330 <SERDES_IRQHandler+0xde>
/home/ju/HydraDancer/enumeration/firmware/src/main.c:166
                serdesDmaAddr[0] ^= 0x80;
    1328:	08074713          	xori	a4,a4,128
    132c:	00e68023          	sb	a4,0(a3)
/home/ju/HydraDancer/enumeration/firmware/src/main.c:170
            endp1Tbuff[0] = serdesDmaAddr[0];
    1330:	2002f7b7          	lui	a5,0x2002f
/home/ju/HydraDancer/enumeration/firmware/src/main.c:173
            usb20_endpoint_ack(0x81);
    1334:	08100513          	li	a0,129
/home/ju/HydraDancer/enumeration/firmware/src/main.c:170
            endp1Tbuff[0] = serdesDmaAddr[0];
    1338:	20e78023          	sb	a4,512(a5) # 2002f200 <endp1Tbuff>
/home/ju/HydraDancer/enumeration/firmware/src/main.c:173
            usb20_endpoint_ack(0x81);
    133c:	151000ef          	jal	ra,1c8c <usb20_endpoint_ack>
/home/ju/HydraDancer/enumeration/firmware/src/main.c:174
            R16_UEP1_T_LEN = 1; /* The call to usb20_endpoint_ack() reset R16_UEP1_T_LEN to 0 */
    1340:	400097b7          	lui	a5,0x40009
    1344:	4705                	li	a4,1
    1346:	06e79a23          	sh	a4,116(a5) # 40009074 <_dmadata_end+0x1ffd5e74>
/home/ju/HydraDancer/enumeration/firmware/src/main.c:176
            break;
    134a:	b79d                	j	12b0 <SERDES_IRQHandler+0x5e>
/home/ju/HydraDancer/enumeration/firmware/src/main.c:153
            logLen = strnlen(serdesDmaAddr, SERDES_DMA_LEN);
    134c:	20022937          	lui	s2,0x20022
    1350:	20000593          	li	a1,512
    1354:	00090513          	mv	a0,s2
    1358:	4ba010ef          	jal	ra,2812 <strnlen>
/home/ju/HydraDancer/enumeration/firmware/src/main.c:154
            if (sizeEndp7LoggingBuff + logLen <= capacityEndp7LoggingBuff) {
    135c:	8721d783          	lhu	a5,-1934(gp) # 200001a2 <sizeEndp7LoggingBuff>
    1360:	01051613          	slli	a2,a0,0x10
    1364:	81a1d703          	lhu	a4,-2022(gp) # 2000014a <capacityEndp7LoggingBuff>
    1368:	8241                	srli	a2,a2,0x10
    136a:	00c786b3          	add	a3,a5,a2
/home/ju/HydraDancer/enumeration/firmware/src/main.c:153
            logLen = strnlen(serdesDmaAddr, SERDES_DMA_LEN);
    136e:	842a                	mv	s0,a0
/home/ju/HydraDancer/enumeration/firmware/src/main.c:154
            if (sizeEndp7LoggingBuff + logLen <= capacityEndp7LoggingBuff) {
    1370:	f4d740e3          	blt	a4,a3,12b0 <SERDES_IRQHandler+0x5e>
/home/ju/HydraDancer/enumeration/firmware/src/main.c:155
                memcpy(endp7LoggingBuff + sizeEndp7LoggingBuff, serdesDmaAddr, logLen);
    1374:	8101a503          	lw	a0,-2032(gp) # 20000140 <endp7LoggingBuff>
    1378:	00090593          	mv	a1,s2
    137c:	953e                	add	a0,a0,a5
    137e:	3de010ef          	jal	ra,275c <memcpy>
/home/ju/HydraDancer/enumeration/firmware/src/main.c:156
                sizeEndp7LoggingBuff += logLen;
    1382:	8721d783          	lhu	a5,-1934(gp) # 200001a2 <sizeEndp7LoggingBuff>
    1386:	943e                	add	s0,s0,a5
    1388:	86819923          	sh	s0,-1934(gp) # 200001a2 <sizeEndp7LoggingBuff>
    138c:	b715                	j	12b0 <SERDES_IRQHandler+0x5e>
/home/ju/HydraDancer/enumeration/firmware/src/main.c:194
}
    138e:	4432                	lw	s0,12(sp)
/home/ju/HydraDancer/enumeration/firmware/src/main.c:191
        SerDes_ClearIT(ALL_INT_FLG);
    1390:	4000b7b7          	lui	a5,0x4000b
    1394:	02f00713          	li	a4,47
    1398:	c798                	sw	a4,8(a5)
/home/ju/HydraDancer/enumeration/firmware/src/main.c:194
}
    139a:	44a2                	lw	s1,8(sp)
    139c:	4912                	lw	s2,4(sp)
    139e:	0141                	addi	sp,sp,16
    13a0:	30200073          	mret
/home/ju/HydraDancer/enumeration/firmware/src/main.c:191
        SerDes_ClearIT(ALL_INT_FLG);
    13a4:	4000b7b7          	lui	a5,0x4000b
    13a8:	02f00713          	li	a4,47
    13ac:	c798                	sw	a4,8(a5)
/home/ju/HydraDancer/enumeration/firmware/src/main.c:192
        break;
    13ae:	30200073          	mret

000013b2 <HSPI_IRQHandler>:
HSPI_IRQHandler():
/home/ju/HydraDancer/enumeration/firmware/src/main.c:206
 *
 * @return None
 */
__attribute__((interrupt("WCH-Interrupt-fast"))) void
HSPI_IRQHandler(void)
{
    13b2:	1141                	addi	sp,sp,-16
    13b4:	c622                	sw	s0,12(sp)
    13b6:	c426                	sw	s1,8(sp)
    13b8:	c24a                	sw	s2,4(sp)
/home/ju/HydraDancer/enumeration/firmware/src/main.c:217
    uint8_t bbioRetCode = 0;

    uint8_t hspiRtxStatus;
    uint8_t *hspiRxBuffer;

    switch (R8_HSPI_INT_FLAG & HSPI_INT_FLAG) {
    13ba:	400066b7          	lui	a3,0x40006
    13be:	0286c783          	lbu	a5,40(a3) # 40006028 <_dmadata_end+0x1ffd2e28>
    13c2:	4709                	li	a4,2
    13c4:	8bad                	andi	a5,a5,11
    13c6:	06e78d63          	beq	a5,a4,1440 <HSPI_IRQHandler+0x8e>
    13ca:	00f77d63          	bgeu	a4,a5,13e4 <HSPI_IRQHandler+0x32>
    13ce:	4721                	li	a4,8
    13d0:	04e79663          	bne	a5,a4,141c <HSPI_IRQHandler+0x6a>
/home/ju/HydraDancer/enumeration/firmware/src/main.c:266
        break;
    case RB_HSPI_IF_FIFO_OV:
        R8_HSPI_INT_FLAG = RB_HSPI_IF_FIFO_OV;
        break;
    case RB_HSPI_IF_B_DONE:
        R8_HSPI_INT_FLAG = RB_HSPI_IF_B_DONE;
    13d4:	02f68423          	sb	a5,40(a3)
/home/ju/HydraDancer/enumeration/firmware/src/main.c:273
    default:
        R8_HSPI_INT_FLAG = R8_HSPI_INT_FLAG & HSPI_INT_FLAG;
        log_to_evaluator("ERROR: HSPI_IRQHandler() switch hits default\r\n");
        break;
    }
}
    13d8:	4432                	lw	s0,12(sp)
    13da:	44a2                	lw	s1,8(sp)
    13dc:	4912                	lw	s2,4(sp)
    13de:	0141                	addi	sp,sp,16
    13e0:	30200073          	mret
    13e4:	4705                	li	a4,1
    13e6:	02e79b63          	bne	a5,a4,141c <HSPI_IRQHandler+0x6a>
/home/ju/HydraDancer/enumeration/firmware/src/main.c:219
        hspiRtxStatus = hspi_get_rtx_status();
    13ea:	3985                	jal	105a <hspi_get_rtx_status>
/home/ju/HydraDancer/enumeration/firmware/src/main.c:220
        if (hspiRtxStatus) {
    13ec:	cd09                	beqz	a0,1406 <HSPI_IRQHandler+0x54>
/home/ju/HydraDancer/enumeration/firmware/src/main.c:221
            log_to_evaluator("[Interrupt HSPI]   Error transmitting: %s\r\n", hspiRtxStatus&RB_HSPI_CRC_ERR? "CRC_ERR" : "NUM_MIS");
    13ee:	8909                	andi	a0,a0,2
    13f0:	0e051963          	bnez	a0,14e2 <HSPI_IRQHandler+0x130>
    13f4:	000045b7          	lui	a1,0x4
    13f8:	e2858593          	addi	a1,a1,-472 # 3e28 <_sbrk+0x330>
/home/ju/HydraDancer/enumeration/firmware/src/main.c:221 (discriminator 4)
    13fc:	00004537          	lui	a0,0x4
    1400:	e3050513          	addi	a0,a0,-464 # 3e30 <_sbrk+0x338>
    1404:	314d                	jal	10a6 <log_to_evaluator>
/home/ju/HydraDancer/enumeration/firmware/src/main.c:223
        R8_HSPI_INT_FLAG = RB_HSPI_IF_T_DONE;
    1406:	400067b7          	lui	a5,0x40006
    140a:	4705                	li	a4,1
    140c:	02e78423          	sb	a4,40(a5) # 40006028 <_dmadata_end+0x1ffd2e28>
/home/ju/HydraDancer/enumeration/firmware/src/main.c:273
}
    1410:	4432                	lw	s0,12(sp)
    1412:	44a2                	lw	s1,8(sp)
    1414:	4912                	lw	s2,4(sp)
    1416:	0141                	addi	sp,sp,16
    1418:	30200073          	mret
/home/ju/HydraDancer/enumeration/firmware/src/main.c:269
        R8_HSPI_INT_FLAG = R8_HSPI_INT_FLAG & HSPI_INT_FLAG;
    141c:	40006737          	lui	a4,0x40006
    1420:	02874783          	lbu	a5,40(a4) # 40006028 <_dmadata_end+0x1ffd2e28>
/home/ju/HydraDancer/enumeration/firmware/src/main.c:270
        log_to_evaluator("ERROR: HSPI_IRQHandler() switch hits default\r\n");
    1424:	00004537          	lui	a0,0x4
    1428:	ebc50513          	addi	a0,a0,-324 # 3ebc <_sbrk+0x3c4>
/home/ju/HydraDancer/enumeration/firmware/src/main.c:269
        R8_HSPI_INT_FLAG = R8_HSPI_INT_FLAG & HSPI_INT_FLAG;
    142c:	8bad                	andi	a5,a5,11
    142e:	02f70423          	sb	a5,40(a4)
/home/ju/HydraDancer/enumeration/firmware/src/main.c:270
        log_to_evaluator("ERROR: HSPI_IRQHandler() switch hits default\r\n");
    1432:	3995                	jal	10a6 <log_to_evaluator>
/home/ju/HydraDancer/enumeration/firmware/src/main.c:273
}
    1434:	4432                	lw	s0,12(sp)
    1436:	44a2                	lw	s1,8(sp)
    1438:	4912                	lw	s2,4(sp)
    143a:	0141                	addi	sp,sp,16
    143c:	30200073          	mret
/home/ju/HydraDancer/enumeration/firmware/src/main.c:226
        hspiRtxStatus = hspi_get_rtx_status();
    1440:	3929                	jal	105a <hspi_get_rtx_status>
    1442:	84aa                	mv	s1,a0
/home/ju/HydraDancer/enumeration/firmware/src/main.c:227
        hspiRxBuffer = hspi_get_buffer_rx();
    1444:	3189                	jal	1086 <hspi_get_buffer_rx>
    1446:	892a                	mv	s2,a0
/home/ju/HydraDancer/enumeration/firmware/src/main.c:228
        if (hspiRtxStatus) {
    1448:	cc89                	beqz	s1,1462 <HSPI_IRQHandler+0xb0>
/home/ju/HydraDancer/enumeration/firmware/src/main.c:229
            log_to_evaluator("[Interrupt HSPI]   Error receiving: %s\r\n", hspiRtxStatus&RB_HSPI_CRC_ERR? "CRC_ERR" : "NUM_MIS");
    144a:	0024f793          	andi	a5,s1,2
    144e:	e7c9                	bnez	a5,14d8 <HSPI_IRQHandler+0x126>
    1450:	000045b7          	lui	a1,0x4
    1454:	e2858593          	addi	a1,a1,-472 # 3e28 <_sbrk+0x330>
/home/ju/HydraDancer/enumeration/firmware/src/main.c:229 (discriminator 4)
    1458:	00004537          	lui	a0,0x4
    145c:	e5c50513          	addi	a0,a0,-420 # 3e5c <_sbrk+0x364>
    1460:	3199                	jal	10a6 <log_to_evaluator>
/home/ju/HydraDancer/enumeration/firmware/src/main.c:233
        if (currentStep == 0) {
    1462:	84a18413          	addi	s0,gp,-1974 # 2000017a <currentStep.4253>
    1466:	00044583          	lbu	a1,0(s0)
    146a:	cda1                	beqz	a1,14c2 <HSPI_IRQHandler+0x110>
/home/ju/HydraDancer/enumeration/firmware/src/main.c:238
        } else if (currentStep == 1) {
    146c:	4785                	li	a5,1
    146e:	06f58f63          	beq	a1,a5,14ec <HSPI_IRQHandler+0x13a>
/home/ju/HydraDancer/enumeration/firmware/src/main.c:244
            log_to_evaluator("ERROR: Bottom board HSPI Handler current step: %x\r\n", currentStep);
    1472:	00004537          	lui	a0,0x4
    1476:	e8850513          	addi	a0,a0,-376 # 3e88 <_sbrk+0x390>
    147a:	3135                	jal	10a6 <log_to_evaluator>
/home/ju/HydraDancer/enumeration/firmware/src/main.c:212
    uint8_t bbioRetCode = 0;
    147c:	4781                	li	a5,0
/home/ju/HydraDancer/enumeration/firmware/src/main.c:252
        if (hspiRtxStatus) {
    147e:	c489                	beqz	s1,1488 <HSPI_IRQHandler+0xd6>
/home/ju/HydraDancer/enumeration/firmware/src/main.c:253
            bbioRetCode ^= 0x40;
    1480:	0407c793          	xori	a5,a5,64
    1484:	0ff7f793          	andi	a5,a5,255
/home/ju/HydraDancer/enumeration/firmware/src/main.c:255
        serdesDmaAddr[0] = bbioRetCode;
    1488:	20022737          	lui	a4,0x20022
/home/ju/HydraDancer/enumeration/firmware/src/main.c:256
        SerDes_DMA_Tx_CFG((uint32_t)serdesDmaAddr, SERDES_DMA_LEN, SerdesMagicNumberRetCode);
    148c:	02222637          	lui	a2,0x2222
    1490:	00070513          	mv	a0,a4
    1494:	22260613          	addi	a2,a2,546 # 2222222 <_data_lma+0x221d6b2>
    1498:	20000593          	li	a1,512
/home/ju/HydraDancer/enumeration/firmware/src/main.c:255
        serdesDmaAddr[0] = bbioRetCode;
    149c:	00f70023          	sb	a5,0(a4) # 20022000 <serdesDmaAddr>
/home/ju/HydraDancer/enumeration/firmware/src/main.c:256
        SerDes_DMA_Tx_CFG((uint32_t)serdesDmaAddr, SERDES_DMA_LEN, SerdesMagicNumberRetCode);
    14a0:	ef6ff0ef          	jal	ra,b96 <SerDes_DMA_Tx_CFG>
/home/ju/HydraDancer/enumeration/firmware/src/main.c:257
        SerDes_DMA_Tx();
    14a4:	f08ff0ef          	jal	ra,bac <SerDes_DMA_Tx>
/home/ju/HydraDancer/enumeration/firmware/src/main.c:258
        SerDes_Wait_Txdone();
    14a8:	f1eff0ef          	jal	ra,bc6 <SerDes_Wait_Txdone>
/home/ju/HydraDancer/enumeration/firmware/src/main.c:260
        R8_HSPI_INT_FLAG = RB_HSPI_IF_R_DONE;
    14ac:	400067b7          	lui	a5,0x40006
    14b0:	4709                	li	a4,2
    14b2:	02e78423          	sb	a4,40(a5) # 40006028 <_dmadata_end+0x1ffd2e28>
/home/ju/HydraDancer/enumeration/firmware/src/main.c:273
}
    14b6:	4432                	lw	s0,12(sp)
    14b8:	44a2                	lw	s1,8(sp)
    14ba:	4912                	lw	s2,4(sp)
    14bc:	0141                	addi	sp,sp,16
    14be:	30200073          	mret
/home/ju/HydraDancer/enumeration/firmware/src/main.c:234
            bbioRetCode = bbio_command_decode(hspiRxBuffer);
    14c2:	854a                	mv	a0,s2
    14c4:	837ff0ef          	jal	ra,cfa <bbio_command_decode>
/home/ju/HydraDancer/enumeration/firmware/src/main.c:237
            currentStep ^= 1;
    14c8:	00044703          	lbu	a4,0(s0)
/home/ju/HydraDancer/enumeration/firmware/src/main.c:234
            bbioRetCode = bbio_command_decode(hspiRxBuffer);
    14cc:	87aa                	mv	a5,a0
/home/ju/HydraDancer/enumeration/firmware/src/main.c:237
            currentStep ^= 1;
    14ce:	00174713          	xori	a4,a4,1
    14d2:	00e40023          	sb	a4,0(s0)
    14d6:	b765                	j	147e <HSPI_IRQHandler+0xcc>
/home/ju/HydraDancer/enumeration/firmware/src/main.c:229
            log_to_evaluator("[Interrupt HSPI]   Error receiving: %s\r\n", hspiRtxStatus&RB_HSPI_CRC_ERR? "CRC_ERR" : "NUM_MIS");
    14d8:	000045b7          	lui	a1,0x4
    14dc:	e2058593          	addi	a1,a1,-480 # 3e20 <_sbrk+0x328>
    14e0:	bfa5                	j	1458 <HSPI_IRQHandler+0xa6>
/home/ju/HydraDancer/enumeration/firmware/src/main.c:221
            log_to_evaluator("[Interrupt HSPI]   Error transmitting: %s\r\n", hspiRtxStatus&RB_HSPI_CRC_ERR? "CRC_ERR" : "NUM_MIS");
    14e2:	000045b7          	lui	a1,0x4
    14e6:	e2058593          	addi	a1,a1,-480 # 3e20 <_sbrk+0x328>
    14ea:	bf09                	j	13fc <HSPI_IRQHandler+0x4a>
/home/ju/HydraDancer/enumeration/firmware/src/main.c:239
            bbioRetCode = bbio_command_handle(hspiRxBuffer);
    14ec:	854a                	mv	a0,s2
    14ee:	34b1                	jal	f3a <bbio_command_handle>
/home/ju/HydraDancer/enumeration/firmware/src/main.c:242
            currentStep ^= 1;
    14f0:	00044703          	lbu	a4,0(s0)
/home/ju/HydraDancer/enumeration/firmware/src/main.c:239
            bbioRetCode = bbio_command_handle(hspiRxBuffer);
    14f4:	87aa                	mv	a5,a0
/home/ju/HydraDancer/enumeration/firmware/src/main.c:242
            currentStep ^= 1;
    14f6:	00174713          	xori	a4,a4,1
    14fa:	00e40023          	sb	a4,0(s0)
    14fe:	b741                	j	147e <HSPI_IRQHandler+0xcc>

00001500 <USBHS_IRQHandler>:
USBHS_IRQHandler():
/home/ju/HydraDancer/enumeration/firmware/src/main.c:285
 *
 * @return None
 */
__attribute__((interrupt("WCH-Interrupt-fast"))) void
USBHS_IRQHandler(void)
{
    1500:	1101                	addi	sp,sp,-32
    1502:	ce22                	sw	s0,28(sp)
    1504:	cc26                	sw	s1,24(sp)
    1506:	ca4a                	sw	s2,20(sp)
    1508:	c84e                	sw	s3,16(sp)
    150a:	c652                	sw	s4,12(sp)
/home/ju/HydraDancer/enumeration/firmware/src/main.c:293

    static vuint8_t SetupReqType = 0;
    static vuint8_t SetupReq = 0;
    static vuint16_t SetupReqLen = 0;

    if (R8_USB_INT_FG & RB_USB_IF_ISOACT) {
    150c:	40009437          	lui	s0,0x40009
    1510:	00a44783          	lbu	a5,10(s0) # 4000900a <_dmadata_end+0x1ffd5e0a>
    1514:	0407f793          	andi	a5,a5,64
    1518:	cf89                	beqz	a5,1532 <USBHS_IRQHandler+0x32>
/home/ju/HydraDancer/enumeration/firmware/src/main.c:295
        /* Unused */
        R8_USB_INT_FG = RB_USB_IF_ISOACT;
    151a:	04000793          	li	a5,64
    151e:	00f40523          	sb	a5,10(s0)
/home/ju/HydraDancer/enumeration/firmware/src/main.c:487
        usb20_registers_init(g_usb20Speed);
        usb20_endpoints_init(g_usb20EpInMask, g_usb20EpOutMask);

        R8_USB_INT_FG = RB_USB_IF_BUSRST;
    }
}
    1522:	4472                	lw	s0,28(sp)
    1524:	44e2                	lw	s1,24(sp)
    1526:	4952                	lw	s2,20(sp)
    1528:	49c2                	lw	s3,16(sp)
    152a:	4a32                	lw	s4,12(sp)
    152c:	6105                	addi	sp,sp,32
    152e:	30200073          	mret
/home/ju/HydraDancer/enumeration/firmware/src/main.c:296
    } else if (R8_USB_INT_FG & RB_USB_IF_SETUOACT) { // Setup interrupt
    1532:	00a44783          	lbu	a5,10(s0)
    1536:	0207f793          	andi	a5,a5,32
    153a:	cfb1                	beqz	a5,1596 <USBHS_IRQHandler+0x96>
/home/ju/HydraDancer/enumeration/firmware/src/main.c:297
        SetupReqType = UsbSetupBuf->bRequestType;
    153c:	200236b7          	lui	a3,0x20023
/home/ju/HydraDancer/enumeration/firmware/src/main.c:298
        SetupReq = UsbSetupBuf->bRequest;
    1540:	00068613          	mv	a2,a3
/home/ju/HydraDancer/enumeration/firmware/src/main.c:297
        SetupReqType = UsbSetupBuf->bRequestType;
    1544:	0006c703          	lbu	a4,0(a3) # 20023000 <endp0RTbuff>
/home/ju/HydraDancer/enumeration/firmware/src/main.c:299
        SetupReqLen = UsbSetupBuf->wLength;
    1548:	00764783          	lbu	a5,7(a2)
    154c:	00664583          	lbu	a1,6(a2)
/home/ju/HydraDancer/enumeration/firmware/src/main.c:298
        SetupReq = UsbSetupBuf->bRequest;
    1550:	00164503          	lbu	a0,1(a2)
/home/ju/HydraDancer/enumeration/firmware/src/main.c:297
        SetupReqType = UsbSetupBuf->bRequestType;
    1554:	84618413          	addi	s0,gp,-1978 # 20000176 <SetupReqType.4268>
    1558:	00e40023          	sb	a4,0(s0)
/home/ju/HydraDancer/enumeration/firmware/src/main.c:298
        SetupReq = UsbSetupBuf->bRequest;
    155c:	84318713          	addi	a4,gp,-1981 # 20000173 <SetupReq.4269>
/home/ju/HydraDancer/enumeration/firmware/src/main.c:299
        SetupReqLen = UsbSetupBuf->wLength;
    1560:	07a2                	slli	a5,a5,0x8
/home/ju/HydraDancer/enumeration/firmware/src/main.c:298
        SetupReq = UsbSetupBuf->bRequest;
    1562:	00a70023          	sb	a0,0(a4)
/home/ju/HydraDancer/enumeration/firmware/src/main.c:299
        SetupReqLen = UsbSetupBuf->wLength;
    1566:	8fcd                	or	a5,a5,a1
    1568:	84418493          	addi	s1,gp,-1980 # 20000174 <SetupReqLen.4270>
    156c:	00f49023          	sh	a5,0(s1)
/home/ju/HydraDancer/enumeration/firmware/src/main.c:302
        if ((SetupReqType & USB_REQ_TYP_MASK) != USB_REQ_TYP_STANDARD) {
    1570:	00044783          	lbu	a5,0(s0)
    1574:	0607f793          	andi	a5,a5,96
    1578:	f7cd                	bnez	a5,1522 <USBHS_IRQHandler+0x22>
/home/ju/HydraDancer/enumeration/firmware/src/main.c:306
        switch(SetupReq) {
    157a:	00074783          	lbu	a5,0(a4)
    157e:	4729                	li	a4,10
    1580:	0ff7f793          	andi	a5,a5,255
    1584:	12f76263          	bltu	a4,a5,16a8 <USBHS_IRQHandler+0x1a8>
    1588:	6711                	lui	a4,0x4
    158a:	078a                	slli	a5,a5,0x2
    158c:	df470713          	addi	a4,a4,-524 # 3df4 <_sbrk+0x2fc>
    1590:	97ba                	add	a5,a5,a4
    1592:	439c                	lw	a5,0(a5)
    1594:	8782                	jr	a5
/home/ju/HydraDancer/enumeration/firmware/src/main.c:415
    } else if (R8_USB_INT_FG & RB_USB_IF_FIFOOV) {
    1596:	00a44783          	lbu	a5,10(s0)
    159a:	8bc1                	andi	a5,a5,16
    159c:	eb89                	bnez	a5,15ae <USBHS_IRQHandler+0xae>
/home/ju/HydraDancer/enumeration/firmware/src/main.c:418
    } else if (R8_USB_INT_FG & RB_USB_IF_SUSPEND) {
    159e:	00a44783          	lbu	a5,10(s0)
    15a2:	8b91                	andi	a5,a5,4
    15a4:	c385                	beqz	a5,15c4 <USBHS_IRQHandler+0xc4>
/home/ju/HydraDancer/enumeration/firmware/src/main.c:419
        R8_USB_INT_FG = RB_USB_IF_SUSPEND;
    15a6:	4791                	li	a5,4
    15a8:	00f40523          	sb	a5,10(s0)
    15ac:	bf9d                	j	1522 <USBHS_IRQHandler+0x22>
/home/ju/HydraDancer/enumeration/firmware/src/main.c:417
        R8_USB_INT_FG = RB_USB_IF_FIFOOV;
    15ae:	47c1                	li	a5,16
    15b0:	00f40523          	sb	a5,10(s0)
/home/ju/HydraDancer/enumeration/firmware/src/main.c:487
}
    15b4:	4472                	lw	s0,28(sp)
    15b6:	44e2                	lw	s1,24(sp)
    15b8:	4952                	lw	s2,20(sp)
    15ba:	49c2                	lw	s3,16(sp)
    15bc:	4a32                	lw	s4,12(sp)
    15be:	6105                	addi	sp,sp,32
    15c0:	30200073          	mret
/home/ju/HydraDancer/enumeration/firmware/src/main.c:420
    } else if (R8_USB_INT_FG & RB_USB_IF_TRANSFER) {
    15c4:	00a44783          	lbu	a5,10(s0)
    15c8:	8b89                	andi	a5,a5,2
    15ca:	c3b9                	beqz	a5,1610 <USBHS_IRQHandler+0x110>
/home/ju/HydraDancer/enumeration/firmware/src/main.c:421
        uint8_t endpNum = R8_USB_INT_ST & RB_DEV_ENDP_MASK;
    15cc:	00b44583          	lbu	a1,11(s0)
/home/ju/HydraDancer/enumeration/firmware/src/main.c:424
        if (g_isHost) {
    15d0:	84b1c783          	lbu	a5,-1973(gp) # 2000017b <g_isHost>
/home/ju/HydraDancer/enumeration/firmware/src/main.c:422
        uint8_t uisToken = (R8_USB_INT_ST & RB_DEV_TOKEN_MASK);
    15d4:	00b44503          	lbu	a0,11(s0)
/home/ju/HydraDancer/enumeration/firmware/src/main.c:421
        uint8_t endpNum = R8_USB_INT_ST & RB_DEV_ENDP_MASK;
    15d8:	89bd                	andi	a1,a1,15
/home/ju/HydraDancer/enumeration/firmware/src/main.c:422
        uint8_t uisToken = (R8_USB_INT_ST & RB_DEV_TOKEN_MASK);
    15da:	03057513          	andi	a0,a0,48
/home/ju/HydraDancer/enumeration/firmware/src/main.c:424
        if (g_isHost) {
    15de:	16078563          	beqz	a5,1748 <USBHS_IRQHandler+0x248>
/home/ju/HydraDancer/enumeration/firmware/src/main.c:425
            switch (endpNum) {
    15e2:	4785                	li	a5,1
    15e4:	22f58163          	beq	a1,a5,1806 <USBHS_IRQHandler+0x306>
    15e8:	16058763          	beqz	a1,1756 <USBHS_IRQHandler+0x256>
    15ec:	4799                	li	a5,6
    15ee:	20f58563          	beq	a1,a5,17f8 <USBHS_IRQHandler+0x2f8>
    15f2:	479d                	li	a5,7
    15f4:	18f59663          	bne	a1,a5,1780 <USBHS_IRQHandler+0x280>
/home/ju/HydraDancer/enumeration/firmware/src/main.c:445
                ep7_transmit_and_update(uisToken, (uint8_t **)&endp7LoggingBuff, &sizeEndp7LoggingBuff);
    15f8:	87218613          	addi	a2,gp,-1934 # 200001a2 <sizeEndp7LoggingBuff>
    15fc:	81018593          	addi	a1,gp,-2032 # 20000140 <endp7LoggingBuff>
    1600:	6ff000ef          	jal	ra,24fe <ep7_transmit_and_update>
/home/ju/HydraDancer/enumeration/firmware/src/main.c:480
        R8_USB_INT_FG = RB_USB_IF_TRANSFER; // Clear int flag
    1604:	400097b7          	lui	a5,0x40009
    1608:	4709                	li	a4,2
    160a:	00e78523          	sb	a4,10(a5) # 4000900a <_dmadata_end+0x1ffd5e0a>
    160e:	bf11                	j	1522 <USBHS_IRQHandler+0x22>
/home/ju/HydraDancer/enumeration/firmware/src/main.c:481
    } else if (R8_USB_INT_FG & RB_USB_IF_BUSRST) {
    1610:	00a44783          	lbu	a5,10(s0)
    1614:	8b85                	andi	a5,a5,1
    1616:	f00786e3          	beqz	a5,1522 <USBHS_IRQHandler+0x22>
/home/ju/HydraDancer/enumeration/firmware/src/main.c:482
        usb20_registers_init(g_usb20Speed);
    161a:	200017b7          	lui	a5,0x20001
    161e:	2007a503          	lw	a0,512(a5) # 20001200 <g_usb20Speed>
    1622:	2c75                	jal	18de <usb20_registers_init>
/home/ju/HydraDancer/enumeration/firmware/src/main.c:483
        usb20_endpoints_init(g_usb20EpInMask, g_usb20EpOutMask);
    1624:	200017b7          	lui	a5,0x20001
    1628:	1cc7a583          	lw	a1,460(a5) # 200011cc <g_usb20EpOutMask>
    162c:	200017b7          	lui	a5,0x20001
    1630:	1d07a503          	lw	a0,464(a5) # 200011d0 <g_usb20EpInMask>
    1634:	2639                	jal	1942 <usb20_endpoints_init>
/home/ju/HydraDancer/enumeration/firmware/src/main.c:485
        R8_USB_INT_FG = RB_USB_IF_BUSRST;
    1636:	4785                	li	a5,1
    1638:	00f40523          	sb	a5,10(s0)
    163c:	b5dd                	j	1522 <USBHS_IRQHandler+0x22>
/home/ju/HydraDancer/enumeration/firmware/src/main.c:368
            endp0RTbuff[0] = 1;
    163e:	4785                	li	a5,1
/home/ju/HydraDancer/enumeration/firmware/src/main.c:369
            bytesToWrite = 1;
    1640:	84818993          	addi	s3,gp,-1976 # 20000178 <bytesToWrite.4266>
/home/ju/HydraDancer/enumeration/firmware/src/main.c:368
            endp0RTbuff[0] = 1;
    1644:	00f68023          	sb	a5,0(a3)
/home/ju/HydraDancer/enumeration/firmware/src/main.c:369
            bytesToWrite = 1;
    1648:	4785                	li	a5,1
    164a:	00f99023          	sh	a5,0(s3)
/home/ju/HydraDancer/enumeration/firmware/src/main.c:370
            break;
    164e:	4705                	li	a4,1
/home/ju/HydraDancer/enumeration/firmware/src/main.c:398
        if (SetupReqLen < bytesToWrite) {
    1650:	0004d783          	lhu	a5,0(s1)
    1654:	00e7f663          	bgeu	a5,a4,1660 <USBHS_IRQHandler+0x160>
/home/ju/HydraDancer/enumeration/firmware/src/main.c:399
            bytesToWrite = SetupReqLen;
    1658:	0004d783          	lhu	a5,0(s1)
    165c:	00f99023          	sh	a5,0(s3)
/home/ju/HydraDancer/enumeration/firmware/src/main.c:403
        if (SetupReqType & 0x80) {
    1660:	00044503          	lbu	a0,0(s0)
/home/ju/HydraDancer/enumeration/firmware/src/main.c:406
        usb20_ep0_transceive_and_update(uisToken, &pDataToWrite, &bytesToWrite);
    1664:	84818613          	addi	a2,gp,-1976 # 20000178 <bytesToWrite.4266>
    1668:	84c18593          	addi	a1,gp,-1972 # 2000017c <pDataToWrite.4267>
/home/ju/HydraDancer/enumeration/firmware/src/main.c:404
            uisToken = UIS_TOKEN_IN;
    166c:	811d                	srli	a0,a0,0x7
/home/ju/HydraDancer/enumeration/firmware/src/main.c:406
        usb20_ep0_transceive_and_update(uisToken, &pDataToWrite, &bytesToWrite);
    166e:	0516                	slli	a0,a0,0x5
    1670:	181000ef          	jal	ra,1ff0 <usb20_ep0_transceive_and_update>
/home/ju/HydraDancer/enumeration/firmware/src/main.c:412
        R8_UEP0_TX_CTRL |= RB_UEP_T_TOG_1;
    1674:	400097b7          	lui	a5,0x40009
    1678:	0727c703          	lbu	a4,114(a5) # 40009072 <_dmadata_end+0x1ffd5e72>
    167c:	00876713          	ori	a4,a4,8
    1680:	06e78923          	sb	a4,114(a5)
/home/ju/HydraDancer/enumeration/firmware/src/main.c:414
        R8_USB_INT_FG = RB_USB_IF_SETUOACT;
    1684:	02000713          	li	a4,32
    1688:	00e78523          	sb	a4,10(a5)
/home/ju/HydraDancer/enumeration/firmware/src/main.c:487
}
    168c:	4472                	lw	s0,28(sp)
    168e:	44e2                	lw	s1,24(sp)
    1690:	4952                	lw	s2,20(sp)
    1692:	49c2                	lw	s3,16(sp)
    1694:	4a32                	lw	s4,12(sp)
    1696:	6105                	addi	sp,sp,32
    1698:	30200073          	mret
/home/ju/HydraDancer/enumeration/firmware/src/main.c:315
            switch (SetupReqType & USB_REQ_RECIP_MASK) {
    169c:	00044783          	lbu	a5,0(s0)
    16a0:	4709                	li	a4,2
    16a2:	8bfd                	andi	a5,a5,31
    16a4:	0ef76563          	bltu	a4,a5,178e <USBHS_IRQHandler+0x28e>
    16a8:	84818993          	addi	s3,gp,-1976 # 20000178 <bytesToWrite.4266>
    16ac:	0009d703          	lhu	a4,0(s3)
    16b0:	b745                	j	1650 <USBHS_IRQHandler+0x150>
/home/ju/HydraDancer/enumeration/firmware/src/main.c:373
            if (!g_isHost) {
    16b2:	84b1c783          	lbu	a5,-1973(gp) # 2000017b <g_isHost>
    16b6:	fbed                	bnez	a5,16a8 <USBHS_IRQHandler+0x1a8>
/home/ju/HydraDancer/enumeration/firmware/src/main.c:381
                log_to_evaluator("Device is supported by ToE \\o/\r\n");
    16b8:	00004537          	lui	a0,0x4
/home/ju/HydraDancer/enumeration/firmware/src/main.c:380
                g_doesToeSupportCurrentDevice = true;   /* From src/bbio.h */
    16bc:	4705                	li	a4,1
/home/ju/HydraDancer/enumeration/firmware/src/main.c:381
                log_to_evaluator("Device is supported by ToE \\o/\r\n");
    16be:	0e850513          	addi	a0,a0,232 # 40e8 <_sbrk+0x5f0>
/home/ju/HydraDancer/enumeration/firmware/src/main.c:380
                g_doesToeSupportCurrentDevice = true;   /* From src/bbio.h */
    16c2:	84e18123          	sb	a4,-1982(gp) # 20000172 <g_doesToeSupportCurrentDevice>
/home/ju/HydraDancer/enumeration/firmware/src/main.c:381
                log_to_evaluator("Device is supported by ToE \\o/\r\n");
    16c6:	84818993          	addi	s3,gp,-1976 # 20000178 <bytesToWrite.4266>
    16ca:	9ddff0ef          	jal	ra,10a6 <log_to_evaluator>
    16ce:	0009d703          	lhu	a4,0(s3)
    16d2:	bfbd                	j	1650 <USBHS_IRQHandler+0x150>
/home/ju/HydraDancer/enumeration/firmware/src/main.c:310
            bytesToWrite = 2;
    16d4:	84818993          	addi	s3,gp,-1976 # 20000178 <bytesToWrite.4266>
    16d8:	4789                	li	a5,2
/home/ju/HydraDancer/enumeration/firmware/src/main.c:308
            endp0RTbuff[0] = 0x00;
    16da:	00068023          	sb	zero,0(a3)
/home/ju/HydraDancer/enumeration/firmware/src/main.c:309
            endp0RTbuff[1] = 0x00;
    16de:	000600a3          	sb	zero,1(a2)
/home/ju/HydraDancer/enumeration/firmware/src/main.c:310
            bytesToWrite = 2;
    16e2:	00f99023          	sh	a5,0(s3)
/home/ju/HydraDancer/enumeration/firmware/src/main.c:313
            break;
    16e6:	4709                	li	a4,2
    16e8:	b7a5                	j	1650 <USBHS_IRQHandler+0x150>
/home/ju/HydraDancer/enumeration/firmware/src/main.c:361
            usb20_fill_buffer_with_descriptor(UsbSetupBuf->wValue, &pDataToWrite, &bytesToWrite);
    16ea:	00364783          	lbu	a5,3(a2)
    16ee:	00264503          	lbu	a0,2(a2)
    16f2:	07a2                	slli	a5,a5,0x8
    16f4:	84818613          	addi	a2,gp,-1976 # 20000178 <bytesToWrite.4266>
    16f8:	84c18593          	addi	a1,gp,-1972 # 2000017c <pDataToWrite.4267>
    16fc:	8d5d                	or	a0,a0,a5
    16fe:	84818993          	addi	s3,gp,-1976 # 20000178 <bytesToWrite.4266>
    1702:	059000ef          	jal	ra,1f5a <usb20_fill_buffer_with_descriptor>
/home/ju/HydraDancer/enumeration/firmware/src/main.c:362
            break;
    1706:	0009d703          	lhu	a4,0(s3)
    170a:	b799                	j	1650 <USBHS_IRQHandler+0x150>
/home/ju/HydraDancer/enumeration/firmware/src/main.c:332
            switch (SetupReqType & USB_REQ_RECIP_MASK) {
    170c:	00044783          	lbu	a5,0(s0)
    1710:	4705                	li	a4,1
    1712:	8bfd                	andi	a5,a5,31
    1714:	0ae78363          	beq	a5,a4,17ba <USBHS_IRQHandler+0x2ba>
    1718:	c7d1                	beqz	a5,17a4 <USBHS_IRQHandler+0x2a4>
    171a:	4709                	li	a4,2
    171c:	0ae78a63          	beq	a5,a4,17d0 <USBHS_IRQHandler+0x2d0>
/home/ju/HydraDancer/enumeration/firmware/src/main.c:352
                log_to_evaluator("ERROR: SETUP Interrupt USB_SET_FEATURE invalid recipient");
    1720:	00004537          	lui	a0,0x4
    1724:	0ac50513          	addi	a0,a0,172 # 40ac <_sbrk+0x5b4>
    1728:	84818993          	addi	s3,gp,-1976 # 20000178 <bytesToWrite.4266>
    172c:	97bff0ef          	jal	ra,10a6 <log_to_evaluator>
/home/ju/HydraDancer/enumeration/firmware/src/main.c:353
                break;
    1730:	0009d703          	lhu	a4,0(s3)
    1734:	bf31                	j	1650 <USBHS_IRQHandler+0x150>
/home/ju/HydraDancer/enumeration/firmware/src/main.c:387
            bytesToWrite = 1;
    1736:	84818993          	addi	s3,gp,-1976 # 20000178 <bytesToWrite.4266>
    173a:	4785                	li	a5,1
/home/ju/HydraDancer/enumeration/firmware/src/main.c:386
            endp0RTbuff[0] = 0;
    173c:	00068023          	sb	zero,0(a3)
/home/ju/HydraDancer/enumeration/firmware/src/main.c:387
            bytesToWrite = 1;
    1740:	00f99023          	sh	a5,0(s3)
/home/ju/HydraDancer/enumeration/firmware/src/main.c:388
            break;
    1744:	4705                	li	a4,1
    1746:	b729                	j	1650 <USBHS_IRQHandler+0x150>
/home/ju/HydraDancer/enumeration/firmware/src/main.c:452
            switch (endpNum) {
    1748:	c599                	beqz	a1,1756 <USBHS_IRQHandler+0x256>
    174a:	479d                	li	a5,7
    174c:	02b7ea63          	bltu	a5,a1,1780 <USBHS_IRQHandler+0x280>
/home/ju/HydraDancer/enumeration/firmware/src/main.c:472
                epX_handler_toe(uisToken, endpNum);
    1750:	2d7000ef          	jal	ra,2226 <epX_handler_toe>
/home/ju/HydraDancer/enumeration/firmware/src/main.c:473
                break;
    1754:	bd45                	j	1604 <USBHS_IRQHandler+0x104>
/home/ju/HydraDancer/enumeration/firmware/src/main.c:454
                if (SetupReq == USB_SET_ADDRESS) {
    1756:	8431c783          	lbu	a5,-1981(gp) # 20000173 <SetupReq.4269>
    175a:	4715                	li	a4,5
    175c:	08f71763          	bne	a4,a5,17ea <USBHS_IRQHandler+0x2ea>
/home/ju/HydraDancer/enumeration/firmware/src/main.c:455
                    R8_USB_DEV_AD = UsbSetupBuf->wValue.bw.bb1;
    1760:	200237b7          	lui	a5,0x20023
    1764:	0027c783          	lbu	a5,2(a5) # 20023002 <endp0RTbuff+0x2>
    1768:	00f401a3          	sb	a5,3(s0)
/home/ju/HydraDancer/enumeration/firmware/src/main.c:457
                    pDataToWrite = NULL;
    176c:	8401a623          	sw	zero,-1972(gp) # 2000017c <pDataToWrite.4267>
/home/ju/HydraDancer/enumeration/firmware/src/main.c:458
                    R16_UEP0_T_LEN = 0;
    1770:	06041823          	sh	zero,112(s0)
/home/ju/HydraDancer/enumeration/firmware/src/main.c:459
                    R8_UEP0_TX_CTRL = 0;
    1774:	06040923          	sb	zero,114(s0)
/home/ju/HydraDancer/enumeration/firmware/src/main.c:460
                    R8_UEP0_RX_CTRL = UEP_R_RES_ACK | RB_UEP_R_TOG_1;
    1778:	47a1                	li	a5,8
    177a:	06f409a3          	sb	a5,115(s0)
    177e:	b559                	j	1604 <USBHS_IRQHandler+0x104>
/home/ju/HydraDancer/enumeration/firmware/src/main.c:475
                log_to_evaluator("ERROR: USBHS_IRQHandler() endpoint requested (%d) has no handler associated\r\n", endpNum);
    1780:	00004537          	lui	a0,0x4
    1784:	10c50513          	addi	a0,a0,268 # 410c <_sbrk+0x614>
    1788:	91fff0ef          	jal	ra,10a6 <log_to_evaluator>
/home/ju/HydraDancer/enumeration/firmware/src/main.c:476
                break;
    178c:	bda5                	j	1604 <USBHS_IRQHandler+0x104>
/home/ju/HydraDancer/enumeration/firmware/src/main.c:327
                log_to_evaluator("ERROR: SETUP Interrupt USB_CLEAR_FEATURE invalid recipient");
    178e:	00004537          	lui	a0,0x4
    1792:	f9850513          	addi	a0,a0,-104 # 3f98 <_sbrk+0x4a0>
    1796:	84818993          	addi	s3,gp,-1976 # 20000178 <bytesToWrite.4266>
    179a:	90dff0ef          	jal	ra,10a6 <log_to_evaluator>
/home/ju/HydraDancer/enumeration/firmware/src/main.c:328
                break;
    179e:	0009d703          	lhu	a4,0(s3)
    17a2:	b57d                	j	1650 <USBHS_IRQHandler+0x150>
/home/ju/HydraDancer/enumeration/firmware/src/main.c:335
                log_to_evaluator("ERROR: SETUP Interrupt USB_SET_FEATURE (toward device) unimplemented");
    17a4:	00004537          	lui	a0,0x4
    17a8:	fd450513          	addi	a0,a0,-44 # 3fd4 <_sbrk+0x4dc>
    17ac:	84818993          	addi	s3,gp,-1976 # 20000178 <bytesToWrite.4266>
    17b0:	8f7ff0ef          	jal	ra,10a6 <log_to_evaluator>
/home/ju/HydraDancer/enumeration/firmware/src/main.c:336
                break;
    17b4:	0009d703          	lhu	a4,0(s3)
    17b8:	bd61                	j	1650 <USBHS_IRQHandler+0x150>
/home/ju/HydraDancer/enumeration/firmware/src/main.c:339
                log_to_evaluator("ERROR: SETUP Interrupt USB_SET_FEATURE (toward interface) unimplemented");
    17ba:	00004537          	lui	a0,0x4
    17be:	01c50513          	addi	a0,a0,28 # 401c <_sbrk+0x524>
    17c2:	84818993          	addi	s3,gp,-1976 # 20000178 <bytesToWrite.4266>
    17c6:	8e1ff0ef          	jal	ra,10a6 <log_to_evaluator>
/home/ju/HydraDancer/enumeration/firmware/src/main.c:340
                break;
    17ca:	0009d703          	lhu	a4,0(s3)
    17ce:	b549                	j	1650 <USBHS_IRQHandler+0x150>
/home/ju/HydraDancer/enumeration/firmware/src/main.c:342 (discriminator 1)
                switch (UsbSetupBuf->wValue.w) {
    17d0:	00364783          	lbu	a5,3(a2)
    17d4:	00264503          	lbu	a0,2(a2)
    17d8:	07a2                	slli	a5,a5,0x8
    17da:	8fc9                	or	a5,a5,a0
    17dc:	ef85                	bnez	a5,1814 <USBHS_IRQHandler+0x314>
/home/ju/HydraDancer/enumeration/firmware/src/main.c:344
                    usb20_endpoint_halt(UsbSetupBuf->wValue.bw.bb1);
    17de:	84818993          	addi	s3,gp,-1976 # 20000178 <bytesToWrite.4266>
    17e2:	2da9                	jal	1e3c <usb20_endpoint_halt>
/home/ju/HydraDancer/enumeration/firmware/src/main.c:345
                    break;
    17e4:	0009d703          	lhu	a4,0(s3)
    17e8:	b5a5                	j	1650 <USBHS_IRQHandler+0x150>
/home/ju/HydraDancer/enumeration/firmware/src/main.c:462
                    usb20_ep0_transceive_and_update(uisToken, &pDataToWrite, &bytesToWrite);
    17ea:	84818613          	addi	a2,gp,-1976 # 20000178 <bytesToWrite.4266>
    17ee:	84c18593          	addi	a1,gp,-1972 # 2000017c <pDataToWrite.4267>
    17f2:	7fe000ef          	jal	ra,1ff0 <usb20_ep0_transceive_and_update>
    17f6:	b539                	j	1604 <USBHS_IRQHandler+0x104>
/home/ju/HydraDancer/enumeration/firmware/src/main.c:442
                ep6_transmit_and_update(uisToken, (uint8_t **)&endp6LoggingBuff, &sizeEndp6LoggingBuff);
    17f8:	87018613          	addi	a2,gp,-1936 # 200001a0 <sizeEndp6LoggingBuff>
    17fc:	80c18593          	addi	a1,gp,-2036 # 2000013c <endp6LoggingBuff>
    1800:	43d000ef          	jal	ra,243c <ep6_transmit_and_update>
/home/ju/HydraDancer/enumeration/firmware/src/main.c:443
                break;
    1804:	b501                	j	1604 <USBHS_IRQHandler+0x104>
/home/ju/HydraDancer/enumeration/firmware/src/main.c:439
                ep1_transceive_and_update_host(uisToken, (uint8_t **)&endp1Buff, &sizeEndp1Buff);
    1806:	85018613          	addi	a2,gp,-1968 # 20000180 <sizeEndp1Buff>
    180a:	80418593          	addi	a1,gp,-2044 # 20000134 <endp1Buff>
    180e:	18d000ef          	jal	ra,219a <ep1_transceive_and_update_host>
/home/ju/HydraDancer/enumeration/firmware/src/main.c:440
                break;
    1812:	bbcd                	j	1604 <USBHS_IRQHandler+0x104>
/home/ju/HydraDancer/enumeration/firmware/src/main.c:347
                    log_to_evaluator("ERROR: SETUP Interrupt USB_SET_FEATURE (toward endpoint) unimplemented");
    1814:	00004537          	lui	a0,0x4
    1818:	06450513          	addi	a0,a0,100 # 4064 <_sbrk+0x56c>
    181c:	84818993          	addi	s3,gp,-1976 # 20000178 <bytesToWrite.4266>
    1820:	887ff0ef          	jal	ra,10a6 <log_to_evaluator>
/home/ju/HydraDancer/enumeration/firmware/src/main.c:348
                    break;
    1824:	0009d703          	lhu	a4,0(s3)
    1828:	b525                	j	1650 <USBHS_IRQHandler+0x150>

0000182a <HardFault_Handler>:
HardFault_Handler():
/home/ju/HydraDancer/enumeration/firmware/src/main.c:500
 * @return  none
 */
__attribute__((interrupt("WCH-Interrupt-fast"))) void
HardFault_Handler(void)
{
    cprintf("HardFault\r\n");
    182a:	00004537          	lui	a0,0x4
    182e:	eec50513          	addi	a0,a0,-276 # 3eec <_sbrk+0x3f4>
    1832:	dd9fe0ef          	jal	ra,60a <cprintf>
/home/ju/HydraDancer/enumeration/firmware/src/main.c:501
    cprintf(" SP=0x%08X\r\n", __get_SP());
    1836:	945fe0ef          	jal	ra,17a <__get_SP>
    183a:	85aa                	mv	a1,a0
    183c:	00004537          	lui	a0,0x4
    1840:	ef850513          	addi	a0,a0,-264 # 3ef8 <_sbrk+0x400>
    1844:	dc7fe0ef          	jal	ra,60a <cprintf>
/home/ju/HydraDancer/enumeration/firmware/src/main.c:502
    cprintf(" MIE=0x%08X\r\n", __get_MIE());
    1848:	927fe0ef          	jal	ra,16e <__get_MIE>
    184c:	85aa                	mv	a1,a0
    184e:	00004537          	lui	a0,0x4
    1852:	f0850513          	addi	a0,a0,-248 # 3f08 <_sbrk+0x410>
    1856:	db5fe0ef          	jal	ra,60a <cprintf>
/home/ju/HydraDancer/enumeration/firmware/src/main.c:503
    cprintf(" MSTATUS=0x%08X\r\n", __get_MSTATUS());
    185a:	90ffe0ef          	jal	ra,168 <__get_MSTATUS>
    185e:	85aa                	mv	a1,a0
    1860:	00004537          	lui	a0,0x4
    1864:	f1850513          	addi	a0,a0,-232 # 3f18 <_sbrk+0x420>
    1868:	da3fe0ef          	jal	ra,60a <cprintf>
/home/ju/HydraDancer/enumeration/firmware/src/main.c:504
    cprintf(" MCAUSE=0x%08X\r\n", __get_MCAUSE());
    186c:	909fe0ef          	jal	ra,174 <__get_MCAUSE>
    1870:	85aa                	mv	a1,a0
    1872:	00004537          	lui	a0,0x4
    1876:	f2c50513          	addi	a0,a0,-212 # 3f2c <_sbrk+0x434>
    187a:	d91fe0ef          	jal	ra,60a <cprintf>
/home/ju/HydraDancer/enumeration/firmware/src/main.c:505
    bsp_wait_ms_delay(1000000);
    187e:	000f4537          	lui	a0,0xf4
    1882:	24050513          	addi	a0,a0,576 # f4240 <_data_lma+0xef6d0>
    1886:	9b9fe0ef          	jal	ra,23e <bsp_wait_ms_delay>
/home/ju/HydraDancer/enumeration/firmware/src/main.c:506
}
    188a:	30200073          	mret

0000188e <serdes_vlog>:
serdes_vlog():
/home/ju/HydraDancer/enumeration/firmware/src/serdes.c:71
 *
 * @return  None
 */
void
serdes_vlog(const char *fmt, va_list vargs)
{
    188e:	1141                	addi	sp,sp,-16
    1890:	c422                	sw	s0,8(sp)
/home/ju/HydraDancer/enumeration/firmware/src/serdes.c:76
    // Critical section, if we print something (outside of an interrrupt) and an
    // interrupt is called and do a print, then the first print is partially
    // overwritten
    // bsp_disable_interrupt();
    SerDes_DMA_Tx_CFG((uint32_t)serdesDmaAddr, SERDES_DMA_LEN, SerdesMagicNumberLog);
    1892:	01111637          	lui	a2,0x1111
    1896:	20022437          	lui	s0,0x20022
/home/ju/HydraDancer/enumeration/firmware/src/serdes.c:71
{
    189a:	c226                	sw	s1,4(sp)
    189c:	c04a                	sw	s2,0(sp)
    189e:	84aa                	mv	s1,a0
    18a0:	892e                	mv	s2,a1
/home/ju/HydraDancer/enumeration/firmware/src/serdes.c:76
    SerDes_DMA_Tx_CFG((uint32_t)serdesDmaAddr, SERDES_DMA_LEN, SerdesMagicNumberLog);
    18a2:	00040513          	mv	a0,s0
    18a6:	20000593          	li	a1,512
    18aa:	11160613          	addi	a2,a2,273 # 1111111 <_data_lma+0x110c5a1>
/home/ju/HydraDancer/enumeration/firmware/src/serdes.c:71
{
    18ae:	c606                	sw	ra,12(sp)
/home/ju/HydraDancer/enumeration/firmware/src/serdes.c:76
    SerDes_DMA_Tx_CFG((uint32_t)serdesDmaAddr, SERDES_DMA_LEN, SerdesMagicNumberLog);
    18b0:	ae6ff0ef          	jal	ra,b96 <SerDes_DMA_Tx_CFG>
/home/ju/HydraDancer/enumeration/firmware/src/serdes.c:78

    vsnprintf((char *)serdesDmaAddr, SERDES_DMA_LEN, fmt, vargs);
    18b4:	86ca                	mv	a3,s2
    18b6:	8626                	mv	a2,s1
    18b8:	20000593          	li	a1,512
    18bc:	00040513          	mv	a0,s0
    18c0:	7cb000ef          	jal	ra,288a <vsniprintf>
/home/ju/HydraDancer/enumeration/firmware/src/serdes.c:80

    SerDes_DMA_Tx();
    18c4:	ae8ff0ef          	jal	ra,bac <SerDes_DMA_Tx>
/home/ju/HydraDancer/enumeration/firmware/src/serdes.c:81
    SerDes_Wait_Txdone();
    18c8:	afeff0ef          	jal	ra,bc6 <SerDes_Wait_Txdone>
/home/ju/HydraDancer/enumeration/firmware/src/serdes.c:84
    serdes_wait_for_tx(SDS_PLL_FREQ_1_20G);
    // bsp_enable_interrupt();
}
    18cc:	4422                	lw	s0,8(sp)
    18ce:	40b2                	lw	ra,12(sp)
    18d0:	4492                	lw	s1,4(sp)
    18d2:	4902                	lw	s2,0(sp)
serdes_wait_for_tx():
/home/ju/HydraDancer/enumeration/firmware/src/serdes.c:34
    bsp_wait_us_delay((sizeTransmission*20)/1200 + 20);
    18d4:	06000513          	li	a0,96
serdes_vlog():
/home/ju/HydraDancer/enumeration/firmware/src/serdes.c:84
}
    18d8:	0141                	addi	sp,sp,16
serdes_wait_for_tx():
/home/ju/HydraDancer/enumeration/firmware/src/serdes.c:34
    bsp_wait_us_delay((sizeTransmission*20)/1200 + 20);
    18da:	8f7fe06f          	j	1d0 <bsp_wait_us_delay>

000018de <usb20_registers_init>:
usb20_registers_init():
/home/ju/HydraDancer/enumeration/firmware/src/usb20.c:63
 * @return  None
 */
void
usb20_registers_init(enum Speed sp)
{
    R32_USB_CONTROL = 0;
    18de:	400097b7          	lui	a5,0x40009
    18e2:	0007a023          	sw	zero,0(a5) # 40009000 <_dmadata_end+0x1ffd5e00>
PFIC_EnableIRQ():
/home/ju/HydraDancer/enumeration/firmware/../../wch-ch56x-bsp/rvmsis/core_riscv.h:103
    18e6:	e000e737          	lui	a4,0xe000e
    18ea:	020006b7          	lui	a3,0x2000
    18ee:	10d72023          	sw	a3,256(a4) # e000e100 <_dmadata_end+0xbffdaf00>
    18f2:	002006b7          	lui	a3,0x200
    18f6:	10d72023          	sw	a3,256(a4)
usb20_registers_init():
/home/ju/HydraDancer/enumeration/firmware/src/usb20.c:68
    PFIC_EnableIRQ(USBHS_IRQn);
    PFIC_EnableIRQ(LINK_IRQn);

    /* Init as device according to the doc (p. 105) */
    R8_USB_CTRL = 0;
    18fa:	00078023          	sb	zero,0(a5)
/home/ju/HydraDancer/enumeration/firmware/src/usb20.c:69
    R8_USB_DEV_AD = 0;
    18fe:	000781a3          	sb	zero,3(a5)
/home/ju/HydraDancer/enumeration/firmware/src/usb20.c:70
    R8_USB_INT_FG = 0;
    1902:	00078523          	sb	zero,10(a5)
/home/ju/HydraDancer/enumeration/firmware/src/usb20.c:72

    R8_USB_CTRL |= (RB_USB_INT_BUSY | RB_USB_DMA_EN);
    1906:	0007c703          	lbu	a4,0(a5)
    190a:	00976713          	ori	a4,a4,9
    190e:	00e78023          	sb	a4,0(a5)
/home/ju/HydraDancer/enumeration/firmware/src/usb20.c:73
    R8_USB_CTRL |= RB_DEV_PU_EN;
    1912:	0007c703          	lbu	a4,0(a5)
    1916:	01076713          	ori	a4,a4,16
    191a:	00e78023          	sb	a4,0(a5)
/home/ju/HydraDancer/enumeration/firmware/src/usb20.c:74
    R8_USB_CTRL |= sp;
    191e:	0007c703          	lbu	a4,0(a5)
    1922:	8d59                	or	a0,a0,a4
    1924:	0ff57513          	andi	a0,a0,255
    1928:	00a78023          	sb	a0,0(a5)
/home/ju/HydraDancer/enumeration/firmware/src/usb20.c:76

    R8_USB_INT_EN = RB_USB_IE_ISOACT | RB_USB_IE_SETUPACT | RB_USB_IE_FIFOOV
    192c:	07700713          	li	a4,119
    1930:	00e78123          	sb	a4,2(a5)
/home/ju/HydraDancer/enumeration/firmware/src/usb20.c:78
                    | RB_USB_IE_SUSPEND | RB_USB_IE_TRANS | RB_USB_IE_BUSRST;
}
    1934:	8082                	ret

00001936 <usb20_registers_deinit>:
usb20_registers_deinit():
/home/ju/HydraDancer/enumeration/firmware/src/usb20.c:90
 * @return  None
 */
void
usb20_registers_deinit(void)
{
    R8_USB_CTRL = RB_USB_CLR_ALL | RB_USB_RESET_SIE;
    1936:	400097b7          	lui	a5,0x40009
    193a:	4719                	li	a4,6
    193c:	00e78023          	sb	a4,0(a5) # 40009000 <_dmadata_end+0x1ffd5e00>
/home/ju/HydraDancer/enumeration/firmware/src/usb20.c:91
}
    1940:	8082                	ret

00001942 <usb20_endpoints_init>:
usb20_endpoints_init():
/home/ju/HydraDancer/enumeration/firmware/src/usb20.c:103
 * @return  None
 */
void
usb20_endpoints_init(enum Endpoint endpointsInMask, enum Endpoint endpointsOutMask)
{
    R8_UEP4_1_MOD = 0;
    1942:	400097b7          	lui	a5,0x40009
    1946:	00078823          	sb	zero,16(a5) # 40009010 <_dmadata_end+0x1ffd5e10>
/home/ju/HydraDancer/enumeration/firmware/src/usb20.c:104
    R8_UEP2_3_MOD = 0;
    194a:	000788a3          	sb	zero,17(a5)
/home/ju/HydraDancer/enumeration/firmware/src/usb20.c:105
    R8_UEP5_6_MOD = 0;
    194e:	00078923          	sb	zero,18(a5)
/home/ju/HydraDancer/enumeration/firmware/src/usb20.c:106
    R8_UEP7_MOD   = 0;
    1952:	000789a3          	sb	zero,19(a5)
/home/ju/HydraDancer/enumeration/firmware/src/usb20.c:108

    R16_UEP0_MAX_LEN = U20_UEP0_MAXSIZE;
    1956:	04000713          	li	a4,64
    195a:	04e79823          	sh	a4,80(a5)
/home/ju/HydraDancer/enumeration/firmware/src/usb20.c:109
    R16_UEP1_MAX_LEN = U20_MAXPACKET_LEN;
    195e:	20000713          	li	a4,512
    1962:	04e79a23          	sh	a4,84(a5)
/home/ju/HydraDancer/enumeration/firmware/src/usb20.c:110
    R16_UEP2_MAX_LEN = U20_MAXPACKET_LEN;
    1966:	04e79c23          	sh	a4,88(a5)
/home/ju/HydraDancer/enumeration/firmware/src/usb20.c:111
    R16_UEP3_MAX_LEN = U20_MAXPACKET_LEN;
    196a:	04e79e23          	sh	a4,92(a5)
/home/ju/HydraDancer/enumeration/firmware/src/usb20.c:112
    R16_UEP4_MAX_LEN = U20_MAXPACKET_LEN;
    196e:	06e79023          	sh	a4,96(a5)
/home/ju/HydraDancer/enumeration/firmware/src/usb20.c:113
    R16_UEP5_MAX_LEN = U20_MAXPACKET_LEN;
    1972:	06e79223          	sh	a4,100(a5)
/home/ju/HydraDancer/enumeration/firmware/src/usb20.c:114
    R16_UEP6_MAX_LEN = U20_MAXPACKET_LEN;
    1976:	06e79423          	sh	a4,104(a5)
/home/ju/HydraDancer/enumeration/firmware/src/usb20.c:115
    R16_UEP7_MAX_LEN = U20_MAXPACKET_LEN;
    197a:	06e79623          	sh	a4,108(a5)
/home/ju/HydraDancer/enumeration/firmware/src/usb20.c:117

    R32_UEP0_RT_DMA = (uint32_t)(uint8_t *)endp0RTbuff;
    197e:	20023737          	lui	a4,0x20023
    1982:	00070713          	mv	a4,a4
    1986:	cbd8                	sw	a4,20(a5)
/home/ju/HydraDancer/enumeration/firmware/src/usb20.c:118
    R32_UEP1_TX_DMA = (uint32_t)(uint8_t *)endp1Tbuff;
    1988:	2002f737          	lui	a4,0x2002f
    198c:	20070713          	addi	a4,a4,512 # 2002f200 <endp1Tbuff>
    1990:	dbd8                	sw	a4,52(a5)
/home/ju/HydraDancer/enumeration/firmware/src/usb20.c:119
    R32_UEP1_RX_DMA = (uint32_t)(uint8_t *)endp1Rbuff;
    1992:	20030737          	lui	a4,0x20030
    1996:	20070713          	addi	a4,a4,512 # 20030200 <endp1Rbuff>
    199a:	cf98                	sw	a4,24(a5)
/home/ju/HydraDancer/enumeration/firmware/src/usb20.c:120
    R32_UEP2_TX_DMA = (uint32_t)(uint8_t *)endp2Tbuff;
    199c:	2002d737          	lui	a4,0x2002d
    19a0:	20070713          	addi	a4,a4,512 # 2002d200 <endp2Tbuff>
    19a4:	df98                	sw	a4,56(a5)
/home/ju/HydraDancer/enumeration/firmware/src/usb20.c:121
    R32_UEP2_RX_DMA = (uint32_t)(uint8_t *)endp2Rbuff;
    19a6:	2002e737          	lui	a4,0x2002e
    19aa:	20070713          	addi	a4,a4,512 # 2002e200 <endp2Rbuff>
    19ae:	cfd8                	sw	a4,28(a5)
/home/ju/HydraDancer/enumeration/firmware/src/usb20.c:122
    R32_UEP3_TX_DMA = (uint32_t)(uint8_t *)endp3Tbuff;
    19b0:	2002b737          	lui	a4,0x2002b
    19b4:	20070713          	addi	a4,a4,512 # 2002b200 <endp3Tbuff>
    19b8:	dfd8                	sw	a4,60(a5)
/home/ju/HydraDancer/enumeration/firmware/src/usb20.c:123
    R32_UEP3_RX_DMA = (uint32_t)(uint8_t *)endp3Rbuff;
    19ba:	2002c737          	lui	a4,0x2002c
    19be:	20070713          	addi	a4,a4,512 # 2002c200 <endp3Rbuff>
    19c2:	d398                	sw	a4,32(a5)
/home/ju/HydraDancer/enumeration/firmware/src/usb20.c:124
    R32_UEP4_TX_DMA = (uint32_t)(uint8_t *)endp4Tbuff;
    19c4:	20029737          	lui	a4,0x20029
    19c8:	20070713          	addi	a4,a4,512 # 20029200 <endp4Tbuff>
    19cc:	c3b8                	sw	a4,64(a5)
/home/ju/HydraDancer/enumeration/firmware/src/usb20.c:125
    R32_UEP4_RX_DMA = (uint32_t)(uint8_t *)endp4Rbuff;
    19ce:	2002a737          	lui	a4,0x2002a
    19d2:	20070713          	addi	a4,a4,512 # 2002a200 <endp4Rbuff>
    19d6:	d3d8                	sw	a4,36(a5)
/home/ju/HydraDancer/enumeration/firmware/src/usb20.c:126
    R32_UEP5_TX_DMA = (uint32_t)(uint8_t *)endp5Tbuff;
    19d8:	20027737          	lui	a4,0x20027
    19dc:	20070713          	addi	a4,a4,512 # 20027200 <endp5Tbuff>
    19e0:	c3f8                	sw	a4,68(a5)
/home/ju/HydraDancer/enumeration/firmware/src/usb20.c:127
    R32_UEP5_RX_DMA = (uint32_t)(uint8_t *)endp5Rbuff;
    19e2:	20028737          	lui	a4,0x20028
    19e6:	20070713          	addi	a4,a4,512 # 20028200 <endp5Rbuff>
    19ea:	d798                	sw	a4,40(a5)
/home/ju/HydraDancer/enumeration/firmware/src/usb20.c:128
    R32_UEP6_TX_DMA = (uint32_t)(uint8_t *)endp6Tbuff;
    19ec:	20025737          	lui	a4,0x20025
    19f0:	20070713          	addi	a4,a4,512 # 20025200 <endp6Tbuff>
    19f4:	c7b8                	sw	a4,72(a5)
/home/ju/HydraDancer/enumeration/firmware/src/usb20.c:129
    R32_UEP6_RX_DMA = (uint32_t)(uint8_t *)endp6Rbuff;
    19f6:	20026737          	lui	a4,0x20026
    19fa:	20070713          	addi	a4,a4,512 # 20026200 <endp6Rbuff>
    19fe:	d7d8                	sw	a4,44(a5)
/home/ju/HydraDancer/enumeration/firmware/src/usb20.c:130
    R32_UEP7_TX_DMA = (uint32_t)(uint8_t *)endp7Tbuff;
    1a00:	20023737          	lui	a4,0x20023
    1a04:	20070713          	addi	a4,a4,512 # 20023200 <endp7Tbuff>
    1a08:	c7f8                	sw	a4,76(a5)
/home/ju/HydraDancer/enumeration/firmware/src/usb20.c:131
    R32_UEP7_RX_DMA = (uint32_t)(uint8_t *)endp7Rbuff;
    1a0a:	20024737          	lui	a4,0x20024
    1a0e:	20070713          	addi	a4,a4,512 # 20024200 <endp7Rbuff>
    1a12:	db98                	sw	a4,48(a5)
/home/ju/HydraDancer/enumeration/firmware/src/usb20.c:133

    R16_UEP0_T_LEN = 0;
    1a14:	06079823          	sh	zero,112(a5)
/home/ju/HydraDancer/enumeration/firmware/src/usb20.c:134
    R8_UEP0_TX_CTRL = 0;
    1a18:	06078923          	sb	zero,114(a5)
/home/ju/HydraDancer/enumeration/firmware/src/usb20.c:135
    R8_UEP0_RX_CTRL = 0;
    1a1c:	060789a3          	sb	zero,115(a5)
/home/ju/HydraDancer/enumeration/firmware/src/usb20.c:138

    /* Endpoints IN */
    if (endpointsInMask & Ep1Mask) {
    1a20:	00257713          	andi	a4,a0,2
    1a24:	18070d63          	beqz	a4,1bbe <usb20_endpoints_init+0x27c>
/home/ju/HydraDancer/enumeration/firmware/src/usb20.c:139
        R8_UEP4_1_MOD |= RB_UEP1_TX_EN;
    1a28:	0107c703          	lbu	a4,16(a5)
    1a2c:	04076713          	ori	a4,a4,64
    1a30:	00e78823          	sb	a4,16(a5)
/home/ju/HydraDancer/enumeration/firmware/src/usb20.c:140
        R8_UEP1_TX_CTRL = UEP_T_RES_ACK | RB_UEP_T_TOG_0;
    1a34:	06078b23          	sb	zero,118(a5)
/home/ju/HydraDancer/enumeration/firmware/src/usb20.c:145
    } else {
        R8_UEP1_TX_CTRL = UEP_T_RES_NAK;
    }

    if (endpointsInMask & Ep2Mask) {
    1a38:	00457793          	andi	a5,a0,4
    1a3c:	18078863          	beqz	a5,1bcc <usb20_endpoints_init+0x28a>
/home/ju/HydraDancer/enumeration/firmware/src/usb20.c:146
        R8_UEP2_3_MOD |= RB_UEP2_TX_EN;
    1a40:	400097b7          	lui	a5,0x40009
    1a44:	0117c703          	lbu	a4,17(a5) # 40009011 <_dmadata_end+0x1ffd5e11>
    1a48:	00476713          	ori	a4,a4,4
    1a4c:	00e788a3          	sb	a4,17(a5)
/home/ju/HydraDancer/enumeration/firmware/src/usb20.c:147
        R8_UEP2_TX_CTRL = UEP_T_RES_ACK | RB_UEP_T_TOG_0;
    1a50:	06078d23          	sb	zero,122(a5)
/home/ju/HydraDancer/enumeration/firmware/src/usb20.c:152
    } else {
        R8_UEP2_TX_CTRL = UEP_T_RES_NAK;
    }

    if (endpointsInMask & Ep3Mask) {
    1a54:	00857793          	andi	a5,a0,8
    1a58:	18078363          	beqz	a5,1bde <usb20_endpoints_init+0x29c>
/home/ju/HydraDancer/enumeration/firmware/src/usb20.c:153
        R8_UEP2_3_MOD |= RB_UEP3_TX_EN;
    1a5c:	400097b7          	lui	a5,0x40009
    1a60:	0117c703          	lbu	a4,17(a5) # 40009011 <_dmadata_end+0x1ffd5e11>
    1a64:	04076713          	ori	a4,a4,64
    1a68:	00e788a3          	sb	a4,17(a5)
/home/ju/HydraDancer/enumeration/firmware/src/usb20.c:154
        R8_UEP3_TX_CTRL = UEP_T_RES_ACK | RB_UEP_T_TOG_0;
    1a6c:	06078f23          	sb	zero,126(a5)
/home/ju/HydraDancer/enumeration/firmware/src/usb20.c:159
    } else {
        R8_UEP3_TX_CTRL = UEP_T_RES_NAK;
    }

    if (endpointsInMask & Ep4Mask) {
    1a70:	01057793          	andi	a5,a0,16
    1a74:	16078e63          	beqz	a5,1bf0 <usb20_endpoints_init+0x2ae>
/home/ju/HydraDancer/enumeration/firmware/src/usb20.c:160
        R8_UEP4_1_MOD |= RB_UEP4_TX_EN;
    1a78:	400097b7          	lui	a5,0x40009
    1a7c:	0107c703          	lbu	a4,16(a5) # 40009010 <_dmadata_end+0x1ffd5e10>
    1a80:	00476713          	ori	a4,a4,4
    1a84:	00e78823          	sb	a4,16(a5)
/home/ju/HydraDancer/enumeration/firmware/src/usb20.c:161
        R8_UEP4_TX_CTRL = UEP_T_RES_ACK | RB_UEP_T_TOG_0;
    1a88:	08078123          	sb	zero,130(a5)
/home/ju/HydraDancer/enumeration/firmware/src/usb20.c:166
    } else {
        R8_UEP4_TX_CTRL = UEP_T_RES_NAK;
    }

    if (endpointsInMask & Ep5Mask) {
    1a8c:	02057793          	andi	a5,a0,32
    1a90:	16078963          	beqz	a5,1c02 <usb20_endpoints_init+0x2c0>
/home/ju/HydraDancer/enumeration/firmware/src/usb20.c:167
        R8_UEP5_6_MOD |= RB_UEP5_TX_EN;
    1a94:	400097b7          	lui	a5,0x40009
    1a98:	0127c703          	lbu	a4,18(a5) # 40009012 <_dmadata_end+0x1ffd5e12>
    1a9c:	00476713          	ori	a4,a4,4
    1aa0:	00e78923          	sb	a4,18(a5)
/home/ju/HydraDancer/enumeration/firmware/src/usb20.c:168
        R8_UEP5_TX_CTRL = UEP_T_RES_ACK | RB_UEP_T_TOG_0;
    1aa4:	08078323          	sb	zero,134(a5)
/home/ju/HydraDancer/enumeration/firmware/src/usb20.c:173
    } else {
        R8_UEP5_TX_CTRL = UEP_T_RES_NAK;
    }

    if (endpointsInMask & Ep6Mask) {
    1aa8:	04057793          	andi	a5,a0,64
    1aac:	16078463          	beqz	a5,1c14 <usb20_endpoints_init+0x2d2>
/home/ju/HydraDancer/enumeration/firmware/src/usb20.c:174
        R8_UEP5_6_MOD |= RB_UEP6_TX_EN;
    1ab0:	400097b7          	lui	a5,0x40009
    1ab4:	0127c703          	lbu	a4,18(a5) # 40009012 <_dmadata_end+0x1ffd5e12>
/home/ju/HydraDancer/enumeration/firmware/src/usb20.c:180
        R8_UEP6_TX_CTRL = UEP_T_RES_ACK | RB_UEP_T_TOG_0;
    } else {
        R8_UEP6_TX_CTRL = UEP_T_RES_NAK;
    }

    if (endpointsInMask & Ep7Mask) {
    1ab8:	08057513          	andi	a0,a0,128
/home/ju/HydraDancer/enumeration/firmware/src/usb20.c:174
        R8_UEP5_6_MOD |= RB_UEP6_TX_EN;
    1abc:	04076713          	ori	a4,a4,64
    1ac0:	00e78923          	sb	a4,18(a5)
/home/ju/HydraDancer/enumeration/firmware/src/usb20.c:175
        R8_UEP6_TX_CTRL = UEP_T_RES_ACK | RB_UEP_T_TOG_0;
    1ac4:	08078523          	sb	zero,138(a5)
/home/ju/HydraDancer/enumeration/firmware/src/usb20.c:181
        R8_UEP7_MOD |= RB_UEP7_TX_EN;
    1ac8:	400097b7          	lui	a5,0x40009
/home/ju/HydraDancer/enumeration/firmware/src/usb20.c:180
    if (endpointsInMask & Ep7Mask) {
    1acc:	14050f63          	beqz	a0,1c2a <usb20_endpoints_init+0x2e8>
/home/ju/HydraDancer/enumeration/firmware/src/usb20.c:181
        R8_UEP7_MOD |= RB_UEP7_TX_EN;
    1ad0:	0137c703          	lbu	a4,19(a5) # 40009013 <_dmadata_end+0x1ffd5e13>
    1ad4:	00476713          	ori	a4,a4,4
    1ad8:	00e789a3          	sb	a4,19(a5)
/home/ju/HydraDancer/enumeration/firmware/src/usb20.c:182
        R8_UEP7_TX_CTRL = UEP_T_RES_ACK | RB_UEP_T_TOG_0;
    1adc:	08078723          	sb	zero,142(a5)
/home/ju/HydraDancer/enumeration/firmware/src/usb20.c:188
    } else {
        R8_UEP7_TX_CTRL = UEP_T_RES_NAK;
    }

    /* Endpoints OUT */
    if (endpointsOutMask & Ep1Mask) {
    1ae0:	0025f793          	andi	a5,a1,2
    1ae4:	14078a63          	beqz	a5,1c38 <usb20_endpoints_init+0x2f6>
/home/ju/HydraDancer/enumeration/firmware/src/usb20.c:189
        R8_UEP4_1_MOD |= RB_UEP1_RX_EN;
    1ae8:	400097b7          	lui	a5,0x40009
    1aec:	0107c703          	lbu	a4,16(a5) # 40009010 <_dmadata_end+0x1ffd5e10>
    1af0:	08076713          	ori	a4,a4,128
    1af4:	00e78823          	sb	a4,16(a5)
/home/ju/HydraDancer/enumeration/firmware/src/usb20.c:190
        R8_UEP1_RX_CTRL = UEP_R_RES_ACK | RB_UEP_R_TOG_0;
    1af8:	06078ba3          	sb	zero,119(a5)
/home/ju/HydraDancer/enumeration/firmware/src/usb20.c:195
    } else {
        R8_UEP1_RX_CTRL = UEP_R_RES_NAK;
    }

    if (endpointsOutMask & Ep2Mask) {
    1afc:	0045f793          	andi	a5,a1,4
    1b00:	14078563          	beqz	a5,1c4a <usb20_endpoints_init+0x308>
/home/ju/HydraDancer/enumeration/firmware/src/usb20.c:196
        R8_UEP2_3_MOD |= RB_UEP2_TX_EN;
    1b04:	400097b7          	lui	a5,0x40009
    1b08:	0117c703          	lbu	a4,17(a5) # 40009011 <_dmadata_end+0x1ffd5e11>
    1b0c:	00476713          	ori	a4,a4,4
    1b10:	00e788a3          	sb	a4,17(a5)
/home/ju/HydraDancer/enumeration/firmware/src/usb20.c:197
        R8_UEP2_RX_CTRL = UEP_R_RES_ACK | RB_UEP_R_TOG_0;
    1b14:	06078da3          	sb	zero,123(a5)
/home/ju/HydraDancer/enumeration/firmware/src/usb20.c:202
    } else {
        R8_UEP2_RX_CTRL = UEP_R_RES_NAK;
    }

    if (endpointsOutMask & Ep3Mask) {
    1b18:	0085f793          	andi	a5,a1,8
    1b1c:	14078063          	beqz	a5,1c5c <usb20_endpoints_init+0x31a>
/home/ju/HydraDancer/enumeration/firmware/src/usb20.c:203
        R8_UEP2_3_MOD |= RB_UEP3_TX_EN;
    1b20:	400097b7          	lui	a5,0x40009
    1b24:	0117c703          	lbu	a4,17(a5) # 40009011 <_dmadata_end+0x1ffd5e11>
    1b28:	04076713          	ori	a4,a4,64
    1b2c:	00e788a3          	sb	a4,17(a5)
/home/ju/HydraDancer/enumeration/firmware/src/usb20.c:204
        R8_UEP3_RX_CTRL = UEP_R_RES_ACK | RB_UEP_R_TOG_0;
    1b30:	06078fa3          	sb	zero,127(a5)
/home/ju/HydraDancer/enumeration/firmware/src/usb20.c:209
    } else {
        R8_UEP3_RX_CTRL = UEP_R_RES_NAK;
    }

    if (endpointsOutMask & Ep4Mask) {
    1b34:	0105f793          	andi	a5,a1,16
    1b38:	12078b63          	beqz	a5,1c6e <usb20_endpoints_init+0x32c>
/home/ju/HydraDancer/enumeration/firmware/src/usb20.c:210
        R8_UEP4_1_MOD |= RB_UEP4_TX_EN;
    1b3c:	400097b7          	lui	a5,0x40009
    1b40:	0107c703          	lbu	a4,16(a5) # 40009010 <_dmadata_end+0x1ffd5e10>
    1b44:	00476713          	ori	a4,a4,4
    1b48:	00e78823          	sb	a4,16(a5)
/home/ju/HydraDancer/enumeration/firmware/src/usb20.c:211
        R8_UEP4_RX_CTRL = UEP_R_RES_ACK | RB_UEP_R_TOG_0;
    1b4c:	080781a3          	sb	zero,131(a5)
/home/ju/HydraDancer/enumeration/firmware/src/usb20.c:216
    } else {
        R8_UEP4_RX_CTRL = UEP_R_RES_NAK;
    }

    if (endpointsOutMask & Ep5Mask) {
    1b50:	0205f793          	andi	a5,a1,32
    1b54:	12078663          	beqz	a5,1c80 <usb20_endpoints_init+0x33e>
/home/ju/HydraDancer/enumeration/firmware/src/usb20.c:217
        R8_UEP5_6_MOD |= RB_UEP5_TX_EN;
    1b58:	400097b7          	lui	a5,0x40009
    1b5c:	0127c703          	lbu	a4,18(a5) # 40009012 <_dmadata_end+0x1ffd5e12>
    1b60:	00476713          	ori	a4,a4,4
    1b64:	00e78923          	sb	a4,18(a5)
/home/ju/HydraDancer/enumeration/firmware/src/usb20.c:218
        R8_UEP5_RX_CTRL = UEP_R_RES_ACK | RB_UEP_R_TOG_0;
    1b68:	080783a3          	sb	zero,135(a5)
/home/ju/HydraDancer/enumeration/firmware/src/usb20.c:223
    } else {
        R8_UEP5_RX_CTRL = UEP_R_RES_NAK;
    }

    if (endpointsOutMask & Ep6Mask) {
    1b6c:	0405f793          	andi	a5,a1,64
    1b70:	cb8d                	beqz	a5,1ba2 <usb20_endpoints_init+0x260>
/home/ju/HydraDancer/enumeration/firmware/src/usb20.c:224
        R8_UEP5_6_MOD |= RB_UEP6_TX_EN;
    1b72:	400097b7          	lui	a5,0x40009
    1b76:	0127c703          	lbu	a4,18(a5) # 40009012 <_dmadata_end+0x1ffd5e12>
/home/ju/HydraDancer/enumeration/firmware/src/usb20.c:230
        R8_UEP6_RX_CTRL = UEP_R_RES_ACK | RB_UEP_R_TOG_0;
    } else {
        R8_UEP6_RX_CTRL = UEP_R_RES_NAK;
    }

    if (endpointsOutMask & Ep7Mask) {
    1b7a:	0805f593          	andi	a1,a1,128
/home/ju/HydraDancer/enumeration/firmware/src/usb20.c:224
        R8_UEP5_6_MOD |= RB_UEP6_TX_EN;
    1b7e:	04076713          	ori	a4,a4,64
    1b82:	00e78923          	sb	a4,18(a5)
/home/ju/HydraDancer/enumeration/firmware/src/usb20.c:225
        R8_UEP6_RX_CTRL = UEP_R_RES_ACK | RB_UEP_R_TOG_0;
    1b86:	080785a3          	sb	zero,139(a5)
/home/ju/HydraDancer/enumeration/firmware/src/usb20.c:231
        R8_UEP7_MOD |= RB_UEP7_TX_EN;
    1b8a:	400097b7          	lui	a5,0x40009
/home/ju/HydraDancer/enumeration/firmware/src/usb20.c:230
    if (endpointsOutMask & Ep7Mask) {
    1b8e:	c585                	beqz	a1,1bb6 <usb20_endpoints_init+0x274>
/home/ju/HydraDancer/enumeration/firmware/src/usb20.c:231
        R8_UEP7_MOD |= RB_UEP7_TX_EN;
    1b90:	0137c703          	lbu	a4,19(a5) # 40009013 <_dmadata_end+0x1ffd5e13>
    1b94:	00476713          	ori	a4,a4,4
    1b98:	00e789a3          	sb	a4,19(a5)
/home/ju/HydraDancer/enumeration/firmware/src/usb20.c:232
        R8_UEP7_RX_CTRL = UEP_R_RES_ACK | RB_UEP_R_TOG_0;
    1b9c:	080787a3          	sb	zero,143(a5)
    1ba0:	8082                	ret
/home/ju/HydraDancer/enumeration/firmware/src/usb20.c:227
        R8_UEP6_RX_CTRL = UEP_R_RES_NAK;
    1ba2:	400097b7          	lui	a5,0x40009
    1ba6:	4709                	li	a4,2
    1ba8:	08e785a3          	sb	a4,139(a5) # 4000908b <_dmadata_end+0x1ffd5e8b>
/home/ju/HydraDancer/enumeration/firmware/src/usb20.c:230
    if (endpointsOutMask & Ep7Mask) {
    1bac:	0805f593          	andi	a1,a1,128
/home/ju/HydraDancer/enumeration/firmware/src/usb20.c:231
        R8_UEP7_MOD |= RB_UEP7_TX_EN;
    1bb0:	400097b7          	lui	a5,0x40009
/home/ju/HydraDancer/enumeration/firmware/src/usb20.c:230
    if (endpointsOutMask & Ep7Mask) {
    1bb4:	fdf1                	bnez	a1,1b90 <usb20_endpoints_init+0x24e>
/home/ju/HydraDancer/enumeration/firmware/src/usb20.c:234
    } else {
        R8_UEP7_RX_CTRL = UEP_R_RES_NAK;
    1bb6:	4709                	li	a4,2
    1bb8:	08e787a3          	sb	a4,143(a5) # 4000908f <_dmadata_end+0x1ffd5e8f>
/home/ju/HydraDancer/enumeration/firmware/src/usb20.c:236
    }
}
    1bbc:	8082                	ret
/home/ju/HydraDancer/enumeration/firmware/src/usb20.c:142
        R8_UEP1_TX_CTRL = UEP_T_RES_NAK;
    1bbe:	4709                	li	a4,2
    1bc0:	06e78b23          	sb	a4,118(a5)
/home/ju/HydraDancer/enumeration/firmware/src/usb20.c:145
    if (endpointsInMask & Ep2Mask) {
    1bc4:	00457793          	andi	a5,a0,4
    1bc8:	e6079ce3          	bnez	a5,1a40 <usb20_endpoints_init+0xfe>
/home/ju/HydraDancer/enumeration/firmware/src/usb20.c:149
        R8_UEP2_TX_CTRL = UEP_T_RES_NAK;
    1bcc:	400097b7          	lui	a5,0x40009
    1bd0:	4709                	li	a4,2
    1bd2:	06e78d23          	sb	a4,122(a5) # 4000907a <_dmadata_end+0x1ffd5e7a>
/home/ju/HydraDancer/enumeration/firmware/src/usb20.c:152
    if (endpointsInMask & Ep3Mask) {
    1bd6:	00857793          	andi	a5,a0,8
    1bda:	e80791e3          	bnez	a5,1a5c <usb20_endpoints_init+0x11a>
/home/ju/HydraDancer/enumeration/firmware/src/usb20.c:156
        R8_UEP3_TX_CTRL = UEP_T_RES_NAK;
    1bde:	400097b7          	lui	a5,0x40009
    1be2:	4709                	li	a4,2
    1be4:	06e78f23          	sb	a4,126(a5) # 4000907e <_dmadata_end+0x1ffd5e7e>
/home/ju/HydraDancer/enumeration/firmware/src/usb20.c:159
    if (endpointsInMask & Ep4Mask) {
    1be8:	01057793          	andi	a5,a0,16
    1bec:	e80796e3          	bnez	a5,1a78 <usb20_endpoints_init+0x136>
/home/ju/HydraDancer/enumeration/firmware/src/usb20.c:163
        R8_UEP4_TX_CTRL = UEP_T_RES_NAK;
    1bf0:	400097b7          	lui	a5,0x40009
    1bf4:	4709                	li	a4,2
    1bf6:	08e78123          	sb	a4,130(a5) # 40009082 <_dmadata_end+0x1ffd5e82>
/home/ju/HydraDancer/enumeration/firmware/src/usb20.c:166
    if (endpointsInMask & Ep5Mask) {
    1bfa:	02057793          	andi	a5,a0,32
    1bfe:	e8079be3          	bnez	a5,1a94 <usb20_endpoints_init+0x152>
/home/ju/HydraDancer/enumeration/firmware/src/usb20.c:170
        R8_UEP5_TX_CTRL = UEP_T_RES_NAK;
    1c02:	400097b7          	lui	a5,0x40009
    1c06:	4709                	li	a4,2
    1c08:	08e78323          	sb	a4,134(a5) # 40009086 <_dmadata_end+0x1ffd5e86>
/home/ju/HydraDancer/enumeration/firmware/src/usb20.c:173
    if (endpointsInMask & Ep6Mask) {
    1c0c:	04057793          	andi	a5,a0,64
    1c10:	ea0790e3          	bnez	a5,1ab0 <usb20_endpoints_init+0x16e>
/home/ju/HydraDancer/enumeration/firmware/src/usb20.c:177
        R8_UEP6_TX_CTRL = UEP_T_RES_NAK;
    1c14:	400097b7          	lui	a5,0x40009
    1c18:	4709                	li	a4,2
    1c1a:	08e78523          	sb	a4,138(a5) # 4000908a <_dmadata_end+0x1ffd5e8a>
/home/ju/HydraDancer/enumeration/firmware/src/usb20.c:180
    if (endpointsInMask & Ep7Mask) {
    1c1e:	08057513          	andi	a0,a0,128
/home/ju/HydraDancer/enumeration/firmware/src/usb20.c:181
        R8_UEP7_MOD |= RB_UEP7_TX_EN;
    1c22:	400097b7          	lui	a5,0x40009
/home/ju/HydraDancer/enumeration/firmware/src/usb20.c:180
    if (endpointsInMask & Ep7Mask) {
    1c26:	ea0515e3          	bnez	a0,1ad0 <usb20_endpoints_init+0x18e>
/home/ju/HydraDancer/enumeration/firmware/src/usb20.c:184
        R8_UEP7_TX_CTRL = UEP_T_RES_NAK;
    1c2a:	4709                	li	a4,2
    1c2c:	08e78723          	sb	a4,142(a5) # 4000908e <_dmadata_end+0x1ffd5e8e>
/home/ju/HydraDancer/enumeration/firmware/src/usb20.c:188
    if (endpointsOutMask & Ep1Mask) {
    1c30:	0025f793          	andi	a5,a1,2
    1c34:	ea079ae3          	bnez	a5,1ae8 <usb20_endpoints_init+0x1a6>
/home/ju/HydraDancer/enumeration/firmware/src/usb20.c:192
        R8_UEP1_RX_CTRL = UEP_R_RES_NAK;
    1c38:	400097b7          	lui	a5,0x40009
    1c3c:	4709                	li	a4,2
    1c3e:	06e78ba3          	sb	a4,119(a5) # 40009077 <_dmadata_end+0x1ffd5e77>
/home/ju/HydraDancer/enumeration/firmware/src/usb20.c:195
    if (endpointsOutMask & Ep2Mask) {
    1c42:	0045f793          	andi	a5,a1,4
    1c46:	ea079fe3          	bnez	a5,1b04 <usb20_endpoints_init+0x1c2>
/home/ju/HydraDancer/enumeration/firmware/src/usb20.c:199
        R8_UEP2_RX_CTRL = UEP_R_RES_NAK;
    1c4a:	400097b7          	lui	a5,0x40009
    1c4e:	4709                	li	a4,2
    1c50:	06e78da3          	sb	a4,123(a5) # 4000907b <_dmadata_end+0x1ffd5e7b>
/home/ju/HydraDancer/enumeration/firmware/src/usb20.c:202
    if (endpointsOutMask & Ep3Mask) {
    1c54:	0085f793          	andi	a5,a1,8
    1c58:	ec0794e3          	bnez	a5,1b20 <usb20_endpoints_init+0x1de>
/home/ju/HydraDancer/enumeration/firmware/src/usb20.c:206
        R8_UEP3_RX_CTRL = UEP_R_RES_NAK;
    1c5c:	400097b7          	lui	a5,0x40009
    1c60:	4709                	li	a4,2
    1c62:	06e78fa3          	sb	a4,127(a5) # 4000907f <_dmadata_end+0x1ffd5e7f>
/home/ju/HydraDancer/enumeration/firmware/src/usb20.c:209
    if (endpointsOutMask & Ep4Mask) {
    1c66:	0105f793          	andi	a5,a1,16
    1c6a:	ec0799e3          	bnez	a5,1b3c <usb20_endpoints_init+0x1fa>
/home/ju/HydraDancer/enumeration/firmware/src/usb20.c:213
        R8_UEP4_RX_CTRL = UEP_R_RES_NAK;
    1c6e:	400097b7          	lui	a5,0x40009
    1c72:	4709                	li	a4,2
    1c74:	08e781a3          	sb	a4,131(a5) # 40009083 <_dmadata_end+0x1ffd5e83>
/home/ju/HydraDancer/enumeration/firmware/src/usb20.c:216
    if (endpointsOutMask & Ep5Mask) {
    1c78:	0205f793          	andi	a5,a1,32
    1c7c:	ec079ee3          	bnez	a5,1b58 <usb20_endpoints_init+0x216>
/home/ju/HydraDancer/enumeration/firmware/src/usb20.c:220
        R8_UEP5_RX_CTRL = UEP_R_RES_NAK;
    1c80:	400097b7          	lui	a5,0x40009
    1c84:	4709                	li	a4,2
    1c86:	08e783a3          	sb	a4,135(a5) # 40009087 <_dmadata_end+0x1ffd5e87>
    1c8a:	b5cd                	j	1b6c <usb20_endpoints_init+0x22a>

00001c8c <usb20_endpoint_ack>:
usb20_endpoint_ack():
/home/ju/HydraDancer/enumeration/firmware/src/usb20.c:249
 * @return  None
 */
void
usb20_endpoint_ack(uint8_t endpointToACK)
{
    switch (endpointToACK) {
    1c8c:	08700793          	li	a5,135
    1c90:	0aa7ed63          	bltu	a5,a0,1d4a <usb20_endpoint_ack+0xbe>
    1c94:	6791                	lui	a5,0x4
    1c96:	17078793          	addi	a5,a5,368 # 4170 <_sbrk+0x678>
    1c9a:	050a                	slli	a0,a0,0x2
    1c9c:	953e                	add	a0,a0,a5
    1c9e:	411c                	lw	a5,0(a0)
    1ca0:	8782                	jr	a5
/home/ju/HydraDancer/enumeration/firmware/src/usb20.c:293
        break;
    case 0x06: /* endpoint 6 OUT */
        R8_UEP6_RX_CTRL = UEP_R_RES_ACK | RB_UEP_R_TOG_0;
        break;
    case 0x87: /* endpoint 7 IN */
        R16_UEP7_T_LEN = 0;
    1ca2:	400097b7          	lui	a5,0x40009
    1ca6:	08079623          	sh	zero,140(a5) # 4000908c <_dmadata_end+0x1ffd5e8c>
/home/ju/HydraDancer/enumeration/firmware/src/usb20.c:294
        R8_UEP7_TX_CTRL = UEP_T_RES_ACK | RB_UEP_T_TOG_0;
    1caa:	08078723          	sb	zero,142(a5)
/home/ju/HydraDancer/enumeration/firmware/src/usb20.c:295
        break;
    1cae:	8082                	ret
/home/ju/HydraDancer/enumeration/firmware/src/usb20.c:255
        R8_UEP1_RX_CTRL = UEP_R_RES_ACK | RB_UEP_R_TOG_0;
    1cb0:	400097b7          	lui	a5,0x40009
    1cb4:	06078ba3          	sb	zero,119(a5) # 40009077 <_dmadata_end+0x1ffd5e77>
/home/ju/HydraDancer/enumeration/firmware/src/usb20.c:256
        break;
    1cb8:	8082                	ret
/home/ju/HydraDancer/enumeration/firmware/src/usb20.c:262
        R8_UEP2_RX_CTRL = UEP_R_RES_ACK | RB_UEP_R_TOG_0;
    1cba:	400097b7          	lui	a5,0x40009
    1cbe:	06078da3          	sb	zero,123(a5) # 4000907b <_dmadata_end+0x1ffd5e7b>
/home/ju/HydraDancer/enumeration/firmware/src/usb20.c:263
        break;
    1cc2:	8082                	ret
/home/ju/HydraDancer/enumeration/firmware/src/usb20.c:269
        R8_UEP3_RX_CTRL = UEP_R_RES_ACK | RB_UEP_R_TOG_0;
    1cc4:	400097b7          	lui	a5,0x40009
    1cc8:	06078fa3          	sb	zero,127(a5) # 4000907f <_dmadata_end+0x1ffd5e7f>
/home/ju/HydraDancer/enumeration/firmware/src/usb20.c:270
        break;
    1ccc:	8082                	ret
/home/ju/HydraDancer/enumeration/firmware/src/usb20.c:276
        R8_UEP4_RX_CTRL = UEP_R_RES_ACK | RB_UEP_R_TOG_0;
    1cce:	400097b7          	lui	a5,0x40009
    1cd2:	080781a3          	sb	zero,131(a5) # 40009083 <_dmadata_end+0x1ffd5e83>
/home/ju/HydraDancer/enumeration/firmware/src/usb20.c:277
        break;
    1cd6:	8082                	ret
/home/ju/HydraDancer/enumeration/firmware/src/usb20.c:283
        R8_UEP5_RX_CTRL = UEP_R_RES_ACK | RB_UEP_R_TOG_0;
    1cd8:	400097b7          	lui	a5,0x40009
    1cdc:	080783a3          	sb	zero,135(a5) # 40009087 <_dmadata_end+0x1ffd5e87>
/home/ju/HydraDancer/enumeration/firmware/src/usb20.c:284
        break;
    1ce0:	8082                	ret
/home/ju/HydraDancer/enumeration/firmware/src/usb20.c:290
        R8_UEP6_RX_CTRL = UEP_R_RES_ACK | RB_UEP_R_TOG_0;
    1ce2:	400097b7          	lui	a5,0x40009
    1ce6:	080785a3          	sb	zero,139(a5) # 4000908b <_dmadata_end+0x1ffd5e8b>
/home/ju/HydraDancer/enumeration/firmware/src/usb20.c:291
        break;
    1cea:	8082                	ret
/home/ju/HydraDancer/enumeration/firmware/src/usb20.c:297
    case 0x07: /* endpoint 7 OUT */
        R8_UEP7_RX_CTRL = UEP_R_RES_ACK | RB_UEP_R_TOG_0;
    1cec:	400097b7          	lui	a5,0x40009
    1cf0:	080787a3          	sb	zero,143(a5) # 4000908f <_dmadata_end+0x1ffd5e8f>
/home/ju/HydraDancer/enumeration/firmware/src/usb20.c:303
        break;
    default:
        log_to_evaluator("ERROR: endpoint_clear() invalid argument");
        break;
    }
}
    1cf4:	8082                	ret
/home/ju/HydraDancer/enumeration/firmware/src/usb20.c:251
        R16_UEP1_T_LEN = 0;
    1cf6:	400097b7          	lui	a5,0x40009
    1cfa:	06079a23          	sh	zero,116(a5) # 40009074 <_dmadata_end+0x1ffd5e74>
/home/ju/HydraDancer/enumeration/firmware/src/usb20.c:252
        R8_UEP1_TX_CTRL = UEP_T_RES_ACK | RB_UEP_T_TOG_0;
    1cfe:	06078b23          	sb	zero,118(a5)
/home/ju/HydraDancer/enumeration/firmware/src/usb20.c:253
        break;
    1d02:	8082                	ret
/home/ju/HydraDancer/enumeration/firmware/src/usb20.c:258
        R16_UEP2_T_LEN = 0;
    1d04:	400097b7          	lui	a5,0x40009
    1d08:	06079c23          	sh	zero,120(a5) # 40009078 <_dmadata_end+0x1ffd5e78>
/home/ju/HydraDancer/enumeration/firmware/src/usb20.c:259
        R8_UEP2_TX_CTRL = UEP_T_RES_ACK | RB_UEP_T_TOG_0;
    1d0c:	06078d23          	sb	zero,122(a5)
/home/ju/HydraDancer/enumeration/firmware/src/usb20.c:260
        break;
    1d10:	8082                	ret
/home/ju/HydraDancer/enumeration/firmware/src/usb20.c:265
        R16_UEP3_T_LEN = 0;
    1d12:	400097b7          	lui	a5,0x40009
    1d16:	06079e23          	sh	zero,124(a5) # 4000907c <_dmadata_end+0x1ffd5e7c>
/home/ju/HydraDancer/enumeration/firmware/src/usb20.c:266
        R8_UEP3_TX_CTRL = UEP_T_RES_ACK | RB_UEP_T_TOG_0;
    1d1a:	06078f23          	sb	zero,126(a5)
/home/ju/HydraDancer/enumeration/firmware/src/usb20.c:267
        break;
    1d1e:	8082                	ret
/home/ju/HydraDancer/enumeration/firmware/src/usb20.c:272
        R16_UEP4_T_LEN = 0;
    1d20:	400097b7          	lui	a5,0x40009
    1d24:	08079023          	sh	zero,128(a5) # 40009080 <_dmadata_end+0x1ffd5e80>
/home/ju/HydraDancer/enumeration/firmware/src/usb20.c:273
        R8_UEP4_TX_CTRL = UEP_T_RES_ACK | RB_UEP_T_TOG_0;
    1d28:	08078123          	sb	zero,130(a5)
/home/ju/HydraDancer/enumeration/firmware/src/usb20.c:274
        break;
    1d2c:	8082                	ret
/home/ju/HydraDancer/enumeration/firmware/src/usb20.c:279
        R16_UEP5_T_LEN = 0;
    1d2e:	400097b7          	lui	a5,0x40009
    1d32:	08079223          	sh	zero,132(a5) # 40009084 <_dmadata_end+0x1ffd5e84>
/home/ju/HydraDancer/enumeration/firmware/src/usb20.c:280
        R8_UEP5_TX_CTRL = UEP_T_RES_ACK | RB_UEP_T_TOG_0;
    1d36:	08078323          	sb	zero,134(a5)
/home/ju/HydraDancer/enumeration/firmware/src/usb20.c:281
        break;
    1d3a:	8082                	ret
/home/ju/HydraDancer/enumeration/firmware/src/usb20.c:286
        R16_UEP6_T_LEN = 0;
    1d3c:	400097b7          	lui	a5,0x40009
    1d40:	08079423          	sh	zero,136(a5) # 40009088 <_dmadata_end+0x1ffd5e88>
/home/ju/HydraDancer/enumeration/firmware/src/usb20.c:287
        R8_UEP6_TX_CTRL = UEP_T_RES_ACK | RB_UEP_T_TOG_0;
    1d44:	08078523          	sb	zero,138(a5)
/home/ju/HydraDancer/enumeration/firmware/src/usb20.c:288
        break;
    1d48:	8082                	ret
/home/ju/HydraDancer/enumeration/firmware/src/usb20.c:300
        log_to_evaluator("ERROR: endpoint_clear() invalid argument");
    1d4a:	00005537          	lui	a0,0x5
    1d4e:	85c50513          	addi	a0,a0,-1956 # 485c <_sbrk+0xd64>
    1d52:	b54ff06f          	j	10a6 <log_to_evaluator>

00001d56 <usb20_endpoint_nak>:
usb20_endpoint_nak():
/home/ju/HydraDancer/enumeration/firmware/src/usb20.c:316
 * @return  None
 */
void
usb20_endpoint_nak(uint8_t endpointToNAK)
{
    switch (endpointToNAK) {
    1d56:	08700793          	li	a5,135
    1d5a:	0ca7eb63          	bltu	a5,a0,1e30 <usb20_endpoint_nak+0xda>
    1d5e:	6791                	lui	a5,0x4
    1d60:	39078793          	addi	a5,a5,912 # 4390 <_sbrk+0x898>
    1d64:	050a                	slli	a0,a0,0x2
    1d66:	953e                	add	a0,a0,a5
    1d68:	411c                	lw	a5,0(a0)
    1d6a:	8782                	jr	a5
/home/ju/HydraDancer/enumeration/firmware/src/usb20.c:360
        break;
    case 0x06: /* endpoint 6 OUT */
        R8_UEP6_RX_CTRL = UEP_R_RES_NAK | RB_UEP_R_TOG_0;
        break;
    case 0x87: /* endpoint 7 IN */
        R16_UEP7_T_LEN = 0;
    1d6c:	400097b7          	lui	a5,0x40009
    1d70:	08079623          	sh	zero,140(a5) # 4000908c <_dmadata_end+0x1ffd5e8c>
/home/ju/HydraDancer/enumeration/firmware/src/usb20.c:361
        R8_UEP7_TX_CTRL = UEP_T_RES_NAK | RB_UEP_T_TOG_0;
    1d74:	4709                	li	a4,2
    1d76:	08e78723          	sb	a4,142(a5)
/home/ju/HydraDancer/enumeration/firmware/src/usb20.c:362
        break;
    1d7a:	8082                	ret
/home/ju/HydraDancer/enumeration/firmware/src/usb20.c:322
        R8_UEP1_RX_CTRL = UEP_R_RES_NAK | RB_UEP_R_TOG_0;
    1d7c:	400097b7          	lui	a5,0x40009
    1d80:	4709                	li	a4,2
    1d82:	06e78ba3          	sb	a4,119(a5) # 40009077 <_dmadata_end+0x1ffd5e77>
/home/ju/HydraDancer/enumeration/firmware/src/usb20.c:323
        break;
    1d86:	8082                	ret
/home/ju/HydraDancer/enumeration/firmware/src/usb20.c:329
        R8_UEP2_RX_CTRL = UEP_R_RES_NAK | RB_UEP_R_TOG_0;
    1d88:	400097b7          	lui	a5,0x40009
    1d8c:	4709                	li	a4,2
    1d8e:	06e78da3          	sb	a4,123(a5) # 4000907b <_dmadata_end+0x1ffd5e7b>
/home/ju/HydraDancer/enumeration/firmware/src/usb20.c:330
        break;
    1d92:	8082                	ret
/home/ju/HydraDancer/enumeration/firmware/src/usb20.c:336
        R8_UEP3_RX_CTRL = UEP_R_RES_NAK | RB_UEP_R_TOG_0;
    1d94:	400097b7          	lui	a5,0x40009
    1d98:	4709                	li	a4,2
    1d9a:	06e78fa3          	sb	a4,127(a5) # 4000907f <_dmadata_end+0x1ffd5e7f>
/home/ju/HydraDancer/enumeration/firmware/src/usb20.c:337
        break;
    1d9e:	8082                	ret
/home/ju/HydraDancer/enumeration/firmware/src/usb20.c:343
        R8_UEP4_RX_CTRL = UEP_R_RES_NAK | RB_UEP_R_TOG_0;
    1da0:	400097b7          	lui	a5,0x40009
    1da4:	4709                	li	a4,2
    1da6:	08e781a3          	sb	a4,131(a5) # 40009083 <_dmadata_end+0x1ffd5e83>
/home/ju/HydraDancer/enumeration/firmware/src/usb20.c:344
        break;
    1daa:	8082                	ret
/home/ju/HydraDancer/enumeration/firmware/src/usb20.c:350
        R8_UEP5_RX_CTRL = UEP_R_RES_NAK | RB_UEP_R_TOG_0;
    1dac:	400097b7          	lui	a5,0x40009
    1db0:	4709                	li	a4,2
    1db2:	08e783a3          	sb	a4,135(a5) # 40009087 <_dmadata_end+0x1ffd5e87>
/home/ju/HydraDancer/enumeration/firmware/src/usb20.c:351
        break;
    1db6:	8082                	ret
/home/ju/HydraDancer/enumeration/firmware/src/usb20.c:357
        R8_UEP6_RX_CTRL = UEP_R_RES_NAK | RB_UEP_R_TOG_0;
    1db8:	400097b7          	lui	a5,0x40009
    1dbc:	4709                	li	a4,2
    1dbe:	08e785a3          	sb	a4,139(a5) # 4000908b <_dmadata_end+0x1ffd5e8b>
/home/ju/HydraDancer/enumeration/firmware/src/usb20.c:358
        break;
    1dc2:	8082                	ret
/home/ju/HydraDancer/enumeration/firmware/src/usb20.c:364
    case 0x07: /* endpoint 7 OUT */
        R8_UEP7_RX_CTRL = UEP_R_RES_NAK | RB_UEP_R_TOG_0;
    1dc4:	400097b7          	lui	a5,0x40009
    1dc8:	4709                	li	a4,2
    1dca:	08e787a3          	sb	a4,143(a5) # 4000908f <_dmadata_end+0x1ffd5e8f>
/home/ju/HydraDancer/enumeration/firmware/src/usb20.c:370
        break;
    default:
        log_to_evaluator("ERROR: endpoint_clear() invalid argument");
        break;
    }
}
    1dce:	8082                	ret
/home/ju/HydraDancer/enumeration/firmware/src/usb20.c:318
        R16_UEP1_T_LEN = 0;
    1dd0:	400097b7          	lui	a5,0x40009
    1dd4:	06079a23          	sh	zero,116(a5) # 40009074 <_dmadata_end+0x1ffd5e74>
/home/ju/HydraDancer/enumeration/firmware/src/usb20.c:319
        R8_UEP1_TX_CTRL = UEP_T_RES_NAK | RB_UEP_T_TOG_0;
    1dd8:	4709                	li	a4,2
    1dda:	06e78b23          	sb	a4,118(a5)
/home/ju/HydraDancer/enumeration/firmware/src/usb20.c:320
        break;
    1dde:	8082                	ret
/home/ju/HydraDancer/enumeration/firmware/src/usb20.c:325
        R16_UEP2_T_LEN = 0;
    1de0:	400097b7          	lui	a5,0x40009
    1de4:	06079c23          	sh	zero,120(a5) # 40009078 <_dmadata_end+0x1ffd5e78>
/home/ju/HydraDancer/enumeration/firmware/src/usb20.c:326
        R8_UEP2_TX_CTRL = UEP_T_RES_NAK | RB_UEP_T_TOG_0;
    1de8:	4709                	li	a4,2
    1dea:	06e78d23          	sb	a4,122(a5)
/home/ju/HydraDancer/enumeration/firmware/src/usb20.c:327
        break;
    1dee:	8082                	ret
/home/ju/HydraDancer/enumeration/firmware/src/usb20.c:332
        R16_UEP3_T_LEN = 0;
    1df0:	400097b7          	lui	a5,0x40009
    1df4:	06079e23          	sh	zero,124(a5) # 4000907c <_dmadata_end+0x1ffd5e7c>
/home/ju/HydraDancer/enumeration/firmware/src/usb20.c:333
        R8_UEP3_TX_CTRL = UEP_T_RES_NAK | RB_UEP_T_TOG_0;
    1df8:	4709                	li	a4,2
    1dfa:	06e78f23          	sb	a4,126(a5)
/home/ju/HydraDancer/enumeration/firmware/src/usb20.c:334
        break;
    1dfe:	8082                	ret
/home/ju/HydraDancer/enumeration/firmware/src/usb20.c:339
        R16_UEP4_T_LEN = 0;
    1e00:	400097b7          	lui	a5,0x40009
    1e04:	08079023          	sh	zero,128(a5) # 40009080 <_dmadata_end+0x1ffd5e80>
/home/ju/HydraDancer/enumeration/firmware/src/usb20.c:340
        R8_UEP4_TX_CTRL = UEP_T_RES_NAK | RB_UEP_T_TOG_0;
    1e08:	4709                	li	a4,2
    1e0a:	08e78123          	sb	a4,130(a5)
/home/ju/HydraDancer/enumeration/firmware/src/usb20.c:341
        break;
    1e0e:	8082                	ret
/home/ju/HydraDancer/enumeration/firmware/src/usb20.c:346
        R16_UEP5_T_LEN = 0;
    1e10:	400097b7          	lui	a5,0x40009
    1e14:	08079223          	sh	zero,132(a5) # 40009084 <_dmadata_end+0x1ffd5e84>
/home/ju/HydraDancer/enumeration/firmware/src/usb20.c:347
        R8_UEP5_TX_CTRL = UEP_T_RES_NAK | RB_UEP_T_TOG_0;
    1e18:	4709                	li	a4,2
    1e1a:	08e78323          	sb	a4,134(a5)
/home/ju/HydraDancer/enumeration/firmware/src/usb20.c:348
        break;
    1e1e:	8082                	ret
/home/ju/HydraDancer/enumeration/firmware/src/usb20.c:353
        R16_UEP6_T_LEN = 0;
    1e20:	400097b7          	lui	a5,0x40009
    1e24:	08079423          	sh	zero,136(a5) # 40009088 <_dmadata_end+0x1ffd5e88>
/home/ju/HydraDancer/enumeration/firmware/src/usb20.c:354
        R8_UEP6_TX_CTRL = UEP_T_RES_NAK | RB_UEP_T_TOG_0;
    1e28:	4709                	li	a4,2
    1e2a:	08e78523          	sb	a4,138(a5)
/home/ju/HydraDancer/enumeration/firmware/src/usb20.c:355
        break;
    1e2e:	8082                	ret
/home/ju/HydraDancer/enumeration/firmware/src/usb20.c:367
        log_to_evaluator("ERROR: endpoint_clear() invalid argument");
    1e30:	00005537          	lui	a0,0x5
    1e34:	85c50513          	addi	a0,a0,-1956 # 485c <_sbrk+0xd64>
    1e38:	a6eff06f          	j	10a6 <log_to_evaluator>

00001e3c <usb20_endpoint_halt>:
usb20_endpoint_halt():
/home/ju/HydraDancer/enumeration/firmware/src/usb20.c:383
 * @return  None
 */
void
usb20_endpoint_halt(uint8_t endpointToHalt)
{
    switch(endpointToHalt) {
    1e3c:	08700793          	li	a5,135
    1e40:	10a7e763          	bltu	a5,a0,1f4e <usb20_endpoint_halt+0x112>
    1e44:	6791                	lui	a5,0x4
    1e46:	5b078793          	addi	a5,a5,1456 # 45b0 <_sbrk+0xab8>
    1e4a:	050a                	slli	a0,a0,0x2
    1e4c:	953e                	add	a0,a0,a5
    1e4e:	411c                	lw	a5,0(a0)
    1e50:	8782                	jr	a5
/home/ju/HydraDancer/enumeration/firmware/src/usb20.c:421
        break;
    case 0x06: /* Set endpoint 6 OUT STALL */
        R8_UEP6_RX_CTRL = (R8_UEP6_RX_CTRL & ~RB_UEP_RRES_MASK) | UEP_R_RES_STALL;
        break;
    case 0x87: /* Set endpoint 7 IN STALL */
        R8_UEP7_TX_CTRL = (R8_UEP7_TX_CTRL & ~RB_UEP_TRES_MASK) | UEP_T_RES_STALL;
    1e52:	40009737          	lui	a4,0x40009
    1e56:	08e74783          	lbu	a5,142(a4) # 4000908e <_dmadata_end+0x1ffd5e8e>
    1e5a:	0037e793          	ori	a5,a5,3
    1e5e:	08f70723          	sb	a5,142(a4)
/home/ju/HydraDancer/enumeration/firmware/src/usb20.c:422
        break;
    1e62:	8082                	ret
/home/ju/HydraDancer/enumeration/firmware/src/usb20.c:388
        R8_UEP1_RX_CTRL = (R8_UEP1_RX_CTRL & ~RB_UEP_RRES_MASK) | UEP_R_RES_STALL;
    1e64:	40009737          	lui	a4,0x40009
    1e68:	07774783          	lbu	a5,119(a4) # 40009077 <_dmadata_end+0x1ffd5e77>
    1e6c:	0037e793          	ori	a5,a5,3
    1e70:	06f70ba3          	sb	a5,119(a4)
/home/ju/HydraDancer/enumeration/firmware/src/usb20.c:389
        break;
    1e74:	8082                	ret
/home/ju/HydraDancer/enumeration/firmware/src/usb20.c:394
        R8_UEP2_RX_CTRL = (R8_UEP2_RX_CTRL & ~RB_UEP_RRES_MASK) | UEP_R_RES_STALL;
    1e76:	40009737          	lui	a4,0x40009
    1e7a:	07b74783          	lbu	a5,123(a4) # 4000907b <_dmadata_end+0x1ffd5e7b>
    1e7e:	0037e793          	ori	a5,a5,3
    1e82:	06f70da3          	sb	a5,123(a4)
/home/ju/HydraDancer/enumeration/firmware/src/usb20.c:395
        break;
    1e86:	8082                	ret
/home/ju/HydraDancer/enumeration/firmware/src/usb20.c:400
        R8_UEP3_RX_CTRL = (R8_UEP3_RX_CTRL & ~RB_UEP_RRES_MASK) | UEP_R_RES_STALL;
    1e88:	40009737          	lui	a4,0x40009
    1e8c:	07f74783          	lbu	a5,127(a4) # 4000907f <_dmadata_end+0x1ffd5e7f>
    1e90:	0037e793          	ori	a5,a5,3
    1e94:	06f70fa3          	sb	a5,127(a4)
/home/ju/HydraDancer/enumeration/firmware/src/usb20.c:401
        break;
    1e98:	8082                	ret
/home/ju/HydraDancer/enumeration/firmware/src/usb20.c:406
        R8_UEP4_RX_CTRL = (R8_UEP4_RX_CTRL & ~RB_UEP_RRES_MASK) | UEP_R_RES_STALL;
    1e9a:	40009737          	lui	a4,0x40009
    1e9e:	08374783          	lbu	a5,131(a4) # 40009083 <_dmadata_end+0x1ffd5e83>
    1ea2:	0037e793          	ori	a5,a5,3
    1ea6:	08f701a3          	sb	a5,131(a4)
/home/ju/HydraDancer/enumeration/firmware/src/usb20.c:407
        break;
    1eaa:	8082                	ret
/home/ju/HydraDancer/enumeration/firmware/src/usb20.c:412
        R8_UEP5_RX_CTRL = (R8_UEP5_RX_CTRL & ~RB_UEP_RRES_MASK) | UEP_R_RES_STALL;
    1eac:	40009737          	lui	a4,0x40009
    1eb0:	08774783          	lbu	a5,135(a4) # 40009087 <_dmadata_end+0x1ffd5e87>
    1eb4:	0037e793          	ori	a5,a5,3
    1eb8:	08f703a3          	sb	a5,135(a4)
/home/ju/HydraDancer/enumeration/firmware/src/usb20.c:413
        break;
    1ebc:	8082                	ret
/home/ju/HydraDancer/enumeration/firmware/src/usb20.c:418
        R8_UEP6_RX_CTRL = (R8_UEP6_RX_CTRL & ~RB_UEP_RRES_MASK) | UEP_R_RES_STALL;
    1ebe:	40009737          	lui	a4,0x40009
    1ec2:	08b74783          	lbu	a5,139(a4) # 4000908b <_dmadata_end+0x1ffd5e8b>
    1ec6:	0037e793          	ori	a5,a5,3
    1eca:	08f705a3          	sb	a5,139(a4)
/home/ju/HydraDancer/enumeration/firmware/src/usb20.c:419
        break;
    1ece:	8082                	ret
/home/ju/HydraDancer/enumeration/firmware/src/usb20.c:424
    case 0x07: /* Set endpoint 7 OUT STALL */
        R8_UEP7_RX_CTRL = (R8_UEP7_RX_CTRL & ~RB_UEP_RRES_MASK) | UEP_R_RES_STALL;
    1ed0:	40009737          	lui	a4,0x40009
    1ed4:	08f74783          	lbu	a5,143(a4) # 4000908f <_dmadata_end+0x1ffd5e8f>
    1ed8:	0037e793          	ori	a5,a5,3
    1edc:	08f707a3          	sb	a5,143(a4)
/home/ju/HydraDancer/enumeration/firmware/src/usb20.c:430
        break;
    default:
        log_to_evaluator("ERROR: endpoint_halt() invalid argument");
        break;
    }
}
    1ee0:	8082                	ret
/home/ju/HydraDancer/enumeration/firmware/src/usb20.c:385
        R8_UEP1_TX_CTRL = (R8_UEP1_TX_CTRL & ~RB_UEP_TRES_MASK) | UEP_T_RES_STALL;
    1ee2:	40009737          	lui	a4,0x40009
    1ee6:	07674783          	lbu	a5,118(a4) # 40009076 <_dmadata_end+0x1ffd5e76>
    1eea:	0037e793          	ori	a5,a5,3
    1eee:	06f70b23          	sb	a5,118(a4)
/home/ju/HydraDancer/enumeration/firmware/src/usb20.c:386
        break;
    1ef2:	8082                	ret
/home/ju/HydraDancer/enumeration/firmware/src/usb20.c:391
        R8_UEP2_TX_CTRL = (R8_UEP2_TX_CTRL & ~RB_UEP_TRES_MASK) | UEP_T_RES_STALL;
    1ef4:	40009737          	lui	a4,0x40009
    1ef8:	07a74783          	lbu	a5,122(a4) # 4000907a <_dmadata_end+0x1ffd5e7a>
    1efc:	0037e793          	ori	a5,a5,3
    1f00:	06f70d23          	sb	a5,122(a4)
/home/ju/HydraDancer/enumeration/firmware/src/usb20.c:392
        break;
    1f04:	8082                	ret
/home/ju/HydraDancer/enumeration/firmware/src/usb20.c:397
        R8_UEP3_TX_CTRL = (R8_UEP3_TX_CTRL & ~RB_UEP_TRES_MASK) | UEP_T_RES_STALL;
    1f06:	40009737          	lui	a4,0x40009
    1f0a:	07e74783          	lbu	a5,126(a4) # 4000907e <_dmadata_end+0x1ffd5e7e>
    1f0e:	0037e793          	ori	a5,a5,3
    1f12:	06f70f23          	sb	a5,126(a4)
/home/ju/HydraDancer/enumeration/firmware/src/usb20.c:398
        break;
    1f16:	8082                	ret
/home/ju/HydraDancer/enumeration/firmware/src/usb20.c:403
        R8_UEP4_TX_CTRL = (R8_UEP4_TX_CTRL & ~RB_UEP_TRES_MASK) | UEP_T_RES_STALL;
    1f18:	40009737          	lui	a4,0x40009
    1f1c:	08274783          	lbu	a5,130(a4) # 40009082 <_dmadata_end+0x1ffd5e82>
    1f20:	0037e793          	ori	a5,a5,3
    1f24:	08f70123          	sb	a5,130(a4)
/home/ju/HydraDancer/enumeration/firmware/src/usb20.c:404
        break;
    1f28:	8082                	ret
/home/ju/HydraDancer/enumeration/firmware/src/usb20.c:409
        R8_UEP5_TX_CTRL = (R8_UEP5_TX_CTRL & ~RB_UEP_TRES_MASK) | UEP_T_RES_STALL;
    1f2a:	40009737          	lui	a4,0x40009
    1f2e:	08674783          	lbu	a5,134(a4) # 40009086 <_dmadata_end+0x1ffd5e86>
    1f32:	0037e793          	ori	a5,a5,3
    1f36:	08f70323          	sb	a5,134(a4)
/home/ju/HydraDancer/enumeration/firmware/src/usb20.c:410
        break;
    1f3a:	8082                	ret
/home/ju/HydraDancer/enumeration/firmware/src/usb20.c:415
        R8_UEP6_TX_CTRL = (R8_UEP6_TX_CTRL & ~RB_UEP_TRES_MASK) | UEP_T_RES_STALL;
    1f3c:	40009737          	lui	a4,0x40009
    1f40:	08a74783          	lbu	a5,138(a4) # 4000908a <_dmadata_end+0x1ffd5e8a>
    1f44:	0037e793          	ori	a5,a5,3
    1f48:	08f70523          	sb	a5,138(a4)
/home/ju/HydraDancer/enumeration/firmware/src/usb20.c:416
        break;
    1f4c:	8082                	ret
/home/ju/HydraDancer/enumeration/firmware/src/usb20.c:427
        log_to_evaluator("ERROR: endpoint_halt() invalid argument");
    1f4e:	00005537          	lui	a0,0x5
    1f52:	88850513          	addi	a0,a0,-1912 # 4888 <_sbrk+0xd90>
    1f56:	950ff06f          	j	10a6 <log_to_evaluator>

00001f5a <usb20_fill_buffer_with_descriptor>:
usb20_fill_buffer_with_descriptor():
/home/ju/HydraDancer/enumeration/firmware/src/usb20.c:441
 * @return  None
 */
void
usb20_fill_buffer_with_descriptor(UINT16_UINT8 descritorRequested, uint8_t **pBuffer, uint16_t *pSizeBuffer)
{
    switch(descritorRequested.bw.bb0) {
    1f5a:	01051793          	slli	a5,a0,0x10
    1f5e:	83c1                	srli	a5,a5,0x10
    1f60:	83a1                	srli	a5,a5,0x8
    1f62:	02200713          	li	a4,34
    1f66:	04f76163          	bltu	a4,a5,1fa8 <usb20_fill_buffer_with_descriptor+0x4e>
    1f6a:	6711                	lui	a4,0x4
    1f6c:	078a                	slli	a5,a5,0x2
    1f6e:	7d070713          	addi	a4,a4,2000 # 47d0 <_sbrk+0xcd8>
    1f72:	97ba                	add	a5,a5,a4
    1f74:	439c                	lw	a5,0(a5)
    1f76:	8782                	jr	a5
/home/ju/HydraDancer/enumeration/firmware/src/usb20.c:460
                *pSizeBuffer = ((USB_CFG_DESCR *)g_descriptorConfig)->wTotalLength;
            }
        break;
    case USB_DESCR_TYP_STRING: {
        uint8_t i = descritorRequested.bw.bb1;
        if (i >= 0 && i < _array_addr_len((void **)g_descriptorStrings)) {
    1f78:	8601a683          	lw	a3,-1952(gp) # 20000190 <g_descriptorStrings>
/home/ju/HydraDancer/enumeration/firmware/src/usb20.c:459
        uint8_t i = descritorRequested.bw.bb1;
    1f7c:	0ff57513          	andi	a0,a0,255
_array_addr_len():
/home/ju/HydraDancer/enumeration/firmware/src/usb20.c:48
        if (array[i] == NULL) {
    1f80:	429c                	lw	a5,0(a3)
    1f82:	eb8d                	bnez	a5,1fb4 <usb20_fill_buffer_with_descriptor+0x5a>
usb20_fill_buffer_with_descriptor():
/home/ju/HydraDancer/enumeration/firmware/src/usb20.c:491
        break;
    default:
        log_to_evaluator("ERROR: fill_buffer_with_descriptor() invalid descriptor requested");
        break;
    }
}
    1f84:	8082                	ret
/home/ju/HydraDancer/enumeration/firmware/src/usb20.c:449
        *pBuffer = g_descriptorConfig;
    1f86:	8541a703          	lw	a4,-1964(gp) # 20000184 <g_descriptorConfig>
/home/ju/HydraDancer/enumeration/firmware/src/usb20.c:452
            if (g_descriptorConfigCustomSize != 0) {
    1f8a:	8581d783          	lhu	a5,-1960(gp) # 20000188 <g_descriptorConfigCustomSize>
/home/ju/HydraDancer/enumeration/firmware/src/usb20.c:449
        *pBuffer = g_descriptorConfig;
    1f8e:	c198                	sw	a4,0(a1)
/home/ju/HydraDancer/enumeration/firmware/src/usb20.c:452
            if (g_descriptorConfigCustomSize != 0) {
    1f90:	c7b1                	beqz	a5,1fdc <usb20_fill_buffer_with_descriptor+0x82>
/home/ju/HydraDancer/enumeration/firmware/src/usb20.c:455
                *pSizeBuffer = ((USB_CFG_DESCR *)g_descriptorConfig)->wTotalLength;
    1f92:	00f61023          	sh	a5,0(a2)
    1f96:	8082                	ret
/home/ju/HydraDancer/enumeration/firmware/src/usb20.c:443
        *pBuffer = g_descriptorDevice;
    1f98:	85c1a783          	lw	a5,-1956(gp) # 2000018c <g_descriptorDevice>
    1f9c:	c19c                	sw	a5,0(a1)
/home/ju/HydraDancer/enumeration/firmware/src/usb20.c:444
        *pSizeBuffer = ((USB_DEV_DESCR *)g_descriptorDevice)->bLength;
    1f9e:	0007c783          	lbu	a5,0(a5)
    1fa2:	00f61023          	sh	a5,0(a2)
/home/ju/HydraDancer/enumeration/firmware/src/usb20.c:445
        break;
    1fa6:	8082                	ret
/home/ju/HydraDancer/enumeration/firmware/src/usb20.c:488
        log_to_evaluator("ERROR: fill_buffer_with_descriptor() invalid descriptor requested");
    1fa8:	00005537          	lui	a0,0x5
    1fac:	8e450513          	addi	a0,a0,-1820 # 48e4 <_sbrk+0xdec>
    1fb0:	8f6ff06f          	j	10a6 <log_to_evaluator>
_array_addr_len():
/home/ju/HydraDancer/enumeration/firmware/src/usb20.c:47
    for (uint8_t i = 0;; ++i) {
    1fb4:	4781                	li	a5,0
    1fb6:	0785                	addi	a5,a5,1
    1fb8:	0ff7f793          	andi	a5,a5,255
/home/ju/HydraDancer/enumeration/firmware/src/usb20.c:48
        if (array[i] == NULL) {
    1fbc:	00279713          	slli	a4,a5,0x2
    1fc0:	9736                	add	a4,a4,a3
    1fc2:	4318                	lw	a4,0(a4)
    1fc4:	fb6d                	bnez	a4,1fb6 <usb20_fill_buffer_with_descriptor+0x5c>
usb20_fill_buffer_with_descriptor():
/home/ju/HydraDancer/enumeration/firmware/src/usb20.c:460
        if (i >= 0 && i < _array_addr_len((void **)g_descriptorStrings)) {
    1fc6:	02f57463          	bgeu	a0,a5,1fee <usb20_fill_buffer_with_descriptor+0x94>
/home/ju/HydraDancer/enumeration/firmware/src/usb20.c:461
            *pBuffer = g_descriptorStrings[i];
    1fca:	050a                	slli	a0,a0,0x2
    1fcc:	9536                	add	a0,a0,a3
    1fce:	411c                	lw	a5,0(a0)
    1fd0:	c19c                	sw	a5,0(a1)
/home/ju/HydraDancer/enumeration/firmware/src/usb20.c:462
            *pSizeBuffer = g_descriptorStrings[i][0];
    1fd2:	0007c783          	lbu	a5,0(a5)
    1fd6:	00f61023          	sh	a5,0(a2)
    1fda:	8082                	ret
/home/ju/HydraDancer/enumeration/firmware/src/usb20.c:455
                *pSizeBuffer = ((USB_CFG_DESCR *)g_descriptorConfig)->wTotalLength;
    1fdc:	00374783          	lbu	a5,3(a4)
    1fe0:	00274703          	lbu	a4,2(a4)
    1fe4:	07a2                	slli	a5,a5,0x8
    1fe6:	8fd9                	or	a5,a5,a4
    1fe8:	00f61023          	sh	a5,0(a2)
    1fec:	8082                	ret
    1fee:	8082                	ret

00001ff0 <usb20_ep0_transceive_and_update>:
usb20_ep0_transceive_and_update():
/home/ju/HydraDancer/enumeration/firmware/src/usb20.c:502
 *
 * @return  None
 */
void
usb20_ep0_transceive_and_update(uint8_t uisToken, uint8_t **pBuffer, uint16_t *pSizeBuffer)
{
    1ff0:	1101                	addi	sp,sp,-32
    1ff2:	cc22                	sw	s0,24(sp)
    1ff4:	ce06                	sw	ra,28(sp)
    1ff6:	ca26                	sw	s1,20(sp)
    1ff8:	c84a                	sw	s2,16(sp)
    1ffa:	c64e                	sw	s3,12(sp)
    1ffc:	47c1                	li	a5,16
    1ffe:	842e                	mv	s0,a1
    2000:	08f50163          	beq	a0,a5,2082 <usb20_ep0_transceive_and_update+0x92>
    2004:	06a7f863          	bgeu	a5,a0,2074 <usb20_ep0_transceive_and_update+0x84>
    2008:	02000793          	li	a5,32
    200c:	0cf51063          	bne	a0,a5,20cc <usb20_ep0_transceive_and_update+0xdc>
/home/ju/HydraDancer/enumeration/firmware/src/usb20.c:513
        break;
    case UIS_TOKEN_SOF:
        /* Not implemented */
        break;
    case UIS_TOKEN_IN:
        bytesToWriteForCurrentTransaction = *pSizeBuffer;
    2010:	00065483          	lhu	s1,0(a2)
/home/ju/HydraDancer/enumeration/firmware/src/usb20.c:514
        if (bytesToWriteForCurrentTransaction >= U20_UEP0_MAXSIZE) {
    2014:	03f00793          	li	a5,63
    2018:	8932                	mv	s2,a2
    201a:	418c                	lw	a1,0(a1)
    201c:	0a97fd63          	bgeu	a5,s1,20d6 <usb20_ep0_transceive_and_update+0xe6>
/home/ju/HydraDancer/enumeration/firmware/src/usb20.c:518
            bytesToWriteForCurrentTransaction = U20_UEP0_MAXSIZE;
        }

        if (*pBuffer && bytesToWriteForCurrentTransaction > 0) {
    2020:	c5e1                	beqz	a1,20e8 <usb20_ep0_transceive_and_update+0xf8>
    2022:	04000993          	li	s3,64
/home/ju/HydraDancer/enumeration/firmware/src/usb20.c:515
            bytesToWriteForCurrentTransaction = U20_UEP0_MAXSIZE;
    2026:	04000493          	li	s1,64
/home/ju/HydraDancer/enumeration/firmware/src/usb20.c:519
            memcpy(endp0RTbuff, *pBuffer, bytesToWriteForCurrentTransaction);
    202a:	20023537          	lui	a0,0x20023
    202e:	864e                	mv	a2,s3
    2030:	00050513          	mv	a0,a0
    2034:	2725                	jal	275c <memcpy>
    2036:	00095783          	lhu	a5,0(s2) # 20022000 <serdesDmaAddr>
    203a:	400c                	lw	a1,0(s0)
/home/ju/HydraDancer/enumeration/firmware/src/usb20.c:530
    default:
        log_to_evaluator("ERROR: ep0_transceive_and_update() invalid uisToken");
        break;
    }

    *pSizeBuffer -= bytesToWriteForCurrentTransaction;
    203c:	8f85                	sub	a5,a5,s1
    203e:	00f91023          	sh	a5,0(s2)
/home/ju/HydraDancer/enumeration/firmware/src/usb20.c:541
        R8_UEP0_TX_CTRL ^= RB_UEP_T_TOG_1;
        R8_UEP0_TX_CTRL = (R8_UEP0_TX_CTRL & ~RB_UEP_TRES_MASK) | UEP_T_RES_ACK;
        R8_UEP0_RX_CTRL ^= RB_UEP_R_TOG_1;
        R8_UEP0_RX_CTRL = (R8_UEP0_RX_CTRL & ~RB_UEP_RRES_MASK) | UEP_R_RES_ACK;
    } else {
        *pBuffer += bytesToWriteForCurrentTransaction;
    2042:	95ce                	add	a1,a1,s3
    2044:	c00c                	sw	a1,0(s0)
/home/ju/HydraDancer/enumeration/firmware/src/usb20.c:543

        R16_UEP0_T_LEN = bytesToWriteForCurrentTransaction;
    2046:	400097b7          	lui	a5,0x40009
    204a:	06979823          	sh	s1,112(a5) # 40009070 <_dmadata_end+0x1ffd5e70>
/home/ju/HydraDancer/enumeration/firmware/src/usb20.c:544
        R8_UEP0_TX_CTRL ^= RB_UEP_T_TOG_1;
    204e:	0727c703          	lbu	a4,114(a5)
    2052:	00874713          	xori	a4,a4,8
    2056:	06e78923          	sb	a4,114(a5)
/home/ju/HydraDancer/enumeration/firmware/src/usb20.c:545
        R8_UEP0_TX_CTRL = (R8_UEP0_TX_CTRL & ~RB_UEP_TRES_MASK) | UEP_T_RES_ACK;
    205a:	0727c703          	lbu	a4,114(a5)
    205e:	0fc77713          	andi	a4,a4,252
    2062:	06e78923          	sb	a4,114(a5)
/home/ju/HydraDancer/enumeration/firmware/src/usb20.c:547
    }
}
    2066:	40f2                	lw	ra,28(sp)
    2068:	4462                	lw	s0,24(sp)
    206a:	44d2                	lw	s1,20(sp)
    206c:	4942                	lw	s2,16(sp)
    206e:	49b2                	lw	s3,12(sp)
    2070:	6105                	addi	sp,sp,32
    2072:	8082                	ret
    2074:	c519                	beqz	a0,2082 <usb20_ep0_transceive_and_update+0x92>
/home/ju/HydraDancer/enumeration/firmware/src/usb20.c:526
        log_to_evaluator("ERROR: ep0_transceive_and_update() invalid uisToken");
    2076:	00005537          	lui	a0,0x5
    207a:	8b050513          	addi	a0,a0,-1872 # 48b0 <_sbrk+0xdb8>
    207e:	828ff0ef          	jal	ra,10a6 <log_to_evaluator>
/home/ju/HydraDancer/enumeration/firmware/src/usb20.c:533
        *pBuffer = NULL;
    2082:	00042023          	sw	zero,0(s0) # 20022000 <serdesDmaAddr>
/home/ju/HydraDancer/enumeration/firmware/src/usb20.c:535
        R16_UEP0_T_LEN = 0;
    2086:	400097b7          	lui	a5,0x40009
    208a:	06079823          	sh	zero,112(a5) # 40009070 <_dmadata_end+0x1ffd5e70>
/home/ju/HydraDancer/enumeration/firmware/src/usb20.c:536
        R8_UEP0_TX_CTRL ^= RB_UEP_T_TOG_1;
    208e:	0727c703          	lbu	a4,114(a5)
    2092:	00874713          	xori	a4,a4,8
    2096:	06e78923          	sb	a4,114(a5)
/home/ju/HydraDancer/enumeration/firmware/src/usb20.c:537
        R8_UEP0_TX_CTRL = (R8_UEP0_TX_CTRL & ~RB_UEP_TRES_MASK) | UEP_T_RES_ACK;
    209a:	0727c703          	lbu	a4,114(a5)
    209e:	0fc77713          	andi	a4,a4,252
    20a2:	06e78923          	sb	a4,114(a5)
/home/ju/HydraDancer/enumeration/firmware/src/usb20.c:538
        R8_UEP0_RX_CTRL ^= RB_UEP_R_TOG_1;
    20a6:	0737c703          	lbu	a4,115(a5)
    20aa:	00874713          	xori	a4,a4,8
    20ae:	06e789a3          	sb	a4,115(a5)
/home/ju/HydraDancer/enumeration/firmware/src/usb20.c:539
        R8_UEP0_RX_CTRL = (R8_UEP0_RX_CTRL & ~RB_UEP_RRES_MASK) | UEP_R_RES_ACK;
    20b2:	0737c703          	lbu	a4,115(a5)
    20b6:	0fc77713          	andi	a4,a4,252
    20ba:	06e789a3          	sb	a4,115(a5)
/home/ju/HydraDancer/enumeration/firmware/src/usb20.c:547
}
    20be:	40f2                	lw	ra,28(sp)
    20c0:	4462                	lw	s0,24(sp)
    20c2:	44d2                	lw	s1,20(sp)
    20c4:	4942                	lw	s2,16(sp)
    20c6:	49b2                	lw	s3,12(sp)
    20c8:	6105                	addi	sp,sp,32
    20ca:	8082                	ret
    20cc:	03000793          	li	a5,48
    20d0:	faf513e3          	bne	a0,a5,2076 <usb20_ep0_transceive_and_update+0x86>
    20d4:	b77d                	j	2082 <usb20_ep0_transceive_and_update+0x92>
/home/ju/HydraDancer/enumeration/firmware/src/usb20.c:518
        if (*pBuffer && bytesToWriteForCurrentTransaction > 0) {
    20d6:	c581                	beqz	a1,20de <usb20_ep0_transceive_and_update+0xee>
    20d8:	89a6                	mv	s3,s1
/home/ju/HydraDancer/enumeration/firmware/src/usb20.c:518 (discriminator 1)
    20da:	d4c5                	beqz	s1,2082 <usb20_ep0_transceive_and_update+0x92>
    20dc:	b7b9                	j	202a <usb20_ep0_transceive_and_update+0x3a>
/home/ju/HydraDancer/enumeration/firmware/src/usb20.c:530
    *pSizeBuffer -= bytesToWriteForCurrentTransaction;
    20de:	00061023          	sh	zero,0(a2)
/home/ju/HydraDancer/enumeration/firmware/src/usb20.c:532
    if (bytesToWriteForCurrentTransaction == 0) {    /* If it was the last transaction */
    20e2:	89a6                	mv	s3,s1
    20e4:	fcb9                	bnez	s1,2042 <usb20_ep0_transceive_and_update+0x52>
    20e6:	bf71                	j	2082 <usb20_ep0_transceive_and_update+0x92>
/home/ju/HydraDancer/enumeration/firmware/src/usb20.c:518
        if (*pBuffer && bytesToWriteForCurrentTransaction > 0) {
    20e8:	87a6                	mv	a5,s1
    20ea:	04000993          	li	s3,64
/home/ju/HydraDancer/enumeration/firmware/src/usb20.c:515
            bytesToWriteForCurrentTransaction = U20_UEP0_MAXSIZE;
    20ee:	04000493          	li	s1,64
    20f2:	b7a9                	j	203c <usb20_ep0_transceive_and_update+0x4c>

000020f4 <usb20_vlog>:
usb20_vlog():
/home/ju/HydraDancer/enumeration/firmware/src/usb20.c:608
 *
 * @return  None
 */
void
usb20_vlog(enum Endpoint endp, const char *fmt, va_list ap)
{
    20f4:	1101                	addi	sp,sp,-32
    20f6:	ce06                	sw	ra,28(sp)
    20f8:	cc22                	sw	s0,24(sp)
    20fa:	ca26                	sw	s1,20(sp)
    20fc:	04000793          	li	a5,64
    2100:	02f50163          	beq	a0,a5,2122 <usb20_vlog+0x2e>
    2104:	08000793          	li	a5,128
    2108:	04f50d63          	beq	a0,a5,2162 <usb20_vlog+0x6e>
/home/ju/HydraDancer/enumeration/firmware/src/usb20.c:646
    }
    
    bytesWritten = vsnprintf(loggingbuff + *pSizeLoggingBuff, sizeLeft, fmt, ap);
    *pSizeLoggingBuff += bytesWritten;
    bsp_enable_interrupt();
}
    210c:	4462                	lw	s0,24(sp)
    210e:	40f2                	lw	ra,28(sp)
    2110:	44d2                	lw	s1,20(sp)
/home/ju/HydraDancer/enumeration/firmware/src/usb20.c:628
        log_to_evaluator("ERROR: usb20_log() cannot log on given endpoint (%x)\r\n", endp);
    2112:	85aa                	mv	a1,a0
    2114:	00005537          	lui	a0,0x5
    2118:	92850513          	addi	a0,a0,-1752 # 4928 <_sbrk+0xe30>
/home/ju/HydraDancer/enumeration/firmware/src/usb20.c:646
}
    211c:	6105                	addi	sp,sp,32
/home/ju/HydraDancer/enumeration/firmware/src/usb20.c:628
        log_to_evaluator("ERROR: usb20_log() cannot log on given endpoint (%x)\r\n", endp);
    211e:	f89fe06f          	j	10a6 <log_to_evaluator>
/home/ju/HydraDancer/enumeration/firmware/src/usb20.c:618
        loggingbuff = endp6LoggingBuff;
    2122:	80c1a483          	lw	s1,-2036(gp) # 2000013c <endp6LoggingBuff>
/home/ju/HydraDancer/enumeration/firmware/src/usb20.c:620
        capLoggingBuff = capacityEndp6LoggingBuff;
    2126:	86b2                	mv	a3,a2
    2128:	8181d783          	lhu	a5,-2024(gp) # 20000148 <capacityEndp6LoggingBuff>
/home/ju/HydraDancer/enumeration/firmware/src/usb20.c:619
        pSizeLoggingBuff = &sizeEndp6LoggingBuff;
    212c:	87018413          	addi	s0,gp,-1936 # 200001a0 <sizeEndp6LoggingBuff>
    2130:	862e                	mv	a2,a1
/home/ju/HydraDancer/enumeration/firmware/src/usb20.c:635
    bsp_disable_interrupt();
    2132:	30047073          	csrci	mstatus,8
/home/ju/HydraDancer/enumeration/firmware/src/usb20.c:636
    sizeLeft = capLoggingBuff - *pSizeLoggingBuff;
    2136:	00045503          	lhu	a0,0(s0)
/home/ju/HydraDancer/enumeration/firmware/src/usb20.c:638
    if (*pSizeLoggingBuff >= capLoggingBuff) {
    213a:	04f57263          	bgeu	a0,a5,217e <usb20_vlog+0x8a>
/home/ju/HydraDancer/enumeration/firmware/src/usb20.c:636
    sizeLeft = capLoggingBuff - *pSizeLoggingBuff;
    213e:	8f89                	sub	a5,a5,a0
    2140:	01079593          	slli	a1,a5,0x10
    2144:	81c1                	srli	a1,a1,0x10
/home/ju/HydraDancer/enumeration/firmware/src/usb20.c:643
    bytesWritten = vsnprintf(loggingbuff + *pSizeLoggingBuff, sizeLeft, fmt, ap);
    2146:	9526                	add	a0,a0,s1
    2148:	2789                	jal	288a <vsniprintf>
/home/ju/HydraDancer/enumeration/firmware/src/usb20.c:644
    *pSizeLoggingBuff += bytesWritten;
    214a:	00045783          	lhu	a5,0(s0)
    214e:	953e                	add	a0,a0,a5
    2150:	00a41023          	sh	a0,0(s0)
/home/ju/HydraDancer/enumeration/firmware/src/usb20.c:645
    bsp_enable_interrupt();
    2154:	30046073          	csrsi	mstatus,8
/home/ju/HydraDancer/enumeration/firmware/src/usb20.c:646
}
    2158:	40f2                	lw	ra,28(sp)
    215a:	4462                	lw	s0,24(sp)
    215c:	44d2                	lw	s1,20(sp)
    215e:	6105                	addi	sp,sp,32
    2160:	8082                	ret
/home/ju/HydraDancer/enumeration/firmware/src/usb20.c:623
        loggingbuff = endp7LoggingBuff;
    2162:	8101a483          	lw	s1,-2032(gp) # 20000140 <endp7LoggingBuff>
/home/ju/HydraDancer/enumeration/firmware/src/usb20.c:625
        capLoggingBuff = capacityEndp7LoggingBuff;
    2166:	86b2                	mv	a3,a2
    2168:	81a1d783          	lhu	a5,-2022(gp) # 2000014a <capacityEndp7LoggingBuff>
/home/ju/HydraDancer/enumeration/firmware/src/usb20.c:624
        pSizeLoggingBuff = &sizeEndp7LoggingBuff;
    216c:	87218413          	addi	s0,gp,-1934 # 200001a2 <sizeEndp7LoggingBuff>
    2170:	862e                	mv	a2,a1
/home/ju/HydraDancer/enumeration/firmware/src/usb20.c:635
    bsp_disable_interrupt();
    2172:	30047073          	csrci	mstatus,8
/home/ju/HydraDancer/enumeration/firmware/src/usb20.c:636
    sizeLeft = capLoggingBuff - *pSizeLoggingBuff;
    2176:	00045503          	lhu	a0,0(s0)
/home/ju/HydraDancer/enumeration/firmware/src/usb20.c:638
    if (*pSizeLoggingBuff >= capLoggingBuff) {
    217a:	fcf562e3          	bltu	a0,a5,213e <usb20_vlog+0x4a>
/home/ju/HydraDancer/enumeration/firmware/src/usb20.c:639
        log_to_evaluator("ERROR: usb20_log() buffer already filled!");
    217e:	00005537          	lui	a0,0x5
    2182:	96050513          	addi	a0,a0,-1696 # 4960 <_sbrk+0xe68>
    2186:	c636                	sw	a3,12(sp)
    2188:	c42e                	sw	a1,8(sp)
    218a:	f1dfe0ef          	jal	ra,10a6 <log_to_evaluator>
/home/ju/HydraDancer/enumeration/firmware/src/usb20.c:640
        sizeLeft = 0;
    218e:	00045503          	lhu	a0,0(s0)
/home/ju/HydraDancer/enumeration/firmware/src/usb20.c:639
        log_to_evaluator("ERROR: usb20_log() buffer already filled!");
    2192:	4581                	li	a1,0
    2194:	46b2                	lw	a3,12(sp)
    2196:	4622                	lw	a2,8(sp)
    2198:	b77d                	j	2146 <usb20_vlog+0x52>

0000219a <ep1_transceive_and_update_host>:
ep1_transceive_and_update_host():
/home/ju/HydraDancer/enumeration/firmware/src/usb20-endpoints.c:111
 */
void
ep1_transceive_and_update_host(uint8_t uisToken, uint8_t **pBuffer, uint16_t *pSizeBuffer)
{
    static uint8_t *bufferResetValue = NULL;
    if (bufferResetValue == NULL) {
    219a:	86418793          	addi	a5,gp,-1948 # 20000194 <bufferResetValue.4199>
    219e:	4398                	lw	a4,0(a5)
    21a0:	cf01                	beqz	a4,21b8 <ep1_transceive_and_update_host+0x1e>
/home/ju/HydraDancer/enumeration/firmware/src/usb20-endpoints.c:115
        bufferResetValue = *pBuffer;
    }

    switch (uisToken) {
    21a2:	cd11                	beqz	a0,21be <ep1_transceive_and_update_host+0x24>
    21a4:	02000793          	li	a5,32
    21a8:	04f50d63          	beq	a0,a5,2202 <ep1_transceive_and_update_host+0x68>
/home/ju/HydraDancer/enumeration/firmware/src/usb20-endpoints.c:137
        R8_UEP1_TX_CTRL ^= RB_UEP_T_TOG_1;
        R8_UEP1_TX_CTRL = (R8_UEP1_TX_CTRL & ~RB_UEP_TRES_MASK) | UEP_T_RES_ACK;

        break;
    default:
        log_to_evaluator("ERROR: ep1_transceive_and_update default!");
    21ac:	00005537          	lui	a0,0x5
    21b0:	9cc50513          	addi	a0,a0,-1588 # 49cc <_sbrk+0xed4>
    21b4:	ef3fe06f          	j	10a6 <log_to_evaluator>
/home/ju/HydraDancer/enumeration/firmware/src/usb20-endpoints.c:112
        bufferResetValue = *pBuffer;
    21b8:	4198                	lw	a4,0(a1)
    21ba:	c398                	sw	a4,0(a5)
/home/ju/HydraDancer/enumeration/firmware/src/usb20-endpoints.c:115
    switch (uisToken) {
    21bc:	f565                	bnez	a0,21a4 <ep1_transceive_and_update_host+0xa>
/home/ju/HydraDancer/enumeration/firmware/src/usb20-endpoints.c:109
{
    21be:	1141                	addi	sp,sp,-16
/home/ju/HydraDancer/enumeration/firmware/src/usb20-endpoints.c:120
        usb20_endpoint_nak(0x81);
    21c0:	08100513          	li	a0,129
/home/ju/HydraDancer/enumeration/firmware/src/usb20-endpoints.c:109
{
    21c4:	c606                	sw	ra,12(sp)
/home/ju/HydraDancer/enumeration/firmware/src/usb20-endpoints.c:120
        usb20_endpoint_nak(0x81);
    21c6:	b91ff0ef          	jal	ra,1d56 <usb20_endpoint_nak>
/home/ju/HydraDancer/enumeration/firmware/src/usb20-endpoints.c:123
        memcpy(hspi_get_buffer_next_tx(), endp1Rbuff, min(HSPI_DMA_LEN, U20_UEP1_MAXSIZE));
    21ca:	e9dfe0ef          	jal	ra,1066 <hspi_get_buffer_next_tx>
    21ce:	200305b7          	lui	a1,0x20030
    21d2:	20000613          	li	a2,512
    21d6:	20058593          	addi	a1,a1,512 # 20030200 <endp1Rbuff>
    21da:	2349                	jal	275c <memcpy>
/home/ju/HydraDancer/enumeration/firmware/src/usb20-endpoints.c:124
        HSPI_DMA_Tx();
    21dc:	8b7fe0ef          	jal	ra,a92 <HSPI_DMA_Tx>
/home/ju/HydraDancer/enumeration/firmware/src/usb20-endpoints.c:126
        R8_UEP1_RX_CTRL ^= RB_UEP_R_TOG_1;
    21e0:	400097b7          	lui	a5,0x40009
    21e4:	0777c703          	lbu	a4,119(a5) # 40009077 <_dmadata_end+0x1ffd5e77>
    21e8:	00874713          	xori	a4,a4,8
    21ec:	06e78ba3          	sb	a4,119(a5)
/home/ju/HydraDancer/enumeration/firmware/src/usb20-endpoints.c:127
        R8_UEP1_RX_CTRL = (R8_UEP1_RX_CTRL & ~RB_UEP_RRES_MASK) | UEP_R_RES_ACK;
    21f0:	0777c703          	lbu	a4,119(a5)
    21f4:	0fc77713          	andi	a4,a4,252
    21f8:	06e78ba3          	sb	a4,119(a5)
/home/ju/HydraDancer/enumeration/firmware/src/usb20-endpoints.c:140
        break;
    }
}
    21fc:	40b2                	lw	ra,12(sp)
    21fe:	0141                	addi	sp,sp,16
    2200:	8082                	ret
/home/ju/HydraDancer/enumeration/firmware/src/usb20-endpoints.c:131
        R16_UEP1_T_LEN = 1;
    2202:	400097b7          	lui	a5,0x40009
    2206:	4705                	li	a4,1
    2208:	06e79a23          	sh	a4,116(a5) # 40009074 <_dmadata_end+0x1ffd5e74>
/home/ju/HydraDancer/enumeration/firmware/src/usb20-endpoints.c:132
        R8_UEP1_TX_CTRL ^= RB_UEP_T_TOG_1;
    220c:	0767c703          	lbu	a4,118(a5)
    2210:	00874713          	xori	a4,a4,8
    2214:	06e78b23          	sb	a4,118(a5)
/home/ju/HydraDancer/enumeration/firmware/src/usb20-endpoints.c:133
        R8_UEP1_TX_CTRL = (R8_UEP1_TX_CTRL & ~RB_UEP_TRES_MASK) | UEP_T_RES_ACK;
    2218:	0767c703          	lbu	a4,118(a5)
    221c:	0fc77713          	andi	a4,a4,252
    2220:	06e78b23          	sb	a4,118(a5)
/home/ju/HydraDancer/enumeration/firmware/src/usb20-endpoints.c:135
        break;
    2224:	8082                	ret

00002226 <epX_handler_toe>:
epX_handler_toe():
/home/ju/HydraDancer/enumeration/firmware/src/usb20-endpoints.c:152
 * @return  None
 */
void
epX_handler_toe(uint8_t uisToken, uint8_t endpoint)
{
    switch (uisToken) {
    2226:	c919                	beqz	a0,223c <epX_handler_toe+0x16>
    2228:	02000793          	li	a5,32
    222c:	02f50263          	beq	a0,a5,2250 <epX_handler_toe+0x2a>
/home/ju/HydraDancer/enumeration/firmware/src/usb20-endpoints.c:231
                log_to_evaluator("ERROR: epX_handler_toe() invalid endpoint (IN)\r\n");
                return;
            }
        break;
    default:
        log_to_evaluator("ERROR: epX_handler_toe() default!\r\n");
    2230:	00005537          	lui	a0,0x5
    2234:	ab050513          	addi	a0,a0,-1360 # 4ab0 <_sbrk+0xfb8>
    2238:	e6ffe06f          	j	10a6 <log_to_evaluator>
/home/ju/HydraDancer/enumeration/firmware/src/usb20-endpoints.c:154
            switch (endpoint) {
    223c:	479d                	li	a5,7
    223e:	1eb7e363          	bltu	a5,a1,2424 <epX_handler_toe+0x1fe>
    2242:	6795                	lui	a5,0x5
    2244:	98c78793          	addi	a5,a5,-1652 # 498c <_sbrk+0xe94>
    2248:	058a                	slli	a1,a1,0x2
    224a:	95be                	add	a1,a1,a5
    224c:	419c                	lw	a5,0(a1)
    224e:	8782                	jr	a5
/home/ju/HydraDancer/enumeration/firmware/src/usb20-endpoints.c:196
            switch (endpoint) {
    2250:	479d                	li	a5,7
    2252:	1cb7ef63          	bltu	a5,a1,2430 <epX_handler_toe+0x20a>
    2256:	6795                	lui	a5,0x5
    2258:	9ac78793          	addi	a5,a5,-1620 # 49ac <_sbrk+0xeb4>
    225c:	058a                	slli	a1,a1,0x2
    225e:	95be                	add	a1,a1,a5
    2260:	419c                	lw	a5,0(a1)
    2262:	8782                	jr	a5
/home/ju/HydraDancer/enumeration/firmware/src/usb20-endpoints.c:222
                R8_UEP7_RX_CTRL ^= RB_UEP_T_TOG_1;
    2264:	400097b7          	lui	a5,0x40009
    2268:	08f7c703          	lbu	a4,143(a5) # 4000908f <_dmadata_end+0x1ffd5e8f>
    226c:	00874713          	xori	a4,a4,8
    2270:	08e787a3          	sb	a4,143(a5)
/home/ju/HydraDancer/enumeration/firmware/src/usb20-endpoints.c:223
                R8_UEP7_RX_CTRL = (R8_UEP7_RX_CTRL & ~RB_UEP_TRES_MASK) | UEP_T_RES_ACK;
    2274:	08f7c703          	lbu	a4,143(a5)
    2278:	0fc77713          	andi	a4,a4,252
    227c:	08e787a3          	sb	a4,143(a5)
/home/ju/HydraDancer/enumeration/firmware/src/usb20-endpoints.c:234
        return;
    }
}
    2280:	8082                	ret
/home/ju/HydraDancer/enumeration/firmware/src/usb20-endpoints.c:156
                R16_UEP1_T_LEN = 0;
    2282:	400097b7          	lui	a5,0x40009
    2286:	06079a23          	sh	zero,116(a5) # 40009074 <_dmadata_end+0x1ffd5e74>
/home/ju/HydraDancer/enumeration/firmware/src/usb20-endpoints.c:157
                R8_UEP1_TX_CTRL ^= RB_UEP_T_TOG_1;
    228a:	0767c703          	lbu	a4,118(a5)
    228e:	00874713          	xori	a4,a4,8
    2292:	06e78b23          	sb	a4,118(a5)
/home/ju/HydraDancer/enumeration/firmware/src/usb20-endpoints.c:158
                R8_UEP1_TX_CTRL = (R8_UEP1_TX_CTRL & ~RB_UEP_TRES_MASK) | UEP_T_RES_ACK;
    2296:	0767c703          	lbu	a4,118(a5)
    229a:	0fc77713          	andi	a4,a4,252
    229e:	06e78b23          	sb	a4,118(a5)
/home/ju/HydraDancer/enumeration/firmware/src/usb20-endpoints.c:159
                break;
    22a2:	8082                	ret
/home/ju/HydraDancer/enumeration/firmware/src/usb20-endpoints.c:161
                R16_UEP2_T_LEN = 0;
    22a4:	400097b7          	lui	a5,0x40009
    22a8:	06079c23          	sh	zero,120(a5) # 40009078 <_dmadata_end+0x1ffd5e78>
/home/ju/HydraDancer/enumeration/firmware/src/usb20-endpoints.c:162
                R8_UEP2_TX_CTRL ^= RB_UEP_T_TOG_1;
    22ac:	07a7c703          	lbu	a4,122(a5)
    22b0:	00874713          	xori	a4,a4,8
    22b4:	06e78d23          	sb	a4,122(a5)
/home/ju/HydraDancer/enumeration/firmware/src/usb20-endpoints.c:163
                R8_UEP2_TX_CTRL = (R8_UEP2_TX_CTRL & ~RB_UEP_TRES_MASK) | UEP_T_RES_ACK;
    22b8:	07a7c703          	lbu	a4,122(a5)
    22bc:	0fc77713          	andi	a4,a4,252
    22c0:	06e78d23          	sb	a4,122(a5)
/home/ju/HydraDancer/enumeration/firmware/src/usb20-endpoints.c:164
                break;
    22c4:	8082                	ret
/home/ju/HydraDancer/enumeration/firmware/src/usb20-endpoints.c:166
                R16_UEP3_T_LEN = 0;
    22c6:	400097b7          	lui	a5,0x40009
    22ca:	06079e23          	sh	zero,124(a5) # 4000907c <_dmadata_end+0x1ffd5e7c>
/home/ju/HydraDancer/enumeration/firmware/src/usb20-endpoints.c:167
                R8_UEP3_TX_CTRL ^= RB_UEP_T_TOG_1;
    22ce:	07e7c703          	lbu	a4,126(a5)
    22d2:	00874713          	xori	a4,a4,8
    22d6:	06e78f23          	sb	a4,126(a5)
/home/ju/HydraDancer/enumeration/firmware/src/usb20-endpoints.c:168
                R8_UEP3_TX_CTRL = (R8_UEP3_TX_CTRL & ~RB_UEP_TRES_MASK) | UEP_T_RES_ACK;
    22da:	07e7c703          	lbu	a4,126(a5)
    22de:	0fc77713          	andi	a4,a4,252
    22e2:	06e78f23          	sb	a4,126(a5)
/home/ju/HydraDancer/enumeration/firmware/src/usb20-endpoints.c:169
                break;
    22e6:	8082                	ret
/home/ju/HydraDancer/enumeration/firmware/src/usb20-endpoints.c:171
                R16_UEP4_T_LEN = 0;
    22e8:	400097b7          	lui	a5,0x40009
    22ec:	08079023          	sh	zero,128(a5) # 40009080 <_dmadata_end+0x1ffd5e80>
/home/ju/HydraDancer/enumeration/firmware/src/usb20-endpoints.c:172
                R8_UEP4_TX_CTRL ^= RB_UEP_T_TOG_1;
    22f0:	0827c703          	lbu	a4,130(a5)
    22f4:	00874713          	xori	a4,a4,8
    22f8:	08e78123          	sb	a4,130(a5)
/home/ju/HydraDancer/enumeration/firmware/src/usb20-endpoints.c:173
                R8_UEP4_TX_CTRL = (R8_UEP4_TX_CTRL & ~RB_UEP_TRES_MASK) | UEP_T_RES_ACK;
    22fc:	0827c703          	lbu	a4,130(a5)
    2300:	0fc77713          	andi	a4,a4,252
    2304:	08e78123          	sb	a4,130(a5)
/home/ju/HydraDancer/enumeration/firmware/src/usb20-endpoints.c:174
                break;
    2308:	8082                	ret
/home/ju/HydraDancer/enumeration/firmware/src/usb20-endpoints.c:176
                R16_UEP5_T_LEN = 0;
    230a:	400097b7          	lui	a5,0x40009
    230e:	08079223          	sh	zero,132(a5) # 40009084 <_dmadata_end+0x1ffd5e84>
/home/ju/HydraDancer/enumeration/firmware/src/usb20-endpoints.c:177
                R8_UEP5_TX_CTRL ^= RB_UEP_T_TOG_1;
    2312:	0867c703          	lbu	a4,134(a5)
    2316:	00874713          	xori	a4,a4,8
    231a:	08e78323          	sb	a4,134(a5)
/home/ju/HydraDancer/enumeration/firmware/src/usb20-endpoints.c:178
                R8_UEP5_TX_CTRL = (R8_UEP5_TX_CTRL & ~RB_UEP_TRES_MASK) | UEP_T_RES_ACK;
    231e:	0867c703          	lbu	a4,134(a5)
    2322:	0fc77713          	andi	a4,a4,252
    2326:	08e78323          	sb	a4,134(a5)
/home/ju/HydraDancer/enumeration/firmware/src/usb20-endpoints.c:179
                break;
    232a:	8082                	ret
/home/ju/HydraDancer/enumeration/firmware/src/usb20-endpoints.c:181
                R16_UEP6_T_LEN = 0;
    232c:	400097b7          	lui	a5,0x40009
    2330:	08079423          	sh	zero,136(a5) # 40009088 <_dmadata_end+0x1ffd5e88>
/home/ju/HydraDancer/enumeration/firmware/src/usb20-endpoints.c:182
                R8_UEP6_TX_CTRL ^= RB_UEP_T_TOG_1;
    2334:	08a7c703          	lbu	a4,138(a5)
    2338:	00874713          	xori	a4,a4,8
    233c:	08e78523          	sb	a4,138(a5)
/home/ju/HydraDancer/enumeration/firmware/src/usb20-endpoints.c:183
                R8_UEP6_TX_CTRL = (R8_UEP6_TX_CTRL & ~RB_UEP_TRES_MASK) | UEP_T_RES_ACK;
    2340:	08a7c703          	lbu	a4,138(a5)
    2344:	0fc77713          	andi	a4,a4,252
    2348:	08e78523          	sb	a4,138(a5)
/home/ju/HydraDancer/enumeration/firmware/src/usb20-endpoints.c:184
                break;
    234c:	8082                	ret
/home/ju/HydraDancer/enumeration/firmware/src/usb20-endpoints.c:186
                R16_UEP7_T_LEN = 0;
    234e:	400097b7          	lui	a5,0x40009
    2352:	08079623          	sh	zero,140(a5) # 4000908c <_dmadata_end+0x1ffd5e8c>
/home/ju/HydraDancer/enumeration/firmware/src/usb20-endpoints.c:187
                R8_UEP7_TX_CTRL ^= RB_UEP_T_TOG_1;
    2356:	08e7c703          	lbu	a4,142(a5)
    235a:	00874713          	xori	a4,a4,8
    235e:	08e78723          	sb	a4,142(a5)
/home/ju/HydraDancer/enumeration/firmware/src/usb20-endpoints.c:188
                R8_UEP7_TX_CTRL = (R8_UEP7_TX_CTRL & ~RB_UEP_TRES_MASK) | UEP_T_RES_ACK;
    2362:	08e7c703          	lbu	a4,142(a5)
    2366:	0fc77713          	andi	a4,a4,252
    236a:	08e78723          	sb	a4,142(a5)
/home/ju/HydraDancer/enumeration/firmware/src/usb20-endpoints.c:189
                break;
    236e:	8082                	ret
/home/ju/HydraDancer/enumeration/firmware/src/usb20-endpoints.c:198
                R8_UEP1_RX_CTRL ^= RB_UEP_T_TOG_1;
    2370:	400097b7          	lui	a5,0x40009
    2374:	0777c703          	lbu	a4,119(a5) # 40009077 <_dmadata_end+0x1ffd5e77>
    2378:	00874713          	xori	a4,a4,8
    237c:	06e78ba3          	sb	a4,119(a5)
/home/ju/HydraDancer/enumeration/firmware/src/usb20-endpoints.c:199
                R8_UEP1_RX_CTRL = (R8_UEP1_RX_CTRL & ~RB_UEP_TRES_MASK) | UEP_T_RES_ACK;
    2380:	0777c703          	lbu	a4,119(a5)
    2384:	0fc77713          	andi	a4,a4,252
    2388:	06e78ba3          	sb	a4,119(a5)
/home/ju/HydraDancer/enumeration/firmware/src/usb20-endpoints.c:200
                break;
    238c:	8082                	ret
/home/ju/HydraDancer/enumeration/firmware/src/usb20-endpoints.c:202
                R8_UEP2_RX_CTRL ^= RB_UEP_T_TOG_1;
    238e:	400097b7          	lui	a5,0x40009
    2392:	07b7c703          	lbu	a4,123(a5) # 4000907b <_dmadata_end+0x1ffd5e7b>
    2396:	00874713          	xori	a4,a4,8
    239a:	06e78da3          	sb	a4,123(a5)
/home/ju/HydraDancer/enumeration/firmware/src/usb20-endpoints.c:203
                R8_UEP2_RX_CTRL = (R8_UEP2_RX_CTRL & ~RB_UEP_TRES_MASK) | UEP_T_RES_ACK;
    239e:	07b7c703          	lbu	a4,123(a5)
    23a2:	0fc77713          	andi	a4,a4,252
    23a6:	06e78da3          	sb	a4,123(a5)
/home/ju/HydraDancer/enumeration/firmware/src/usb20-endpoints.c:204
                break;
    23aa:	8082                	ret
/home/ju/HydraDancer/enumeration/firmware/src/usb20-endpoints.c:206
                R8_UEP3_RX_CTRL ^= RB_UEP_T_TOG_1;
    23ac:	400097b7          	lui	a5,0x40009
    23b0:	07f7c703          	lbu	a4,127(a5) # 4000907f <_dmadata_end+0x1ffd5e7f>
    23b4:	00874713          	xori	a4,a4,8
    23b8:	06e78fa3          	sb	a4,127(a5)
/home/ju/HydraDancer/enumeration/firmware/src/usb20-endpoints.c:207
                R8_UEP3_RX_CTRL = (R8_UEP3_RX_CTRL & ~RB_UEP_TRES_MASK) | UEP_T_RES_ACK;
    23bc:	07f7c703          	lbu	a4,127(a5)
    23c0:	0fc77713          	andi	a4,a4,252
    23c4:	06e78fa3          	sb	a4,127(a5)
/home/ju/HydraDancer/enumeration/firmware/src/usb20-endpoints.c:208
                break;
    23c8:	8082                	ret
/home/ju/HydraDancer/enumeration/firmware/src/usb20-endpoints.c:210
                R8_UEP4_RX_CTRL ^= RB_UEP_T_TOG_1;
    23ca:	400097b7          	lui	a5,0x40009
    23ce:	0837c703          	lbu	a4,131(a5) # 40009083 <_dmadata_end+0x1ffd5e83>
    23d2:	00874713          	xori	a4,a4,8
    23d6:	08e781a3          	sb	a4,131(a5)
/home/ju/HydraDancer/enumeration/firmware/src/usb20-endpoints.c:211
                R8_UEP4_RX_CTRL = (R8_UEP4_RX_CTRL & ~RB_UEP_TRES_MASK) | UEP_T_RES_ACK;
    23da:	0837c703          	lbu	a4,131(a5)
    23de:	0fc77713          	andi	a4,a4,252
    23e2:	08e781a3          	sb	a4,131(a5)
/home/ju/HydraDancer/enumeration/firmware/src/usb20-endpoints.c:212
                break;
    23e6:	8082                	ret
/home/ju/HydraDancer/enumeration/firmware/src/usb20-endpoints.c:214
                R8_UEP5_RX_CTRL ^= RB_UEP_T_TOG_1;
    23e8:	400097b7          	lui	a5,0x40009
    23ec:	0877c703          	lbu	a4,135(a5) # 40009087 <_dmadata_end+0x1ffd5e87>
    23f0:	00874713          	xori	a4,a4,8
    23f4:	08e783a3          	sb	a4,135(a5)
/home/ju/HydraDancer/enumeration/firmware/src/usb20-endpoints.c:215
                R8_UEP5_RX_CTRL = (R8_UEP5_RX_CTRL & ~RB_UEP_TRES_MASK) | UEP_T_RES_ACK;
    23f8:	0877c703          	lbu	a4,135(a5)
    23fc:	0fc77713          	andi	a4,a4,252
    2400:	08e783a3          	sb	a4,135(a5)
/home/ju/HydraDancer/enumeration/firmware/src/usb20-endpoints.c:216
                break;
    2404:	8082                	ret
/home/ju/HydraDancer/enumeration/firmware/src/usb20-endpoints.c:218
                R8_UEP6_RX_CTRL ^= RB_UEP_T_TOG_1;
    2406:	400097b7          	lui	a5,0x40009
    240a:	08b7c703          	lbu	a4,139(a5) # 4000908b <_dmadata_end+0x1ffd5e8b>
    240e:	00874713          	xori	a4,a4,8
    2412:	08e785a3          	sb	a4,139(a5)
/home/ju/HydraDancer/enumeration/firmware/src/usb20-endpoints.c:219
                R8_UEP6_RX_CTRL = (R8_UEP6_RX_CTRL & ~RB_UEP_TRES_MASK) | UEP_T_RES_ACK;
    2416:	08b7c703          	lbu	a4,139(a5)
    241a:	0fc77713          	andi	a4,a4,252
    241e:	08e785a3          	sb	a4,139(a5)
/home/ju/HydraDancer/enumeration/firmware/src/usb20-endpoints.c:220
                break;
    2422:	8082                	ret
/home/ju/HydraDancer/enumeration/firmware/src/usb20-endpoints.c:191
                log_to_evaluator("ERROR: epX_handler_toe() invalid endpoint (OUT)\r\n");
    2424:	00005537          	lui	a0,0x5
    2428:	a4850513          	addi	a0,a0,-1464 # 4a48 <_sbrk+0xf50>
    242c:	c7bfe06f          	j	10a6 <log_to_evaluator>
/home/ju/HydraDancer/enumeration/firmware/src/usb20-endpoints.c:226
                log_to_evaluator("ERROR: epX_handler_toe() invalid endpoint (IN)\r\n");
    2430:	00005537          	lui	a0,0x5
    2434:	a7c50513          	addi	a0,a0,-1412 # 4a7c <_sbrk+0xf84>
    2438:	c6ffe06f          	j	10a6 <log_to_evaluator>

0000243c <ep6_transmit_and_update>:
ep6_transmit_and_update():
/home/ju/HydraDancer/enumeration/firmware/src/usb20-endpoints.c:247
 */
void
ep6_transmit_and_update(uint8_t uisToken, uint8_t **pBuffer, uint16_t *pSizeBuffer)
{
    static uint8_t *bufferResetValue = NULL;
    if (bufferResetValue == NULL) {
    243c:	86818793          	addi	a5,gp,-1944 # 20000198 <bufferResetValue.4235>
    2440:	4398                	lw	a4,0(a5)
    2442:	c321                	beqz	a4,2482 <ep6_transmit_and_update+0x46>
/home/ju/HydraDancer/enumeration/firmware/src/usb20-endpoints.c:251
        bufferResetValue = *pBuffer;
    }

    switch (uisToken) {
    2444:	02000793          	li	a5,32
    2448:	02f51763          	bne	a0,a5,2476 <ep6_transmit_and_update+0x3a>
/home/ju/HydraDancer/enumeration/firmware/src/usb20-endpoints.c:253
    case UIS_TOKEN_IN:
        if (*pSizeBuffer != 0x0000) {
    244c:	00065783          	lhu	a5,0(a2)
    2450:	ef85                	bnez	a5,2488 <ep6_transmit_and_update+0x4c>
/home/ju/HydraDancer/enumeration/firmware/src/usb20-endpoints.c:264
            R8_UEP6_TX_CTRL = (R8_UEP6_TX_CTRL & ~RB_UEP_TRES_MASK) | UEP_T_RES_ACK;

            *pSizeBuffer -= sizeCurrentTransaction;
            *(uint32_t *)pBuffer += U20_UEP6_MAXSIZE; /* Careful! We increase from the PREVIOUSLY read value */
        } else {
            *pBuffer = bufferResetValue;
    2452:	c198                	sw	a4,0(a1)
/home/ju/HydraDancer/enumeration/firmware/src/usb20-endpoints.c:266

            R16_UEP6_T_LEN = 0;
    2454:	400097b7          	lui	a5,0x40009
    2458:	08079423          	sh	zero,136(a5) # 40009088 <_dmadata_end+0x1ffd5e88>
/home/ju/HydraDancer/enumeration/firmware/src/usb20-endpoints.c:267
            R8_UEP6_TX_CTRL ^= RB_UEP_T_TOG_1;
    245c:	08a7c703          	lbu	a4,138(a5)
    2460:	00874713          	xori	a4,a4,8
    2464:	08e78523          	sb	a4,138(a5)
/home/ju/HydraDancer/enumeration/firmware/src/usb20-endpoints.c:268
            R8_UEP6_TX_CTRL = (R8_UEP6_TX_CTRL & ~RB_UEP_TRES_MASK) | UEP_T_RES_ACK;
    2468:	08a7c703          	lbu	a4,138(a5)
    246c:	0fc77713          	andi	a4,a4,252
    2470:	08e78523          	sb	a4,138(a5)
    2474:	8082                	ret
/home/ju/HydraDancer/enumeration/firmware/src/usb20-endpoints.c:272
        }
        break;
        default:
            log_to_evaluator("ERROR: ep6_transmit_and_update default!");
    2476:	00005537          	lui	a0,0x5
    247a:	9f850513          	addi	a0,a0,-1544 # 49f8 <_sbrk+0xf00>
    247e:	c29fe06f          	j	10a6 <log_to_evaluator>
/home/ju/HydraDancer/enumeration/firmware/src/usb20-endpoints.c:248
        bufferResetValue = *pBuffer;
    2482:	4198                	lw	a4,0(a1)
    2484:	c398                	sw	a4,0(a5)
    2486:	bf7d                	j	2444 <ep6_transmit_and_update+0x8>
/home/ju/HydraDancer/enumeration/firmware/src/usb20-endpoints.c:245
{
    2488:	1101                	addi	sp,sp,-32
    248a:	c84a                	sw	s2,16(sp)
    248c:	ce06                	sw	ra,28(sp)
    248e:	cc22                	sw	s0,24(sp)
    2490:	ca26                	sw	s1,20(sp)
    2492:	c64e                	sw	s3,12(sp)
/home/ju/HydraDancer/enumeration/firmware/src/usb20-endpoints.c:254
            uint16_t sizeCurrentTransaction = min(*pSizeBuffer, U20_UEP6_MAXSIZE);
    2494:	20000713          	li	a4,512
    2498:	893e                	mv	s2,a5
    249a:	00f77463          	bgeu	a4,a5,24a2 <ep6_transmit_and_update+0x66>
    249e:	20000913          	li	s2,512
    24a2:	842e                	mv	s0,a1
    24a4:	01091993          	slli	s3,s2,0x10
/home/ju/HydraDancer/enumeration/firmware/src/usb20-endpoints.c:255
            memcpy(endp6Tbuff, *pBuffer, sizeCurrentTransaction);
    24a8:	418c                	lw	a1,0(a1)
/home/ju/HydraDancer/enumeration/firmware/src/usb20-endpoints.c:254
            uint16_t sizeCurrentTransaction = min(*pSizeBuffer, U20_UEP6_MAXSIZE);
    24aa:	0109d993          	srli	s3,s3,0x10
/home/ju/HydraDancer/enumeration/firmware/src/usb20-endpoints.c:255
            memcpy(endp6Tbuff, *pBuffer, sizeCurrentTransaction);
    24ae:	20025537          	lui	a0,0x20025
    24b2:	84b2                	mv	s1,a2
    24b4:	20050513          	addi	a0,a0,512 # 20025200 <endp6Tbuff>
    24b8:	864e                	mv	a2,s3
    24ba:	244d                	jal	275c <memcpy>
/home/ju/HydraDancer/enumeration/firmware/src/usb20-endpoints.c:257
            R16_UEP6_T_LEN = sizeCurrentTransaction;
    24bc:	400097b7          	lui	a5,0x40009
    24c0:	09279423          	sh	s2,136(a5) # 40009088 <_dmadata_end+0x1ffd5e88>
/home/ju/HydraDancer/enumeration/firmware/src/usb20-endpoints.c:258
            R8_UEP6_TX_CTRL ^= RB_UEP_T_TOG_1;
    24c4:	08a7c703          	lbu	a4,138(a5)
    24c8:	00874713          	xori	a4,a4,8
    24cc:	08e78523          	sb	a4,138(a5)
/home/ju/HydraDancer/enumeration/firmware/src/usb20-endpoints.c:259
            R8_UEP6_TX_CTRL = (R8_UEP6_TX_CTRL & ~RB_UEP_TRES_MASK) | UEP_T_RES_ACK;
    24d0:	08a7c703          	lbu	a4,138(a5)
    24d4:	0fc77713          	andi	a4,a4,252
    24d8:	08e78523          	sb	a4,138(a5)
/home/ju/HydraDancer/enumeration/firmware/src/usb20-endpoints.c:261
            *pSizeBuffer -= sizeCurrentTransaction;
    24dc:	0004d603          	lhu	a2,0(s1)
/home/ju/HydraDancer/enumeration/firmware/src/usb20-endpoints.c:262
            *(uint32_t *)pBuffer += U20_UEP6_MAXSIZE; /* Careful! We increase from the PREVIOUSLY read value */
    24e0:	401c                	lw	a5,0(s0)
/home/ju/HydraDancer/enumeration/firmware/src/usb20-endpoints.c:275
            break;
    }
}
    24e2:	40f2                	lw	ra,28(sp)
/home/ju/HydraDancer/enumeration/firmware/src/usb20-endpoints.c:261
            *pSizeBuffer -= sizeCurrentTransaction;
    24e4:	41360633          	sub	a2,a2,s3
    24e8:	00c49023          	sh	a2,0(s1)
/home/ju/HydraDancer/enumeration/firmware/src/usb20-endpoints.c:262
            *(uint32_t *)pBuffer += U20_UEP6_MAXSIZE; /* Careful! We increase from the PREVIOUSLY read value */
    24ec:	20078793          	addi	a5,a5,512
    24f0:	c01c                	sw	a5,0(s0)
/home/ju/HydraDancer/enumeration/firmware/src/usb20-endpoints.c:275
}
    24f2:	4462                	lw	s0,24(sp)
    24f4:	44d2                	lw	s1,20(sp)
    24f6:	4942                	lw	s2,16(sp)
    24f8:	49b2                	lw	s3,12(sp)
    24fa:	6105                	addi	sp,sp,32
    24fc:	8082                	ret

000024fe <ep7_transmit_and_update>:
ep7_transmit_and_update():
/home/ju/HydraDancer/enumeration/firmware/src/usb20-endpoints.c:288
 */
void
ep7_transmit_and_update(uint8_t uisToken, uint8_t **pBuffer, uint16_t *pSizeBuffer)
{
    static uint8_t *bufferResetValue = NULL;
    if (bufferResetValue == NULL) {
    24fe:	86c18793          	addi	a5,gp,-1940 # 2000019c <bufferResetValue.4245>
    2502:	4398                	lw	a4,0(a5)
    2504:	c321                	beqz	a4,2544 <ep7_transmit_and_update+0x46>
/home/ju/HydraDancer/enumeration/firmware/src/usb20-endpoints.c:292
        bufferResetValue = *pBuffer;
    }

    switch (uisToken) {
    2506:	02000793          	li	a5,32
    250a:	02f51763          	bne	a0,a5,2538 <ep7_transmit_and_update+0x3a>
/home/ju/HydraDancer/enumeration/firmware/src/usb20-endpoints.c:294
    case UIS_TOKEN_IN:
        if (*pSizeBuffer != 0x0000) {
    250e:	00065783          	lhu	a5,0(a2)
    2512:	ef85                	bnez	a5,254a <ep7_transmit_and_update+0x4c>
/home/ju/HydraDancer/enumeration/firmware/src/usb20-endpoints.c:305
            R8_UEP7_TX_CTRL = (R8_UEP7_TX_CTRL & ~RB_UEP_TRES_MASK) | UEP_T_RES_ACK;

            *pSizeBuffer -= sizeCurrentTransaction;
            *(uint32_t *)pBuffer += U20_UEP7_MAXSIZE; /* Careful! We increase from the PREVIOUSLY read value */
        } else {
            *pBuffer = bufferResetValue;
    2514:	c198                	sw	a4,0(a1)
/home/ju/HydraDancer/enumeration/firmware/src/usb20-endpoints.c:307

            R16_UEP7_T_LEN = 0;
    2516:	400097b7          	lui	a5,0x40009
    251a:	08079623          	sh	zero,140(a5) # 4000908c <_dmadata_end+0x1ffd5e8c>
/home/ju/HydraDancer/enumeration/firmware/src/usb20-endpoints.c:308
            R8_UEP7_TX_CTRL ^= RB_UEP_T_TOG_1;
    251e:	08e7c703          	lbu	a4,142(a5)
    2522:	00874713          	xori	a4,a4,8
    2526:	08e78723          	sb	a4,142(a5)
/home/ju/HydraDancer/enumeration/firmware/src/usb20-endpoints.c:309
            R8_UEP7_TX_CTRL = (R8_UEP7_TX_CTRL & ~RB_UEP_TRES_MASK) | UEP_T_RES_ACK;
    252a:	08e7c703          	lbu	a4,142(a5)
    252e:	0fc77713          	andi	a4,a4,252
    2532:	08e78723          	sb	a4,142(a5)
    2536:	8082                	ret
/home/ju/HydraDancer/enumeration/firmware/src/usb20-endpoints.c:313
        }
        break;
        default:
            log_to_evaluator("ERROR: ep7_transmit_and_update default!");
    2538:	00005537          	lui	a0,0x5
    253c:	a2050513          	addi	a0,a0,-1504 # 4a20 <_sbrk+0xf28>
    2540:	b67fe06f          	j	10a6 <log_to_evaluator>
/home/ju/HydraDancer/enumeration/firmware/src/usb20-endpoints.c:289
        bufferResetValue = *pBuffer;
    2544:	4198                	lw	a4,0(a1)
    2546:	c398                	sw	a4,0(a5)
    2548:	bf7d                	j	2506 <ep7_transmit_and_update+0x8>
/home/ju/HydraDancer/enumeration/firmware/src/usb20-endpoints.c:286
{
    254a:	1101                	addi	sp,sp,-32
    254c:	c84a                	sw	s2,16(sp)
    254e:	ce06                	sw	ra,28(sp)
    2550:	cc22                	sw	s0,24(sp)
    2552:	ca26                	sw	s1,20(sp)
    2554:	c64e                	sw	s3,12(sp)
/home/ju/HydraDancer/enumeration/firmware/src/usb20-endpoints.c:295
            uint16_t sizeCurrentTransaction = min(*pSizeBuffer, U20_UEP7_MAXSIZE);
    2556:	20000713          	li	a4,512
    255a:	893e                	mv	s2,a5
    255c:	00f77463          	bgeu	a4,a5,2564 <ep7_transmit_and_update+0x66>
    2560:	20000913          	li	s2,512
    2564:	842e                	mv	s0,a1
    2566:	01091993          	slli	s3,s2,0x10
/home/ju/HydraDancer/enumeration/firmware/src/usb20-endpoints.c:296
            memcpy(endp7Tbuff, *pBuffer, sizeCurrentTransaction);
    256a:	418c                	lw	a1,0(a1)
/home/ju/HydraDancer/enumeration/firmware/src/usb20-endpoints.c:295
            uint16_t sizeCurrentTransaction = min(*pSizeBuffer, U20_UEP7_MAXSIZE);
    256c:	0109d993          	srli	s3,s3,0x10
/home/ju/HydraDancer/enumeration/firmware/src/usb20-endpoints.c:296
            memcpy(endp7Tbuff, *pBuffer, sizeCurrentTransaction);
    2570:	20023537          	lui	a0,0x20023
    2574:	84b2                	mv	s1,a2
    2576:	20050513          	addi	a0,a0,512 # 20023200 <endp7Tbuff>
    257a:	864e                	mv	a2,s3
    257c:	22c5                	jal	275c <memcpy>
/home/ju/HydraDancer/enumeration/firmware/src/usb20-endpoints.c:298
            R16_UEP7_T_LEN = sizeCurrentTransaction;
    257e:	400097b7          	lui	a5,0x40009
    2582:	09279623          	sh	s2,140(a5) # 4000908c <_dmadata_end+0x1ffd5e8c>
/home/ju/HydraDancer/enumeration/firmware/src/usb20-endpoints.c:299
            R8_UEP7_TX_CTRL ^= RB_UEP_T_TOG_1;
    2586:	08e7c703          	lbu	a4,142(a5)
    258a:	00874713          	xori	a4,a4,8
    258e:	08e78723          	sb	a4,142(a5)
/home/ju/HydraDancer/enumeration/firmware/src/usb20-endpoints.c:300
            R8_UEP7_TX_CTRL = (R8_UEP7_TX_CTRL & ~RB_UEP_TRES_MASK) | UEP_T_RES_ACK;
    2592:	08e7c703          	lbu	a4,142(a5)
    2596:	0fc77713          	andi	a4,a4,252
    259a:	08e78723          	sb	a4,142(a5)
/home/ju/HydraDancer/enumeration/firmware/src/usb20-endpoints.c:302
            *pSizeBuffer -= sizeCurrentTransaction;
    259e:	0004d603          	lhu	a2,0(s1)
/home/ju/HydraDancer/enumeration/firmware/src/usb20-endpoints.c:303
            *(uint32_t *)pBuffer += U20_UEP7_MAXSIZE; /* Careful! We increase from the PREVIOUSLY read value */
    25a2:	401c                	lw	a5,0(s0)
/home/ju/HydraDancer/enumeration/firmware/src/usb20-endpoints.c:316
            break;
    }
}
    25a4:	40f2                	lw	ra,28(sp)
/home/ju/HydraDancer/enumeration/firmware/src/usb20-endpoints.c:302
            *pSizeBuffer -= sizeCurrentTransaction;
    25a6:	41360633          	sub	a2,a2,s3
    25aa:	00c49023          	sh	a2,0(s1)
/home/ju/HydraDancer/enumeration/firmware/src/usb20-endpoints.c:303
            *(uint32_t *)pBuffer += U20_UEP7_MAXSIZE; /* Careful! We increase from the PREVIOUSLY read value */
    25ae:	20078793          	addi	a5,a5,512
    25b2:	c01c                	sw	a5,0(s0)
/home/ju/HydraDancer/enumeration/firmware/src/usb20-endpoints.c:316
}
    25b4:	4462                	lw	s0,24(sp)
    25b6:	44d2                	lw	s1,20(sp)
    25b8:	4942                	lw	s2,16(sp)
    25ba:	49b2                	lw	s3,12(sp)
    25bc:	6105                	addi	sp,sp,32
    25be:	8082                	ret

000025c0 <NMI_Handler>:
NMI_Handler():
/home/ju/HydraDancer/enumeration/firmware/../../wch-ch56x-bsp/startup/startup_CH56x.S:90
    .weak   SERDES_IRQHandler
    .weak   ETH_IRQHandler
    .weak   PMT_IRQHandler
    .weak   ECDC_IRQHandler

NMI_Handler:  1:  j 1b
    25c0:	a001                	j	25c0 <NMI_Handler>
/home/ju/HydraDancer/enumeration/firmware/../../wch-ch56x-bsp/startup/startup_CH56x.S:91
HardFault_Handler:  1:  j 1b
    25c2:	a001                	j	25c2 <NMI_Handler+0x2>

000025c4 <SysTick_Handler>:
SysTick_Handler():
/home/ju/HydraDancer/enumeration/firmware/../../wch-ch56x-bsp/startup/startup_CH56x.S:92
SysTick_Handler:  1:  j 1b
    25c4:	a001                	j	25c4 <SysTick_Handler>

000025c6 <SW_Handler>:
SW_Handler():
/home/ju/HydraDancer/enumeration/firmware/../../wch-ch56x-bsp/startup/startup_CH56x.S:93
SW_Handler:  1:  j 1b
    25c6:	a001                	j	25c6 <SW_Handler>

000025c8 <WDOG_IRQHandler>:
WDOG_IRQHandler():
/home/ju/HydraDancer/enumeration/firmware/../../wch-ch56x-bsp/startup/startup_CH56x.S:94
WDOG_IRQHandler:  1:  j 1b
    25c8:	a001                	j	25c8 <WDOG_IRQHandler>

000025ca <TMR0_IRQHandler>:
TMR0_IRQHandler():
/home/ju/HydraDancer/enumeration/firmware/../../wch-ch56x-bsp/startup/startup_CH56x.S:95
TMR0_IRQHandler:  1:  j 1b
    25ca:	a001                	j	25ca <TMR0_IRQHandler>

000025cc <GPIO_IRQHandler>:
GPIO_IRQHandler():
/home/ju/HydraDancer/enumeration/firmware/../../wch-ch56x-bsp/startup/startup_CH56x.S:96
GPIO_IRQHandler:  1:  j 1b
    25cc:	a001                	j	25cc <GPIO_IRQHandler>

000025ce <SPI0_IRQHandler>:
SPI0_IRQHandler():
/home/ju/HydraDancer/enumeration/firmware/../../wch-ch56x-bsp/startup/startup_CH56x.S:97
SPI0_IRQHandler:  1:  j 1b
    25ce:	a001                	j	25ce <SPI0_IRQHandler>

000025d0 <USBSS_IRQHandler>:
USBSS_IRQHandler():
/home/ju/HydraDancer/enumeration/firmware/../../wch-ch56x-bsp/startup/startup_CH56x.S:98
USBSS_IRQHandler:  1:  j 1b
    25d0:	a001                	j	25d0 <USBSS_IRQHandler>

000025d2 <LINK_IRQHandler>:
LINK_IRQHandler():
/home/ju/HydraDancer/enumeration/firmware/../../wch-ch56x-bsp/startup/startup_CH56x.S:99
LINK_IRQHandler:  1:  j 1b
    25d2:	a001                	j	25d2 <LINK_IRQHandler>

000025d4 <TMR1_IRQHandler>:
TMR1_IRQHandler():
/home/ju/HydraDancer/enumeration/firmware/../../wch-ch56x-bsp/startup/startup_CH56x.S:100
TMR1_IRQHandler:  1:  j 1b
    25d4:	a001                	j	25d4 <TMR1_IRQHandler>

000025d6 <TMR2_IRQHandler>:
TMR2_IRQHandler():
/home/ju/HydraDancer/enumeration/firmware/../../wch-ch56x-bsp/startup/startup_CH56x.S:101
TMR2_IRQHandler:  1:  j 1b
    25d6:	a001                	j	25d6 <TMR2_IRQHandler>

000025d8 <UART0_IRQHandler>:
UART0_IRQHandler():
/home/ju/HydraDancer/enumeration/firmware/../../wch-ch56x-bsp/startup/startup_CH56x.S:102
UART0_IRQHandler:  1:  j 1b
    25d8:	a001                	j	25d8 <UART0_IRQHandler>
/home/ju/HydraDancer/enumeration/firmware/../../wch-ch56x-bsp/startup/startup_CH56x.S:103
USBHS_IRQHandler:  1:  j 1b
    25da:	a001                	j	25da <UART0_IRQHandler+0x2>

000025dc <EMMC_IRQHandler>:
EMMC_IRQHandler():
/home/ju/HydraDancer/enumeration/firmware/../../wch-ch56x-bsp/startup/startup_CH56x.S:104
EMMC_IRQHandler:  1:  j 1b
    25dc:	a001                	j	25dc <EMMC_IRQHandler>

000025de <DVP_IRQHandler>:
DVP_IRQHandler():
/home/ju/HydraDancer/enumeration/firmware/../../wch-ch56x-bsp/startup/startup_CH56x.S:105
DVP_IRQHandler:  1:  j 1b
    25de:	a001                	j	25de <DVP_IRQHandler>
/home/ju/HydraDancer/enumeration/firmware/../../wch-ch56x-bsp/startup/startup_CH56x.S:106
HSPI_IRQHandler:  1:  j 1b
    25e0:	a001                	j	25e0 <DVP_IRQHandler+0x2>

000025e2 <SPI1_IRQHandler>:
SPI1_IRQHandler():
/home/ju/HydraDancer/enumeration/firmware/../../wch-ch56x-bsp/startup/startup_CH56x.S:107
SPI1_IRQHandler:  1:  j 1b
    25e2:	a001                	j	25e2 <SPI1_IRQHandler>

000025e4 <UART1_IRQHandler>:
UART1_IRQHandler():
/home/ju/HydraDancer/enumeration/firmware/../../wch-ch56x-bsp/startup/startup_CH56x.S:108
UART1_IRQHandler:  1:  j 1b
    25e4:	a001                	j	25e4 <UART1_IRQHandler>

000025e6 <UART2_IRQHandler>:
UART2_IRQHandler():
/home/ju/HydraDancer/enumeration/firmware/../../wch-ch56x-bsp/startup/startup_CH56x.S:109
UART2_IRQHandler:  1:  j 1b
    25e6:	a001                	j	25e6 <UART2_IRQHandler>

000025e8 <UART3_IRQHandler>:
UART3_IRQHandler():
/home/ju/HydraDancer/enumeration/firmware/../../wch-ch56x-bsp/startup/startup_CH56x.S:110
UART3_IRQHandler:  1:  j 1b
    25e8:	a001                	j	25e8 <UART3_IRQHandler>
/home/ju/HydraDancer/enumeration/firmware/../../wch-ch56x-bsp/startup/startup_CH56x.S:111
SERDES_IRQHandler:  1:  j 1b
    25ea:	a001                	j	25ea <UART3_IRQHandler+0x2>

000025ec <ETH_IRQHandler>:
ETH_IRQHandler():
/home/ju/HydraDancer/enumeration/firmware/../../wch-ch56x-bsp/startup/startup_CH56x.S:112
ETH_IRQHandler:  1:  j 1b
    25ec:	a001                	j	25ec <ETH_IRQHandler>

000025ee <PMT_IRQHandler>:
PMT_IRQHandler():
/home/ju/HydraDancer/enumeration/firmware/../../wch-ch56x-bsp/startup/startup_CH56x.S:113
PMT_IRQHandler:  1:  j 1b
    25ee:	a001                	j	25ee <PMT_IRQHandler>

000025f0 <ECDC_IRQHandler>:
ECDC_IRQHandler():
/home/ju/HydraDancer/enumeration/firmware/../../wch-ch56x-bsp/startup/startup_CH56x.S:114
ECDC_IRQHandler:  1:  j 1b
    25f0:	a001                	j	25f0 <ECDC_IRQHandler>

000025f2 <handle_reset>:
handle_reset():
/home/ju/HydraDancer/enumeration/firmware/../../wch-ch56x-bsp/startup/startup_CH56x.S:122
	.weak	handle_reset
	.align	1
handle_reset:
.option push 
.option	norelax 
	la gp, __global_pointer$
    25f2:	1fffe197          	auipc	gp,0x1fffe
    25f6:	33e18193          	addi	gp,gp,830 # 20000930 <__global_pointer$>
/home/ju/HydraDancer/enumeration/firmware/../../wch-ch56x-bsp/startup/startup_CH56x.S:125
.option	pop 
1:
	la sp, _eusrstack 
    25fa:	20002117          	auipc	sp,0x20002
    25fe:	a0610113          	addi	sp,sp,-1530 # 20004000 <_eusrstack>
/home/ju/HydraDancer/enumeration/firmware/../../wch-ch56x-bsp/startup/startup_CH56x.S:129

/* Load data section from flash to RAM */
2:	
	la a0, _data_lma
    2602:	00002517          	auipc	a0,0x2
    2606:	56e50513          	addi	a0,a0,1390 # 4b70 <_data_lma>
/home/ju/HydraDancer/enumeration/firmware/../../wch-ch56x-bsp/startup/startup_CH56x.S:130
	la a1, _data_vma
    260a:	1fffe597          	auipc	a1,0x1fffe
    260e:	9f658593          	addi	a1,a1,-1546 # 20000000 <_data_vma>
/home/ju/HydraDancer/enumeration/firmware/../../wch-ch56x-bsp/startup/startup_CH56x.S:131
	la a2, _edata
    2612:	82018613          	addi	a2,gp,-2016 # 20000150 <_edata>
/home/ju/HydraDancer/enumeration/firmware/../../wch-ch56x-bsp/startup/startup_CH56x.S:132
	bgeu a1, a2, 2f
    2616:	00c5fa63          	bgeu	a1,a2,262a <handle_reset+0x38>
/home/ju/HydraDancer/enumeration/firmware/../../wch-ch56x-bsp/startup/startup_CH56x.S:134
1:
	lw t0, (a0)
    261a:	00052283          	lw	t0,0(a0)
/home/ju/HydraDancer/enumeration/firmware/../../wch-ch56x-bsp/startup/startup_CH56x.S:135
	sw t0, (a1)
    261e:	0055a023          	sw	t0,0(a1)
/home/ju/HydraDancer/enumeration/firmware/../../wch-ch56x-bsp/startup/startup_CH56x.S:136
	addi a0, a0, 4
    2622:	0511                	addi	a0,a0,4
/home/ju/HydraDancer/enumeration/firmware/../../wch-ch56x-bsp/startup/startup_CH56x.S:137
	addi a1, a1, 4
    2624:	0591                	addi	a1,a1,4
/home/ju/HydraDancer/enumeration/firmware/../../wch-ch56x-bsp/startup/startup_CH56x.S:138
	bltu a1, a2, 1b
    2626:	fec5eae3          	bltu	a1,a2,261a <handle_reset+0x28>
/home/ju/HydraDancer/enumeration/firmware/../../wch-ch56x-bsp/startup/startup_CH56x.S:141
2:
	/* clear bss section */
	la a0, _sbss
    262a:	82018513          	addi	a0,gp,-2016 # 20000150 <_edata>
/home/ju/HydraDancer/enumeration/firmware/../../wch-ch56x-bsp/startup/startup_CH56x.S:142
	la a1, _ebss
    262e:	20000597          	auipc	a1,0x20000
    2632:	be658593          	addi	a1,a1,-1050 # 20002214 <_ebss>
/home/ju/HydraDancer/enumeration/firmware/../../wch-ch56x-bsp/startup/startup_CH56x.S:143
	bgeu a0, a1, 2f
    2636:	00b57763          	bgeu	a0,a1,2644 <handle_reset+0x52>
/home/ju/HydraDancer/enumeration/firmware/../../wch-ch56x-bsp/startup/startup_CH56x.S:145
1:
	sw zero, (a0)
    263a:	00052023          	sw	zero,0(a0)
/home/ju/HydraDancer/enumeration/firmware/../../wch-ch56x-bsp/startup/startup_CH56x.S:146
	addi a0, a0, 4
    263e:	0511                	addi	a0,a0,4
/home/ju/HydraDancer/enumeration/firmware/../../wch-ch56x-bsp/startup/startup_CH56x.S:147
	bltu a0, a1, 1b
    2640:	feb56de3          	bltu	a0,a1,263a <handle_reset+0x48>
/home/ju/HydraDancer/enumeration/firmware/../../wch-ch56x-bsp/startup/startup_CH56x.S:151

	/* clear dmadata section */
2:
    la a0, _dmadata_start
    2644:	2001e517          	auipc	a0,0x2001e
    2648:	9bc50513          	addi	a0,a0,-1604 # 20020000 <hspiDmaAddr1>
/home/ju/HydraDancer/enumeration/firmware/../../wch-ch56x-bsp/startup/startup_CH56x.S:152
    la a1, _dmadata_end
    264c:	20031597          	auipc	a1,0x20031
    2650:	bb458593          	addi	a1,a1,-1100 # 20033200 <_dmadata_end>
/home/ju/HydraDancer/enumeration/firmware/../../wch-ch56x-bsp/startup/startup_CH56x.S:153
    bgeu a0, a1, 2f
    2654:	00b57763          	bgeu	a0,a1,2662 <handle_reset+0x70>
/home/ju/HydraDancer/enumeration/firmware/../../wch-ch56x-bsp/startup/startup_CH56x.S:155
1:
    sw zero, (a0)
    2658:	00052023          	sw	zero,0(a0)
/home/ju/HydraDancer/enumeration/firmware/../../wch-ch56x-bsp/startup/startup_CH56x.S:156
    addi a0, a0, 4
    265c:	0511                	addi	a0,a0,4
/home/ju/HydraDancer/enumeration/firmware/../../wch-ch56x-bsp/startup/startup_CH56x.S:157
    bltu a0, a1, 1b
    265e:	feb56de3          	bltu	a0,a1,2658 <handle_reset+0x66>
/home/ju/HydraDancer/enumeration/firmware/../../wch-ch56x-bsp/startup/startup_CH56x.S:161

2:
	/* enable all interrupt */
    li t0, 0x88
    2662:	08800293          	li	t0,136
/home/ju/HydraDancer/enumeration/firmware/../../wch-ch56x-bsp/startup/startup_CH56x.S:162
    csrs mstatus, t0
    2666:	3002a073          	csrs	mstatus,t0
/home/ju/HydraDancer/enumeration/firmware/../../wch-ch56x-bsp/startup/startup_CH56x.S:163
	la t0, _vector_base
    266a:	ffffe297          	auipc	t0,0xffffe
    266e:	99a28293          	addi	t0,t0,-1638 # 4 <_einit>
/home/ju/HydraDancer/enumeration/firmware/../../wch-ch56x-bsp/startup/startup_CH56x.S:164
    ori t0, t0, 1
    2672:	0012e293          	ori	t0,t0,1
/home/ju/HydraDancer/enumeration/firmware/../../wch-ch56x-bsp/startup/startup_CH56x.S:165
	csrw mtvec, t0
    2676:	30529073          	csrw	mtvec,t0

0000267a <__app_main_enter>:
__app_main_enter():
/home/ju/HydraDancer/enumeration/firmware/../../wch-ch56x-bsp/startup/startup_CH56x.S:169

	/* Jump to main() function with Machine mode privilege which allow using all core_riscv.h macro __get_MXX() or __set_MXX() */
__app_main_enter:
    li    a0,   0 /* argc = 0 */
    267a:	4501                	li	a0,0
/home/ju/HydraDancer/enumeration/firmware/../../wch-ch56x-bsp/startup/startup_CH56x.S:170
    li    a1,   0 /* argv = NULL */
    267c:	4581                	li	a1,0
/home/ju/HydraDancer/enumeration/firmware/../../wch-ch56x-bsp/startup/startup_CH56x.S:171
    jal   ra,   main /* Call main() with return address */
    267e:	a6bfe0ef          	jal	ra,10e8 <main>

00002682 <__app_main_exit>:
__app_main_exit():
/home/ju/HydraDancer/enumeration/firmware/../../wch-ch56x-bsp/startup/startup_CH56x.S:173
__app_main_exit:
    j     __app_main_exit /* Endless loop */
    2682:	a001                	j	2682 <__app_main_exit>

00002684 <_fwrite_r>:
_fwrite_r():
    2684:	7179                	addi	sp,sp,-48
    2686:	d422                	sw	s0,40(sp)
    2688:	d226                	sw	s1,36(sp)
    268a:	ce4e                	sw	s3,28(sp)
    268c:	cc52                	sw	s4,24(sp)
    268e:	ca56                	sw	s5,20(sp)
    2690:	d606                	sw	ra,44(sp)
    2692:	d04a                	sw	s2,32(sp)
    2694:	c85a                	sw	s6,16(sp)
    2696:	c65e                	sw	s7,12(sp)
    2698:	84aa                	mv	s1,a0
    269a:	8aae                	mv	s5,a1
    269c:	89b2                	mv	s3,a2
    269e:	843a                	mv	s0,a4
    26a0:	02c68a33          	mul	s4,a3,a2
    26a4:	c501                	beqz	a0,26ac <_fwrite_r+0x28>
    26a6:	4d1c                	lw	a5,24(a0)
    26a8:	e391                	bnez	a5,26ac <_fwrite_r+0x28>
    26aa:	2d19                	jal	2cc0 <__sinit>
    26ac:	00002797          	auipc	a5,0x2
    26b0:	44878793          	addi	a5,a5,1096 # 4af4 <__sf_fake_stdin>
    26b4:	04f41463          	bne	s0,a5,26fc <_fwrite_r+0x78>
    26b8:	40c0                	lw	s0,4(s1)
    26ba:	00c45783          	lhu	a5,12(s0)
    26be:	8ba1                	andi	a5,a5,8
    26c0:	cfb1                	beqz	a5,271c <_fwrite_r+0x98>
    26c2:	481c                	lw	a5,16(s0)
    26c4:	cfa1                	beqz	a5,271c <_fwrite_r+0x98>
    26c6:	4901                	li	s2,0
    26c8:	5b7d                	li	s6,-1
    26ca:	4ba9                	li	s7,10
    26cc:	05490d63          	beq	s2,s4,2726 <_fwrite_r+0xa2>
    26d0:	012a87b3          	add	a5,s5,s2
    26d4:	0007c583          	lbu	a1,0(a5)
    26d8:	441c                	lw	a5,8(s0)
    26da:	17fd                	addi	a5,a5,-1
    26dc:	c41c                	sw	a5,8(s0)
    26de:	0007d763          	bgez	a5,26ec <_fwrite_r+0x68>
    26e2:	4c18                	lw	a4,24(s0)
    26e4:	04e7ce63          	blt	a5,a4,2740 <_fwrite_r+0xbc>
    26e8:	05758c63          	beq	a1,s7,2740 <_fwrite_r+0xbc>
    26ec:	401c                	lw	a5,0(s0)
    26ee:	00178713          	addi	a4,a5,1
    26f2:	c018                	sw	a4,0(s0)
    26f4:	00b78023          	sb	a1,0(a5)
    26f8:	0905                	addi	s2,s2,1
    26fa:	bfc9                	j	26cc <_fwrite_r+0x48>
    26fc:	00002797          	auipc	a5,0x2
    2700:	41878793          	addi	a5,a5,1048 # 4b14 <__sf_fake_stdout>
    2704:	00f41463          	bne	s0,a5,270c <_fwrite_r+0x88>
    2708:	4480                	lw	s0,8(s1)
    270a:	bf45                	j	26ba <_fwrite_r+0x36>
    270c:	00002797          	auipc	a5,0x2
    2710:	3c878793          	addi	a5,a5,968 # 4ad4 <__sf_fake_stderr>
    2714:	faf413e3          	bne	s0,a5,26ba <_fwrite_r+0x36>
    2718:	44c0                	lw	s0,12(s1)
    271a:	b745                	j	26ba <_fwrite_r+0x36>
    271c:	85a2                	mv	a1,s0
    271e:	8526                	mv	a0,s1
    2720:	2c2d                	jal	295a <__swsetup_r>
    2722:	4901                	li	s2,0
    2724:	d14d                	beqz	a0,26c6 <_fwrite_r+0x42>
    2726:	50b2                	lw	ra,44(sp)
    2728:	5422                	lw	s0,40(sp)
    272a:	03395533          	divu	a0,s2,s3
    272e:	5492                	lw	s1,36(sp)
    2730:	5902                	lw	s2,32(sp)
    2732:	49f2                	lw	s3,28(sp)
    2734:	4a62                	lw	s4,24(sp)
    2736:	4ad2                	lw	s5,20(sp)
    2738:	4b42                	lw	s6,16(sp)
    273a:	4bb2                	lw	s7,12(sp)
    273c:	6145                	addi	sp,sp,48
    273e:	8082                	ret
    2740:	8622                	mv	a2,s0
    2742:	8526                	mv	a0,s1
    2744:	2a99                	jal	289a <__swbuf_r>
    2746:	fb6519e3          	bne	a0,s6,26f8 <_fwrite_r+0x74>
    274a:	bff1                	j	2726 <_fwrite_r+0xa2>

0000274c <fwrite>:
fwrite():
    274c:	81418793          	addi	a5,gp,-2028 # 20000144 <_impure_ptr>
    2750:	8736                	mv	a4,a3
    2752:	86b2                	mv	a3,a2
    2754:	862e                	mv	a2,a1
    2756:	85aa                	mv	a1,a0
    2758:	4388                	lw	a0,0(a5)
    275a:	b72d                	j	2684 <_fwrite_r>

0000275c <memcpy>:
memcpy():
    275c:	00a5c7b3          	xor	a5,a1,a0
    2760:	8b8d                	andi	a5,a5,3
    2762:	00c50733          	add	a4,a0,a2
    2766:	e781                	bnez	a5,276e <memcpy+0x12>
    2768:	478d                	li	a5,3
    276a:	00c7ee63          	bltu	a5,a2,2786 <memcpy+0x2a>
    276e:	87aa                	mv	a5,a0
    2770:	0ae57063          	bgeu	a0,a4,2810 <memcpy+0xb4>
    2774:	0005c683          	lbu	a3,0(a1)
    2778:	0785                	addi	a5,a5,1
    277a:	0585                	addi	a1,a1,1
    277c:	fed78fa3          	sb	a3,-1(a5)
    2780:	fee7eae3          	bltu	a5,a4,2774 <memcpy+0x18>
    2784:	8082                	ret
    2786:	00357693          	andi	a3,a0,3
    278a:	87aa                	mv	a5,a0
    278c:	ca91                	beqz	a3,27a0 <memcpy+0x44>
    278e:	0005c683          	lbu	a3,0(a1)
    2792:	0785                	addi	a5,a5,1
    2794:	0585                	addi	a1,a1,1
    2796:	fed78fa3          	sb	a3,-1(a5)
    279a:	0037f693          	andi	a3,a5,3
    279e:	b7fd                	j	278c <memcpy+0x30>
    27a0:	ffc77693          	andi	a3,a4,-4
    27a4:	fe068613          	addi	a2,a3,-32 # 1fffe0 <_data_lma+0x1fb470>
    27a8:	06c7f063          	bgeu	a5,a2,2808 <memcpy+0xac>
    27ac:	0005a383          	lw	t2,0(a1)
    27b0:	0045a283          	lw	t0,4(a1)
    27b4:	0085af83          	lw	t6,8(a1)
    27b8:	00c5af03          	lw	t5,12(a1)
    27bc:	0105ae83          	lw	t4,16(a1)
    27c0:	0145ae03          	lw	t3,20(a1)
    27c4:	0185a303          	lw	t1,24(a1)
    27c8:	01c5a883          	lw	a7,28(a1)
    27cc:	02458593          	addi	a1,a1,36
    27d0:	0077a023          	sw	t2,0(a5)
    27d4:	ffc5a803          	lw	a6,-4(a1)
    27d8:	0057a223          	sw	t0,4(a5)
    27dc:	01f7a423          	sw	t6,8(a5)
    27e0:	01e7a623          	sw	t5,12(a5)
    27e4:	01d7a823          	sw	t4,16(a5)
    27e8:	01c7aa23          	sw	t3,20(a5)
    27ec:	0067ac23          	sw	t1,24(a5)
    27f0:	0117ae23          	sw	a7,28(a5)
    27f4:	02478793          	addi	a5,a5,36
    27f8:	ff07ae23          	sw	a6,-4(a5)
    27fc:	b775                	j	27a8 <memcpy+0x4c>
    27fe:	4190                	lw	a2,0(a1)
    2800:	0791                	addi	a5,a5,4
    2802:	0591                	addi	a1,a1,4
    2804:	fec7ae23          	sw	a2,-4(a5)
    2808:	fed7ebe3          	bltu	a5,a3,27fe <memcpy+0xa2>
    280c:	f6e7e4e3          	bltu	a5,a4,2774 <memcpy+0x18>
    2810:	8082                	ret

00002812 <strnlen>:
strnlen():
    2812:	95aa                	add	a1,a1,a0
    2814:	87aa                	mv	a5,a0
    2816:	00b78563          	beq	a5,a1,2820 <strnlen+0xe>
    281a:	0007c703          	lbu	a4,0(a5)
    281e:	e701                	bnez	a4,2826 <strnlen+0x14>
    2820:	40a78533          	sub	a0,a5,a0
    2824:	8082                	ret
    2826:	0785                	addi	a5,a5,1
    2828:	b7fd                	j	2816 <strnlen+0x4>

0000282a <_vsniprintf_r>:
_vsnprintf_r():
    282a:	7119                	addi	sp,sp,-128
    282c:	dca2                	sw	s0,120(sp)
    282e:	de86                	sw	ra,124(sp)
    2830:	daa6                	sw	s1,116(sp)
    2832:	8432                	mv	s0,a2
    2834:	00065b63          	bgez	a2,284a <_vsniprintf_r+0x20>
    2838:	08b00793          	li	a5,139
    283c:	c11c                	sw	a5,0(a0)
    283e:	557d                	li	a0,-1
    2840:	50f6                	lw	ra,124(sp)
    2842:	5466                	lw	s0,120(sp)
    2844:	54d6                	lw	s1,116(sp)
    2846:	6109                	addi	sp,sp,128
    2848:	8082                	ret
    284a:	8636                	mv	a2,a3
    284c:	20800693          	li	a3,520
    2850:	c42e                	sw	a1,8(sp)
    2852:	cc2e                	sw	a1,24(sp)
    2854:	00d11a23          	sh	a3,20(sp)
    2858:	4581                	li	a1,0
    285a:	c019                	beqz	s0,2860 <_vsniprintf_r+0x36>
    285c:	fff40593          	addi	a1,s0,-1
    2860:	57fd                	li	a5,-1
    2862:	c82e                	sw	a1,16(sp)
    2864:	ce2e                	sw	a1,28(sp)
    2866:	86ba                	mv	a3,a4
    2868:	002c                	addi	a1,sp,8
    286a:	00f11b23          	sh	a5,22(sp)
    286e:	84aa                	mv	s1,a0
    2870:	121000ef          	jal	ra,3190 <_svfiprintf_r>
    2874:	57fd                	li	a5,-1
    2876:	00f55563          	bge	a0,a5,2880 <_vsniprintf_r+0x56>
    287a:	08b00793          	li	a5,139
    287e:	c09c                	sw	a5,0(s1)
    2880:	d061                	beqz	s0,2840 <_vsniprintf_r+0x16>
    2882:	47a2                	lw	a5,8(sp)
    2884:	00078023          	sb	zero,0(a5)
    2888:	bf65                	j	2840 <_vsniprintf_r+0x16>

0000288a <vsniprintf>:
vsnprintf():
    288a:	81418793          	addi	a5,gp,-2028 # 20000144 <_impure_ptr>
    288e:	8736                	mv	a4,a3
    2890:	86b2                	mv	a3,a2
    2892:	862e                	mv	a2,a1
    2894:	85aa                	mv	a1,a0
    2896:	4388                	lw	a0,0(a5)
    2898:	bf49                	j	282a <_vsniprintf_r>

0000289a <__swbuf_r>:
__swbuf_r():
    289a:	1101                	addi	sp,sp,-32
    289c:	cc22                	sw	s0,24(sp)
    289e:	ca26                	sw	s1,20(sp)
    28a0:	c84a                	sw	s2,16(sp)
    28a2:	ce06                	sw	ra,28(sp)
    28a4:	c64e                	sw	s3,12(sp)
    28a6:	84aa                	mv	s1,a0
    28a8:	892e                	mv	s2,a1
    28aa:	8432                	mv	s0,a2
    28ac:	c501                	beqz	a0,28b4 <__swbuf_r+0x1a>
    28ae:	4d1c                	lw	a5,24(a0)
    28b0:	e391                	bnez	a5,28b4 <__swbuf_r+0x1a>
    28b2:	2139                	jal	2cc0 <__sinit>
    28b4:	00002797          	auipc	a5,0x2
    28b8:	24078793          	addi	a5,a5,576 # 4af4 <__sf_fake_stdin>
    28bc:	06f41963          	bne	s0,a5,292e <__swbuf_r+0x94>
    28c0:	40c0                	lw	s0,4(s1)
    28c2:	4c1c                	lw	a5,24(s0)
    28c4:	c41c                	sw	a5,8(s0)
    28c6:	00c45783          	lhu	a5,12(s0)
    28ca:	8ba1                	andi	a5,a5,8
    28cc:	c3c9                	beqz	a5,294e <__swbuf_r+0xb4>
    28ce:	481c                	lw	a5,16(s0)
    28d0:	cfbd                	beqz	a5,294e <__swbuf_r+0xb4>
    28d2:	481c                	lw	a5,16(s0)
    28d4:	4008                	lw	a0,0(s0)
    28d6:	0ff97993          	andi	s3,s2,255
    28da:	0ff97913          	andi	s2,s2,255
    28de:	8d1d                	sub	a0,a0,a5
    28e0:	485c                	lw	a5,20(s0)
    28e2:	00f54663          	blt	a0,a5,28ee <__swbuf_r+0x54>
    28e6:	85a2                	mv	a1,s0
    28e8:	8526                	mv	a0,s1
    28ea:	2c65                	jal	2ba2 <_fflush_r>
    28ec:	e52d                	bnez	a0,2956 <__swbuf_r+0xbc>
    28ee:	441c                	lw	a5,8(s0)
    28f0:	0505                	addi	a0,a0,1
    28f2:	17fd                	addi	a5,a5,-1
    28f4:	c41c                	sw	a5,8(s0)
    28f6:	401c                	lw	a5,0(s0)
    28f8:	00178713          	addi	a4,a5,1
    28fc:	c018                	sw	a4,0(s0)
    28fe:	01378023          	sb	s3,0(a5)
    2902:	485c                	lw	a5,20(s0)
    2904:	00a78963          	beq	a5,a0,2916 <__swbuf_r+0x7c>
    2908:	00c45783          	lhu	a5,12(s0)
    290c:	8b85                	andi	a5,a5,1
    290e:	cb81                	beqz	a5,291e <__swbuf_r+0x84>
    2910:	47a9                	li	a5,10
    2912:	00f91663          	bne	s2,a5,291e <__swbuf_r+0x84>
    2916:	85a2                	mv	a1,s0
    2918:	8526                	mv	a0,s1
    291a:	2461                	jal	2ba2 <_fflush_r>
    291c:	ed0d                	bnez	a0,2956 <__swbuf_r+0xbc>
    291e:	40f2                	lw	ra,28(sp)
    2920:	4462                	lw	s0,24(sp)
    2922:	854a                	mv	a0,s2
    2924:	44d2                	lw	s1,20(sp)
    2926:	4942                	lw	s2,16(sp)
    2928:	49b2                	lw	s3,12(sp)
    292a:	6105                	addi	sp,sp,32
    292c:	8082                	ret
    292e:	00002797          	auipc	a5,0x2
    2932:	1e678793          	addi	a5,a5,486 # 4b14 <__sf_fake_stdout>
    2936:	00f41463          	bne	s0,a5,293e <__swbuf_r+0xa4>
    293a:	4480                	lw	s0,8(s1)
    293c:	b759                	j	28c2 <__swbuf_r+0x28>
    293e:	00002797          	auipc	a5,0x2
    2942:	19678793          	addi	a5,a5,406 # 4ad4 <__sf_fake_stderr>
    2946:	f6f41ee3          	bne	s0,a5,28c2 <__swbuf_r+0x28>
    294a:	44c0                	lw	s0,12(s1)
    294c:	bf9d                	j	28c2 <__swbuf_r+0x28>
    294e:	85a2                	mv	a1,s0
    2950:	8526                	mv	a0,s1
    2952:	2021                	jal	295a <__swsetup_r>
    2954:	dd3d                	beqz	a0,28d2 <__swbuf_r+0x38>
    2956:	597d                	li	s2,-1
    2958:	b7d9                	j	291e <__swbuf_r+0x84>

0000295a <__swsetup_r>:
__swsetup_r():
    295a:	1141                	addi	sp,sp,-16
    295c:	81418793          	addi	a5,gp,-2028 # 20000144 <_impure_ptr>
    2960:	c226                	sw	s1,4(sp)
    2962:	4384                	lw	s1,0(a5)
    2964:	c422                	sw	s0,8(sp)
    2966:	c04a                	sw	s2,0(sp)
    2968:	c606                	sw	ra,12(sp)
    296a:	892a                	mv	s2,a0
    296c:	842e                	mv	s0,a1
    296e:	c489                	beqz	s1,2978 <__swsetup_r+0x1e>
    2970:	4c9c                	lw	a5,24(s1)
    2972:	e399                	bnez	a5,2978 <__swsetup_r+0x1e>
    2974:	8526                	mv	a0,s1
    2976:	26a9                	jal	2cc0 <__sinit>
    2978:	00002797          	auipc	a5,0x2
    297c:	17c78793          	addi	a5,a5,380 # 4af4 <__sf_fake_stdin>
    2980:	02f41c63          	bne	s0,a5,29b8 <__swsetup_r+0x5e>
    2984:	40c0                	lw	s0,4(s1)
    2986:	00c41703          	lh	a4,12(s0)
    298a:	01071793          	slli	a5,a4,0x10
    298e:	83c1                	srli	a5,a5,0x10
    2990:	0087f693          	andi	a3,a5,8
    2994:	eeb5                	bnez	a3,2a10 <__swsetup_r+0xb6>
    2996:	0107f693          	andi	a3,a5,16
    299a:	ee9d                	bnez	a3,29d8 <__swsetup_r+0x7e>
    299c:	47a5                	li	a5,9
    299e:	00f92023          	sw	a5,0(s2)
    29a2:	04076713          	ori	a4,a4,64
    29a6:	00e41623          	sh	a4,12(s0)
    29aa:	557d                	li	a0,-1
    29ac:	40b2                	lw	ra,12(sp)
    29ae:	4422                	lw	s0,8(sp)
    29b0:	4492                	lw	s1,4(sp)
    29b2:	4902                	lw	s2,0(sp)
    29b4:	0141                	addi	sp,sp,16
    29b6:	8082                	ret
    29b8:	00002797          	auipc	a5,0x2
    29bc:	15c78793          	addi	a5,a5,348 # 4b14 <__sf_fake_stdout>
    29c0:	00f41463          	bne	s0,a5,29c8 <__swsetup_r+0x6e>
    29c4:	4480                	lw	s0,8(s1)
    29c6:	b7c1                	j	2986 <__swsetup_r+0x2c>
    29c8:	00002797          	auipc	a5,0x2
    29cc:	10c78793          	addi	a5,a5,268 # 4ad4 <__sf_fake_stderr>
    29d0:	faf41be3          	bne	s0,a5,2986 <__swsetup_r+0x2c>
    29d4:	44c0                	lw	s0,12(s1)
    29d6:	bf45                	j	2986 <__swsetup_r+0x2c>
    29d8:	8b91                	andi	a5,a5,4
    29da:	c78d                	beqz	a5,2a04 <__swsetup_r+0xaa>
    29dc:	584c                	lw	a1,52(s0)
    29de:	c989                	beqz	a1,29f0 <__swsetup_r+0x96>
    29e0:	04440793          	addi	a5,s0,68
    29e4:	00f58463          	beq	a1,a5,29ec <__swsetup_r+0x92>
    29e8:	854a                	mv	a0,s2
    29ea:	2b35                	jal	2f26 <_free_r>
    29ec:	02042a23          	sw	zero,52(s0)
    29f0:	00c45783          	lhu	a5,12(s0)
    29f4:	00042223          	sw	zero,4(s0)
    29f8:	fdb7f793          	andi	a5,a5,-37
    29fc:	00f41623          	sh	a5,12(s0)
    2a00:	481c                	lw	a5,16(s0)
    2a02:	c01c                	sw	a5,0(s0)
    2a04:	00c45783          	lhu	a5,12(s0)
    2a08:	0087e793          	ori	a5,a5,8
    2a0c:	00f41623          	sh	a5,12(s0)
    2a10:	481c                	lw	a5,16(s0)
    2a12:	ef81                	bnez	a5,2a2a <__swsetup_r+0xd0>
    2a14:	00c45783          	lhu	a5,12(s0)
    2a18:	20000713          	li	a4,512
    2a1c:	2807f793          	andi	a5,a5,640
    2a20:	00e78563          	beq	a5,a4,2a2a <__swsetup_r+0xd0>
    2a24:	85a2                	mv	a1,s0
    2a26:	854a                	mv	a0,s2
    2a28:	2185                	jal	2e88 <__smakebuf_r>
    2a2a:	00c45783          	lhu	a5,12(s0)
    2a2e:	0017f713          	andi	a4,a5,1
    2a32:	c705                	beqz	a4,2a5a <__swsetup_r+0x100>
    2a34:	485c                	lw	a5,20(s0)
    2a36:	00042423          	sw	zero,8(s0)
    2a3a:	40f007b3          	neg	a5,a5
    2a3e:	cc1c                	sw	a5,24(s0)
    2a40:	481c                	lw	a5,16(s0)
    2a42:	4501                	li	a0,0
    2a44:	f7a5                	bnez	a5,29ac <__swsetup_r+0x52>
    2a46:	00c41783          	lh	a5,12(s0)
    2a4a:	0807f713          	andi	a4,a5,128
    2a4e:	df39                	beqz	a4,29ac <__swsetup_r+0x52>
    2a50:	0407e793          	ori	a5,a5,64
    2a54:	00f41623          	sh	a5,12(s0)
    2a58:	bf89                	j	29aa <__swsetup_r+0x50>
    2a5a:	8b89                	andi	a5,a5,2
    2a5c:	4701                	li	a4,0
    2a5e:	e391                	bnez	a5,2a62 <__swsetup_r+0x108>
    2a60:	4858                	lw	a4,20(s0)
    2a62:	c418                	sw	a4,8(s0)
    2a64:	bff1                	j	2a40 <__swsetup_r+0xe6>

00002a66 <__sflush_r>:
__sflush_r():
    2a66:	00c5d783          	lhu	a5,12(a1)
    2a6a:	1101                	addi	sp,sp,-32
    2a6c:	cc22                	sw	s0,24(sp)
    2a6e:	ca26                	sw	s1,20(sp)
    2a70:	ce06                	sw	ra,28(sp)
    2a72:	c84a                	sw	s2,16(sp)
    2a74:	c64e                	sw	s3,12(sp)
    2a76:	0087f713          	andi	a4,a5,8
    2a7a:	84aa                	mv	s1,a0
    2a7c:	842e                	mv	s0,a1
    2a7e:	ef71                	bnez	a4,2b5a <__sflush_r+0xf4>
    2a80:	41d8                	lw	a4,4(a1)
    2a82:	00e04d63          	bgtz	a4,2a9c <__sflush_r+0x36>
    2a86:	41b8                	lw	a4,64(a1)
    2a88:	00e04a63          	bgtz	a4,2a9c <__sflush_r+0x36>
    2a8c:	4501                	li	a0,0
    2a8e:	40f2                	lw	ra,28(sp)
    2a90:	4462                	lw	s0,24(sp)
    2a92:	44d2                	lw	s1,20(sp)
    2a94:	4942                	lw	s2,16(sp)
    2a96:	49b2                	lw	s3,12(sp)
    2a98:	6105                	addi	sp,sp,32
    2a9a:	8082                	ret
    2a9c:	5458                	lw	a4,44(s0)
    2a9e:	d77d                	beqz	a4,2a8c <__sflush_r+0x26>
    2aa0:	0004a903          	lw	s2,0(s1)
    2aa4:	01379693          	slli	a3,a5,0x13
    2aa8:	0004a023          	sw	zero,0(s1)
    2aac:	0606dd63          	bgez	a3,2b26 <__sflush_r+0xc0>
    2ab0:	4870                	lw	a2,84(s0)
    2ab2:	00c45783          	lhu	a5,12(s0)
    2ab6:	8b91                	andi	a5,a5,4
    2ab8:	c799                	beqz	a5,2ac6 <__sflush_r+0x60>
    2aba:	405c                	lw	a5,4(s0)
    2abc:	8e1d                	sub	a2,a2,a5
    2abe:	585c                	lw	a5,52(s0)
    2ac0:	c399                	beqz	a5,2ac6 <__sflush_r+0x60>
    2ac2:	403c                	lw	a5,64(s0)
    2ac4:	8e1d                	sub	a2,a2,a5
    2ac6:	545c                	lw	a5,44(s0)
    2ac8:	500c                	lw	a1,32(s0)
    2aca:	4681                	li	a3,0
    2acc:	8526                	mv	a0,s1
    2ace:	9782                	jalr	a5
    2ad0:	57fd                	li	a5,-1
    2ad2:	00c45703          	lhu	a4,12(s0)
    2ad6:	00f51d63          	bne	a0,a5,2af0 <__sflush_r+0x8a>
    2ada:	4094                	lw	a3,0(s1)
    2adc:	47f5                	li	a5,29
    2ade:	06d7e863          	bltu	a5,a3,2b4e <__sflush_r+0xe8>
    2ae2:	204007b7          	lui	a5,0x20400
    2ae6:	0785                	addi	a5,a5,1
    2ae8:	00d7d7b3          	srl	a5,a5,a3
    2aec:	8b85                	andi	a5,a5,1
    2aee:	c3a5                	beqz	a5,2b4e <__sflush_r+0xe8>
    2af0:	481c                	lw	a5,16(s0)
    2af2:	00042223          	sw	zero,4(s0)
    2af6:	c01c                	sw	a5,0(s0)
    2af8:	01371793          	slli	a5,a4,0x13
    2afc:	0007d863          	bgez	a5,2b0c <__sflush_r+0xa6>
    2b00:	57fd                	li	a5,-1
    2b02:	00f51463          	bne	a0,a5,2b0a <__sflush_r+0xa4>
    2b06:	409c                	lw	a5,0(s1)
    2b08:	e391                	bnez	a5,2b0c <__sflush_r+0xa6>
    2b0a:	c868                	sw	a0,84(s0)
    2b0c:	584c                	lw	a1,52(s0)
    2b0e:	0124a023          	sw	s2,0(s1)
    2b12:	ddad                	beqz	a1,2a8c <__sflush_r+0x26>
    2b14:	04440793          	addi	a5,s0,68
    2b18:	00f58463          	beq	a1,a5,2b20 <__sflush_r+0xba>
    2b1c:	8526                	mv	a0,s1
    2b1e:	2121                	jal	2f26 <_free_r>
    2b20:	02042a23          	sw	zero,52(s0)
    2b24:	b7a5                	j	2a8c <__sflush_r+0x26>
    2b26:	500c                	lw	a1,32(s0)
    2b28:	4601                	li	a2,0
    2b2a:	4685                	li	a3,1
    2b2c:	8526                	mv	a0,s1
    2b2e:	9702                	jalr	a4
    2b30:	57fd                	li	a5,-1
    2b32:	862a                	mv	a2,a0
    2b34:	f6f51fe3          	bne	a0,a5,2ab2 <__sflush_r+0x4c>
    2b38:	409c                	lw	a5,0(s1)
    2b3a:	dfa5                	beqz	a5,2ab2 <__sflush_r+0x4c>
    2b3c:	4775                	li	a4,29
    2b3e:	00e78563          	beq	a5,a4,2b48 <__sflush_r+0xe2>
    2b42:	4759                	li	a4,22
    2b44:	04e79463          	bne	a5,a4,2b8c <__sflush_r+0x126>
    2b48:	0124a023          	sw	s2,0(s1)
    2b4c:	b781                	j	2a8c <__sflush_r+0x26>
    2b4e:	04076713          	ori	a4,a4,64
    2b52:	00e41623          	sh	a4,12(s0)
    2b56:	557d                	li	a0,-1
    2b58:	bf1d                	j	2a8e <__sflush_r+0x28>
    2b5a:	0105a983          	lw	s3,16(a1)
    2b5e:	f20987e3          	beqz	s3,2a8c <__sflush_r+0x26>
    2b62:	0005a903          	lw	s2,0(a1)
    2b66:	8b8d                	andi	a5,a5,3
    2b68:	0135a023          	sw	s3,0(a1)
    2b6c:	41390933          	sub	s2,s2,s3
    2b70:	4701                	li	a4,0
    2b72:	e391                	bnez	a5,2b76 <__sflush_r+0x110>
    2b74:	49d8                	lw	a4,20(a1)
    2b76:	c418                	sw	a4,8(s0)
    2b78:	f1205ae3          	blez	s2,2a8c <__sflush_r+0x26>
    2b7c:	541c                	lw	a5,40(s0)
    2b7e:	500c                	lw	a1,32(s0)
    2b80:	86ca                	mv	a3,s2
    2b82:	864e                	mv	a2,s3
    2b84:	8526                	mv	a0,s1
    2b86:	9782                	jalr	a5
    2b88:	00a04963          	bgtz	a0,2b9a <__sflush_r+0x134>
    2b8c:	00c45783          	lhu	a5,12(s0)
    2b90:	0407e793          	ori	a5,a5,64
    2b94:	00f41623          	sh	a5,12(s0)
    2b98:	bf7d                	j	2b56 <__sflush_r+0xf0>
    2b9a:	99aa                	add	s3,s3,a0
    2b9c:	40a90933          	sub	s2,s2,a0
    2ba0:	bfe1                	j	2b78 <__sflush_r+0x112>

00002ba2 <_fflush_r>:
_fflush_r():
    2ba2:	499c                	lw	a5,16(a1)
    2ba4:	cfb9                	beqz	a5,2c02 <_fflush_r+0x60>
    2ba6:	1101                	addi	sp,sp,-32
    2ba8:	cc22                	sw	s0,24(sp)
    2baa:	ce06                	sw	ra,28(sp)
    2bac:	842a                	mv	s0,a0
    2bae:	c511                	beqz	a0,2bba <_fflush_r+0x18>
    2bb0:	4d1c                	lw	a5,24(a0)
    2bb2:	e781                	bnez	a5,2bba <_fflush_r+0x18>
    2bb4:	c62e                	sw	a1,12(sp)
    2bb6:	2229                	jal	2cc0 <__sinit>
    2bb8:	45b2                	lw	a1,12(sp)
    2bba:	00002797          	auipc	a5,0x2
    2bbe:	f3a78793          	addi	a5,a5,-198 # 4af4 <__sf_fake_stdin>
    2bc2:	00f59b63          	bne	a1,a5,2bd8 <_fflush_r+0x36>
    2bc6:	404c                	lw	a1,4(s0)
    2bc8:	00c59783          	lh	a5,12(a1)
    2bcc:	c795                	beqz	a5,2bf8 <_fflush_r+0x56>
    2bce:	8522                	mv	a0,s0
    2bd0:	4462                	lw	s0,24(sp)
    2bd2:	40f2                	lw	ra,28(sp)
    2bd4:	6105                	addi	sp,sp,32
    2bd6:	bd41                	j	2a66 <__sflush_r>
    2bd8:	00002797          	auipc	a5,0x2
    2bdc:	f3c78793          	addi	a5,a5,-196 # 4b14 <__sf_fake_stdout>
    2be0:	00f59463          	bne	a1,a5,2be8 <_fflush_r+0x46>
    2be4:	440c                	lw	a1,8(s0)
    2be6:	b7cd                	j	2bc8 <_fflush_r+0x26>
    2be8:	00002797          	auipc	a5,0x2
    2bec:	eec78793          	addi	a5,a5,-276 # 4ad4 <__sf_fake_stderr>
    2bf0:	fcf59ce3          	bne	a1,a5,2bc8 <_fflush_r+0x26>
    2bf4:	444c                	lw	a1,12(s0)
    2bf6:	bfc9                	j	2bc8 <_fflush_r+0x26>
    2bf8:	40f2                	lw	ra,28(sp)
    2bfa:	4462                	lw	s0,24(sp)
    2bfc:	4501                	li	a0,0
    2bfe:	6105                	addi	sp,sp,32
    2c00:	8082                	ret
    2c02:	4501                	li	a0,0
    2c04:	8082                	ret

00002c06 <std>:
std():
    2c06:	1141                	addi	sp,sp,-16
    2c08:	c422                	sw	s0,8(sp)
    2c0a:	c606                	sw	ra,12(sp)
    2c0c:	842a                	mv	s0,a0
    2c0e:	00b51623          	sh	a1,12(a0)
    2c12:	00c51723          	sh	a2,14(a0)
    2c16:	00052023          	sw	zero,0(a0)
    2c1a:	00052223          	sw	zero,4(a0)
    2c1e:	00052423          	sw	zero,8(a0)
    2c22:	06052223          	sw	zero,100(a0)
    2c26:	00052823          	sw	zero,16(a0)
    2c2a:	00052a23          	sw	zero,20(a0)
    2c2e:	00052c23          	sw	zero,24(a0)
    2c32:	4621                	li	a2,8
    2c34:	4581                	li	a1,0
    2c36:	05c50513          	addi	a0,a0,92
    2c3a:	c86fd0ef          	jal	ra,c0 <memset>
    2c3e:	00001797          	auipc	a5,0x1
    2c42:	bac78793          	addi	a5,a5,-1108 # 37ea <__sread>
    2c46:	d05c                	sw	a5,36(s0)
    2c48:	00001797          	auipc	a5,0x1
    2c4c:	bd278793          	addi	a5,a5,-1070 # 381a <__swrite>
    2c50:	d41c                	sw	a5,40(s0)
    2c52:	00001797          	auipc	a5,0x1
    2c56:	c1678793          	addi	a5,a5,-1002 # 3868 <__sseek>
    2c5a:	d45c                	sw	a5,44(s0)
    2c5c:	00001797          	auipc	a5,0x1
    2c60:	c4278793          	addi	a5,a5,-958 # 389e <__sclose>
    2c64:	d000                	sw	s0,32(s0)
    2c66:	d81c                	sw	a5,48(s0)
    2c68:	40b2                	lw	ra,12(sp)
    2c6a:	4422                	lw	s0,8(sp)
    2c6c:	0141                	addi	sp,sp,16
    2c6e:	8082                	ret

00002c70 <_cleanup_r>:
_cleanup_r():
    2c70:	00000597          	auipc	a1,0x0
    2c74:	f3258593          	addi	a1,a1,-206 # 2ba2 <_fflush_r>
    2c78:	a2a9                	j	2dc2 <_fwalk_reent>

00002c7a <__sfmoreglue>:
__sfmoreglue():
    2c7a:	1141                	addi	sp,sp,-16
    2c7c:	c226                	sw	s1,4(sp)
    2c7e:	06800613          	li	a2,104
    2c82:	fff58493          	addi	s1,a1,-1
    2c86:	02c484b3          	mul	s1,s1,a2
    2c8a:	c04a                	sw	s2,0(sp)
    2c8c:	892e                	mv	s2,a1
    2c8e:	c422                	sw	s0,8(sp)
    2c90:	c606                	sw	ra,12(sp)
    2c92:	07448593          	addi	a1,s1,116
    2c96:	2e25                	jal	2fce <_malloc_r>
    2c98:	842a                	mv	s0,a0
    2c9a:	cd01                	beqz	a0,2cb2 <__sfmoreglue+0x38>
    2c9c:	00052023          	sw	zero,0(a0)
    2ca0:	01252223          	sw	s2,4(a0)
    2ca4:	0531                	addi	a0,a0,12
    2ca6:	c408                	sw	a0,8(s0)
    2ca8:	06848613          	addi	a2,s1,104
    2cac:	4581                	li	a1,0
    2cae:	c12fd0ef          	jal	ra,c0 <memset>
    2cb2:	8522                	mv	a0,s0
    2cb4:	40b2                	lw	ra,12(sp)
    2cb6:	4422                	lw	s0,8(sp)
    2cb8:	4492                	lw	s1,4(sp)
    2cba:	4902                	lw	s2,0(sp)
    2cbc:	0141                	addi	sp,sp,16
    2cbe:	8082                	ret

00002cc0 <__sinit>:
__sinit():
    2cc0:	4d1c                	lw	a5,24(a0)
    2cc2:	e3ad                	bnez	a5,2d24 <__sinit+0x64>
    2cc4:	1141                	addi	sp,sp,-16
    2cc6:	c606                	sw	ra,12(sp)
    2cc8:	c422                	sw	s0,8(sp)
    2cca:	00000797          	auipc	a5,0x0
    2cce:	fa678793          	addi	a5,a5,-90 # 2c70 <_cleanup_r>
    2cd2:	d51c                	sw	a5,40(a0)
    2cd4:	81c18793          	addi	a5,gp,-2020 # 2000014c <_global_impure_ptr>
    2cd8:	439c                	lw	a5,0(a5)
    2cda:	04052423          	sw	zero,72(a0)
    2cde:	04052623          	sw	zero,76(a0)
    2ce2:	04052823          	sw	zero,80(a0)
    2ce6:	00f51463          	bne	a0,a5,2cee <__sinit+0x2e>
    2cea:	4785                	li	a5,1
    2cec:	cd1c                	sw	a5,24(a0)
    2cee:	842a                	mv	s0,a0
    2cf0:	281d                	jal	2d26 <__sfp>
    2cf2:	c048                	sw	a0,4(s0)
    2cf4:	8522                	mv	a0,s0
    2cf6:	2805                	jal	2d26 <__sfp>
    2cf8:	c408                	sw	a0,8(s0)
    2cfa:	8522                	mv	a0,s0
    2cfc:	202d                	jal	2d26 <__sfp>
    2cfe:	c448                	sw	a0,12(s0)
    2d00:	4048                	lw	a0,4(s0)
    2d02:	4601                	li	a2,0
    2d04:	4591                	li	a1,4
    2d06:	3701                	jal	2c06 <std>
    2d08:	4408                	lw	a0,8(s0)
    2d0a:	4605                	li	a2,1
    2d0c:	45a5                	li	a1,9
    2d0e:	3de5                	jal	2c06 <std>
    2d10:	4448                	lw	a0,12(s0)
    2d12:	4609                	li	a2,2
    2d14:	45c9                	li	a1,18
    2d16:	3dc5                	jal	2c06 <std>
    2d18:	4785                	li	a5,1
    2d1a:	cc1c                	sw	a5,24(s0)
    2d1c:	40b2                	lw	ra,12(sp)
    2d1e:	4422                	lw	s0,8(sp)
    2d20:	0141                	addi	sp,sp,16
    2d22:	8082                	ret
    2d24:	8082                	ret

00002d26 <__sfp>:
__sfp():
    2d26:	1141                	addi	sp,sp,-16
    2d28:	81c18793          	addi	a5,gp,-2020 # 2000014c <_global_impure_ptr>
    2d2c:	c226                	sw	s1,4(sp)
    2d2e:	4384                	lw	s1,0(a5)
    2d30:	c04a                	sw	s2,0(sp)
    2d32:	c606                	sw	ra,12(sp)
    2d34:	4c9c                	lw	a5,24(s1)
    2d36:	c422                	sw	s0,8(sp)
    2d38:	892a                	mv	s2,a0
    2d3a:	e399                	bnez	a5,2d40 <__sfp+0x1a>
    2d3c:	8526                	mv	a0,s1
    2d3e:	3749                	jal	2cc0 <__sinit>
    2d40:	04848493          	addi	s1,s1,72
    2d44:	4480                	lw	s0,8(s1)
    2d46:	40dc                	lw	a5,4(s1)
    2d48:	17fd                	addi	a5,a5,-1
    2d4a:	0007d663          	bgez	a5,2d56 <__sfp+0x30>
    2d4e:	409c                	lw	a5,0(s1)
    2d50:	cfb9                	beqz	a5,2dae <__sfp+0x88>
    2d52:	4084                	lw	s1,0(s1)
    2d54:	bfc5                	j	2d44 <__sfp+0x1e>
    2d56:	00c41703          	lh	a4,12(s0)
    2d5a:	e739                	bnez	a4,2da8 <__sfp+0x82>
    2d5c:	77c1                	lui	a5,0xffff0
    2d5e:	0785                	addi	a5,a5,1
    2d60:	06042223          	sw	zero,100(s0)
    2d64:	00042023          	sw	zero,0(s0)
    2d68:	00042223          	sw	zero,4(s0)
    2d6c:	00042423          	sw	zero,8(s0)
    2d70:	c45c                	sw	a5,12(s0)
    2d72:	00042823          	sw	zero,16(s0)
    2d76:	00042a23          	sw	zero,20(s0)
    2d7a:	00042c23          	sw	zero,24(s0)
    2d7e:	4621                	li	a2,8
    2d80:	4581                	li	a1,0
    2d82:	05c40513          	addi	a0,s0,92
    2d86:	b3afd0ef          	jal	ra,c0 <memset>
    2d8a:	02042a23          	sw	zero,52(s0)
    2d8e:	02042c23          	sw	zero,56(s0)
    2d92:	04042423          	sw	zero,72(s0)
    2d96:	04042623          	sw	zero,76(s0)
    2d9a:	8522                	mv	a0,s0
    2d9c:	40b2                	lw	ra,12(sp)
    2d9e:	4422                	lw	s0,8(sp)
    2da0:	4492                	lw	s1,4(sp)
    2da2:	4902                	lw	s2,0(sp)
    2da4:	0141                	addi	sp,sp,16
    2da6:	8082                	ret
    2da8:	06840413          	addi	s0,s0,104
    2dac:	bf71                	j	2d48 <__sfp+0x22>
    2dae:	4591                	li	a1,4
    2db0:	854a                	mv	a0,s2
    2db2:	35e1                	jal	2c7a <__sfmoreglue>
    2db4:	c088                	sw	a0,0(s1)
    2db6:	fd51                	bnez	a0,2d52 <__sfp+0x2c>
    2db8:	47b1                	li	a5,12
    2dba:	00f92023          	sw	a5,0(s2)
    2dbe:	4401                	li	s0,0
    2dc0:	bfe9                	j	2d9a <__sfp+0x74>

00002dc2 <_fwalk_reent>:
_fwalk_reent():
    2dc2:	7179                	addi	sp,sp,-48
    2dc4:	d422                	sw	s0,40(sp)
    2dc6:	d04a                	sw	s2,32(sp)
    2dc8:	cc52                	sw	s4,24(sp)
    2dca:	ca56                	sw	s5,20(sp)
    2dcc:	c85a                	sw	s6,16(sp)
    2dce:	c65e                	sw	s7,12(sp)
    2dd0:	d606                	sw	ra,44(sp)
    2dd2:	d226                	sw	s1,36(sp)
    2dd4:	ce4e                	sw	s3,28(sp)
    2dd6:	8a2a                	mv	s4,a0
    2dd8:	8aae                	mv	s5,a1
    2dda:	04850413          	addi	s0,a0,72
    2dde:	4901                	li	s2,0
    2de0:	4b05                	li	s6,1
    2de2:	5bfd                	li	s7,-1
    2de4:	ec09                	bnez	s0,2dfe <_fwalk_reent+0x3c>
    2de6:	50b2                	lw	ra,44(sp)
    2de8:	5422                	lw	s0,40(sp)
    2dea:	854a                	mv	a0,s2
    2dec:	5492                	lw	s1,36(sp)
    2dee:	5902                	lw	s2,32(sp)
    2df0:	49f2                	lw	s3,28(sp)
    2df2:	4a62                	lw	s4,24(sp)
    2df4:	4ad2                	lw	s5,20(sp)
    2df6:	4b42                	lw	s6,16(sp)
    2df8:	4bb2                	lw	s7,12(sp)
    2dfa:	6145                	addi	sp,sp,48
    2dfc:	8082                	ret
    2dfe:	4404                	lw	s1,8(s0)
    2e00:	00442983          	lw	s3,4(s0)
    2e04:	19fd                	addi	s3,s3,-1
    2e06:	0009d463          	bgez	s3,2e0e <_fwalk_reent+0x4c>
    2e0a:	4000                	lw	s0,0(s0)
    2e0c:	bfe1                	j	2de4 <_fwalk_reent+0x22>
    2e0e:	00c4d783          	lhu	a5,12(s1)
    2e12:	00fb7b63          	bgeu	s6,a5,2e28 <_fwalk_reent+0x66>
    2e16:	00e49783          	lh	a5,14(s1)
    2e1a:	01778763          	beq	a5,s7,2e28 <_fwalk_reent+0x66>
    2e1e:	85a6                	mv	a1,s1
    2e20:	8552                	mv	a0,s4
    2e22:	9a82                	jalr	s5
    2e24:	00a96933          	or	s2,s2,a0
    2e28:	06848493          	addi	s1,s1,104
    2e2c:	bfe1                	j	2e04 <_fwalk_reent+0x42>

00002e2e <__swhatbuf_r>:
__swhatbuf_r():
    2e2e:	7119                	addi	sp,sp,-128
    2e30:	daa6                	sw	s1,116(sp)
    2e32:	84ae                	mv	s1,a1
    2e34:	00e59583          	lh	a1,14(a1)
    2e38:	dca2                	sw	s0,120(sp)
    2e3a:	de86                	sw	ra,124(sp)
    2e3c:	8432                	mv	s0,a2
    2e3e:	0005dc63          	bgez	a1,2e56 <__swhatbuf_r+0x28>
    2e42:	00c4d783          	lhu	a5,12(s1)
    2e46:	0006a023          	sw	zero,0(a3)
    2e4a:	0807f793          	andi	a5,a5,128
    2e4e:	e785                	bnez	a5,2e76 <__swhatbuf_r+0x48>
    2e50:	40000793          	li	a5,1024
    2e54:	a01d                	j	2e7a <__swhatbuf_r+0x4c>
    2e56:	0830                	addi	a2,sp,24
    2e58:	c636                	sw	a3,12(sp)
    2e5a:	2b1000ef          	jal	ra,390a <_fstat_r>
    2e5e:	46b2                	lw	a3,12(sp)
    2e60:	fe0541e3          	bltz	a0,2e42 <__swhatbuf_r+0x14>
    2e64:	4772                	lw	a4,28(sp)
    2e66:	67bd                	lui	a5,0xf
    2e68:	8ff9                	and	a5,a5,a4
    2e6a:	7779                	lui	a4,0xffffe
    2e6c:	97ba                	add	a5,a5,a4
    2e6e:	0017b793          	seqz	a5,a5
    2e72:	c29c                	sw	a5,0(a3)
    2e74:	bff1                	j	2e50 <__swhatbuf_r+0x22>
    2e76:	04000793          	li	a5,64
    2e7a:	c01c                	sw	a5,0(s0)
    2e7c:	50f6                	lw	ra,124(sp)
    2e7e:	5466                	lw	s0,120(sp)
    2e80:	54d6                	lw	s1,116(sp)
    2e82:	4501                	li	a0,0
    2e84:	6109                	addi	sp,sp,128
    2e86:	8082                	ret

00002e88 <__smakebuf_r>:
__smakebuf_r():
    2e88:	00c5d783          	lhu	a5,12(a1)
    2e8c:	1101                	addi	sp,sp,-32
    2e8e:	cc22                	sw	s0,24(sp)
    2e90:	ce06                	sw	ra,28(sp)
    2e92:	ca26                	sw	s1,20(sp)
    2e94:	c84a                	sw	s2,16(sp)
    2e96:	8b89                	andi	a5,a5,2
    2e98:	842e                	mv	s0,a1
    2e9a:	cf89                	beqz	a5,2eb4 <__smakebuf_r+0x2c>
    2e9c:	04740793          	addi	a5,s0,71
    2ea0:	c01c                	sw	a5,0(s0)
    2ea2:	c81c                	sw	a5,16(s0)
    2ea4:	4785                	li	a5,1
    2ea6:	c85c                	sw	a5,20(s0)
    2ea8:	40f2                	lw	ra,28(sp)
    2eaa:	4462                	lw	s0,24(sp)
    2eac:	44d2                	lw	s1,20(sp)
    2eae:	4942                	lw	s2,16(sp)
    2eb0:	6105                	addi	sp,sp,32
    2eb2:	8082                	ret
    2eb4:	0074                	addi	a3,sp,12
    2eb6:	0030                	addi	a2,sp,8
    2eb8:	84aa                	mv	s1,a0
    2eba:	3f95                	jal	2e2e <__swhatbuf_r>
    2ebc:	45a2                	lw	a1,8(sp)
    2ebe:	892a                	mv	s2,a0
    2ec0:	8526                	mv	a0,s1
    2ec2:	2231                	jal	2fce <_malloc_r>
    2ec4:	ed01                	bnez	a0,2edc <__smakebuf_r+0x54>
    2ec6:	00c41783          	lh	a5,12(s0)
    2eca:	2007f713          	andi	a4,a5,512
    2ece:	ff69                	bnez	a4,2ea8 <__smakebuf_r+0x20>
    2ed0:	9bf1                	andi	a5,a5,-4
    2ed2:	0027e793          	ori	a5,a5,2
    2ed6:	00f41623          	sh	a5,12(s0)
    2eda:	b7c9                	j	2e9c <__smakebuf_r+0x14>
    2edc:	00000797          	auipc	a5,0x0
    2ee0:	d9478793          	addi	a5,a5,-620 # 2c70 <_cleanup_r>
    2ee4:	d49c                	sw	a5,40(s1)
    2ee6:	00c45783          	lhu	a5,12(s0)
    2eea:	c008                	sw	a0,0(s0)
    2eec:	c808                	sw	a0,16(s0)
    2eee:	0807e793          	ori	a5,a5,128
    2ef2:	00f41623          	sh	a5,12(s0)
    2ef6:	47a2                	lw	a5,8(sp)
    2ef8:	c85c                	sw	a5,20(s0)
    2efa:	47b2                	lw	a5,12(sp)
    2efc:	cf91                	beqz	a5,2f18 <__smakebuf_r+0x90>
    2efe:	00e41583          	lh	a1,14(s0)
    2f02:	8526                	mv	a0,s1
    2f04:	239000ef          	jal	ra,393c <_isatty_r>
    2f08:	c901                	beqz	a0,2f18 <__smakebuf_r+0x90>
    2f0a:	00c45783          	lhu	a5,12(s0)
    2f0e:	9bf1                	andi	a5,a5,-4
    2f10:	0017e793          	ori	a5,a5,1
    2f14:	00f41623          	sh	a5,12(s0)
    2f18:	00c45783          	lhu	a5,12(s0)
    2f1c:	00f96933          	or	s2,s2,a5
    2f20:	01241623          	sh	s2,12(s0)
    2f24:	b751                	j	2ea8 <__smakebuf_r+0x20>

00002f26 <_free_r>:
_free_r():
    2f26:	c1dd                	beqz	a1,2fcc <_free_r+0xa6>
    2f28:	ffc5a783          	lw	a5,-4(a1)
    2f2c:	1141                	addi	sp,sp,-16
    2f2e:	c422                	sw	s0,8(sp)
    2f30:	c606                	sw	ra,12(sp)
    2f32:	c226                	sw	s1,4(sp)
    2f34:	ffc58413          	addi	s0,a1,-4
    2f38:	0007d363          	bgez	a5,2f3e <_free_r+0x18>
    2f3c:	943e                	add	s0,s0,a5
    2f3e:	84aa                	mv	s1,a0
    2f40:	2c5000ef          	jal	ra,3a04 <__malloc_lock>
    2f44:	87418793          	addi	a5,gp,-1932 # 200001a4 <__malloc_free_list>
    2f48:	439c                	lw	a5,0(a5)
    2f4a:	ef81                	bnez	a5,2f62 <_free_r+0x3c>
    2f4c:	00042223          	sw	zero,4(s0)
    2f50:	8681aa23          	sw	s0,-1932(gp) # 200001a4 <__malloc_free_list>
    2f54:	4422                	lw	s0,8(sp)
    2f56:	40b2                	lw	ra,12(sp)
    2f58:	8526                	mv	a0,s1
    2f5a:	4492                	lw	s1,4(sp)
    2f5c:	0141                	addi	sp,sp,16
    2f5e:	2a90006f          	j	3a06 <__malloc_unlock>
    2f62:	00f47e63          	bgeu	s0,a5,2f7e <_free_r+0x58>
    2f66:	4014                	lw	a3,0(s0)
    2f68:	00d40733          	add	a4,s0,a3
    2f6c:	00e79663          	bne	a5,a4,2f78 <_free_r+0x52>
    2f70:	4398                	lw	a4,0(a5)
    2f72:	43dc                	lw	a5,4(a5)
    2f74:	9736                	add	a4,a4,a3
    2f76:	c018                	sw	a4,0(s0)
    2f78:	c05c                	sw	a5,4(s0)
    2f7a:	bfd9                	j	2f50 <_free_r+0x2a>
    2f7c:	87ba                	mv	a5,a4
    2f7e:	43d8                	lw	a4,4(a5)
    2f80:	c319                	beqz	a4,2f86 <_free_r+0x60>
    2f82:	fee47de3          	bgeu	s0,a4,2f7c <_free_r+0x56>
    2f86:	4394                	lw	a3,0(a5)
    2f88:	00d78633          	add	a2,a5,a3
    2f8c:	00861f63          	bne	a2,s0,2faa <_free_r+0x84>
    2f90:	4010                	lw	a2,0(s0)
    2f92:	96b2                	add	a3,a3,a2
    2f94:	c394                	sw	a3,0(a5)
    2f96:	00d78633          	add	a2,a5,a3
    2f9a:	fac71de3          	bne	a4,a2,2f54 <_free_r+0x2e>
    2f9e:	4310                	lw	a2,0(a4)
    2fa0:	4358                	lw	a4,4(a4)
    2fa2:	96b2                	add	a3,a3,a2
    2fa4:	c394                	sw	a3,0(a5)
    2fa6:	c3d8                	sw	a4,4(a5)
    2fa8:	b775                	j	2f54 <_free_r+0x2e>
    2faa:	00c47563          	bgeu	s0,a2,2fb4 <_free_r+0x8e>
    2fae:	47b1                	li	a5,12
    2fb0:	c09c                	sw	a5,0(s1)
    2fb2:	b74d                	j	2f54 <_free_r+0x2e>
    2fb4:	4010                	lw	a2,0(s0)
    2fb6:	00c406b3          	add	a3,s0,a2
    2fba:	00d71663          	bne	a4,a3,2fc6 <_free_r+0xa0>
    2fbe:	4314                	lw	a3,0(a4)
    2fc0:	4358                	lw	a4,4(a4)
    2fc2:	96b2                	add	a3,a3,a2
    2fc4:	c014                	sw	a3,0(s0)
    2fc6:	c058                	sw	a4,4(s0)
    2fc8:	c3c0                	sw	s0,4(a5)
    2fca:	b769                	j	2f54 <_free_r+0x2e>
    2fcc:	8082                	ret

00002fce <_malloc_r>:
_malloc_r():
    2fce:	1101                	addi	sp,sp,-32
    2fd0:	ca26                	sw	s1,20(sp)
    2fd2:	00358493          	addi	s1,a1,3
    2fd6:	98f1                	andi	s1,s1,-4
    2fd8:	ce06                	sw	ra,28(sp)
    2fda:	cc22                	sw	s0,24(sp)
    2fdc:	c84a                	sw	s2,16(sp)
    2fde:	c64e                	sw	s3,12(sp)
    2fe0:	04a1                	addi	s1,s1,8
    2fe2:	47b1                	li	a5,12
    2fe4:	04f4f563          	bgeu	s1,a5,302e <_malloc_r+0x60>
    2fe8:	44b1                	li	s1,12
    2fea:	04b4e463          	bltu	s1,a1,3032 <_malloc_r+0x64>
    2fee:	892a                	mv	s2,a0
    2ff0:	215000ef          	jal	ra,3a04 <__malloc_lock>
    2ff4:	87418793          	addi	a5,gp,-1932 # 200001a4 <__malloc_free_list>
    2ff8:	4398                	lw	a4,0(a5)
    2ffa:	843a                	mv	s0,a4
    2ffc:	e429                	bnez	s0,3046 <_malloc_r+0x78>
    2ffe:	87818793          	addi	a5,gp,-1928 # 200001a8 <__malloc_sbrk_start>
    3002:	439c                	lw	a5,0(a5)
    3004:	e799                	bnez	a5,3012 <_malloc_r+0x44>
    3006:	4581                	li	a1,0
    3008:	854a                	mv	a0,s2
    300a:	7b0000ef          	jal	ra,37ba <_sbrk_r>
    300e:	86a1ac23          	sw	a0,-1928(gp) # 200001a8 <__malloc_sbrk_start>
    3012:	85a6                	mv	a1,s1
    3014:	854a                	mv	a0,s2
    3016:	7a4000ef          	jal	ra,37ba <_sbrk_r>
    301a:	59fd                	li	s3,-1
    301c:	07351963          	bne	a0,s3,308e <_malloc_r+0xc0>
    3020:	47b1                	li	a5,12
    3022:	00f92023          	sw	a5,0(s2)
    3026:	854a                	mv	a0,s2
    3028:	1df000ef          	jal	ra,3a06 <__malloc_unlock>
    302c:	a029                	j	3036 <_malloc_r+0x68>
    302e:	fa04dee3          	bgez	s1,2fea <_malloc_r+0x1c>
    3032:	47b1                	li	a5,12
    3034:	c11c                	sw	a5,0(a0)
    3036:	4501                	li	a0,0
    3038:	40f2                	lw	ra,28(sp)
    303a:	4462                	lw	s0,24(sp)
    303c:	44d2                	lw	s1,20(sp)
    303e:	4942                	lw	s2,16(sp)
    3040:	49b2                	lw	s3,12(sp)
    3042:	6105                	addi	sp,sp,32
    3044:	8082                	ret
    3046:	401c                	lw	a5,0(s0)
    3048:	8f85                	sub	a5,a5,s1
    304a:	0207cf63          	bltz	a5,3088 <_malloc_r+0xba>
    304e:	46ad                	li	a3,11
    3050:	00f6f663          	bgeu	a3,a5,305c <_malloc_r+0x8e>
    3054:	c01c                	sw	a5,0(s0)
    3056:	943e                	add	s0,s0,a5
    3058:	c004                	sw	s1,0(s0)
    305a:	a031                	j	3066 <_malloc_r+0x98>
    305c:	405c                	lw	a5,4(s0)
    305e:	02871363          	bne	a4,s0,3084 <_malloc_r+0xb6>
    3062:	86f1aa23          	sw	a5,-1932(gp) # 200001a4 <__malloc_free_list>
    3066:	854a                	mv	a0,s2
    3068:	19f000ef          	jal	ra,3a06 <__malloc_unlock>
    306c:	00b40513          	addi	a0,s0,11
    3070:	00440793          	addi	a5,s0,4
    3074:	9961                	andi	a0,a0,-8
    3076:	40f50733          	sub	a4,a0,a5
    307a:	df5d                	beqz	a4,3038 <_malloc_r+0x6a>
    307c:	943a                	add	s0,s0,a4
    307e:	8f89                	sub	a5,a5,a0
    3080:	c01c                	sw	a5,0(s0)
    3082:	bf5d                	j	3038 <_malloc_r+0x6a>
    3084:	c35c                	sw	a5,4(a4)
    3086:	b7c5                	j	3066 <_malloc_r+0x98>
    3088:	8722                	mv	a4,s0
    308a:	4040                	lw	s0,4(s0)
    308c:	bf85                	j	2ffc <_malloc_r+0x2e>
    308e:	00350413          	addi	s0,a0,3
    3092:	9871                	andi	s0,s0,-4
    3094:	fc8502e3          	beq	a0,s0,3058 <_malloc_r+0x8a>
    3098:	40a405b3          	sub	a1,s0,a0
    309c:	854a                	mv	a0,s2
    309e:	2f31                	jal	37ba <_sbrk_r>
    30a0:	fb351ce3          	bne	a0,s3,3058 <_malloc_r+0x8a>
    30a4:	bfb5                	j	3020 <_malloc_r+0x52>

000030a6 <__ssputs_r>:
__ssputs_r():
    30a6:	1101                	addi	sp,sp,-32
    30a8:	c84a                	sw	s2,16(sp)
    30aa:	0085a903          	lw	s2,8(a1)
    30ae:	cc22                	sw	s0,24(sp)
    30b0:	c452                	sw	s4,8(sp)
    30b2:	c05a                	sw	s6,0(sp)
    30b4:	ce06                	sw	ra,28(sp)
    30b6:	ca26                	sw	s1,20(sp)
    30b8:	c64e                	sw	s3,12(sp)
    30ba:	c256                	sw	s5,4(sp)
    30bc:	842e                	mv	s0,a1
    30be:	8b32                	mv	s6,a2
    30c0:	8a36                	mv	s4,a3
    30c2:	0926ed63          	bltu	a3,s2,315c <__ssputs_r+0xb6>
    30c6:	00c5d783          	lhu	a5,12(a1)
    30ca:	4807f713          	andi	a4,a5,1152
    30ce:	c749                	beqz	a4,3158 <__ssputs_r+0xb2>
    30d0:	4004                	lw	s1,0(s0)
    30d2:	498c                	lw	a1,16(a1)
    30d4:	4858                	lw	a4,20(s0)
    30d6:	8aaa                	mv	s5,a0
    30d8:	40b489b3          	sub	s3,s1,a1
    30dc:	448d                	li	s1,3
    30de:	02e484b3          	mul	s1,s1,a4
    30e2:	4709                	li	a4,2
    30e4:	02e4c4b3          	div	s1,s1,a4
    30e8:	00168713          	addi	a4,a3,1
    30ec:	974e                	add	a4,a4,s3
    30ee:	00e4f363          	bgeu	s1,a4,30f4 <__ssputs_r+0x4e>
    30f2:	84ba                	mv	s1,a4
    30f4:	4007f793          	andi	a5,a5,1024
    30f8:	c3d1                	beqz	a5,317c <__ssputs_r+0xd6>
    30fa:	85a6                	mv	a1,s1
    30fc:	8556                	mv	a0,s5
    30fe:	3dc1                	jal	2fce <_malloc_r>
    3100:	892a                	mv	s2,a0
    3102:	e50d                	bnez	a0,312c <__ssputs_r+0x86>
    3104:	47b1                	li	a5,12
    3106:	00faa023          	sw	a5,0(s5)
    310a:	00c45783          	lhu	a5,12(s0)
    310e:	557d                	li	a0,-1
    3110:	0407e793          	ori	a5,a5,64
    3114:	00f41623          	sh	a5,12(s0)
    3118:	40f2                	lw	ra,28(sp)
    311a:	4462                	lw	s0,24(sp)
    311c:	44d2                	lw	s1,20(sp)
    311e:	4942                	lw	s2,16(sp)
    3120:	49b2                	lw	s3,12(sp)
    3122:	4a22                	lw	s4,8(sp)
    3124:	4a92                	lw	s5,4(sp)
    3126:	4b02                	lw	s6,0(sp)
    3128:	6105                	addi	sp,sp,32
    312a:	8082                	ret
    312c:	480c                	lw	a1,16(s0)
    312e:	864e                	mv	a2,s3
    3130:	e2cff0ef          	jal	ra,275c <memcpy>
    3134:	00c45783          	lhu	a5,12(s0)
    3138:	b7f7f793          	andi	a5,a5,-1153
    313c:	0807e793          	ori	a5,a5,128
    3140:	00f41623          	sh	a5,12(s0)
    3144:	01242823          	sw	s2,16(s0)
    3148:	c844                	sw	s1,20(s0)
    314a:	994e                	add	s2,s2,s3
    314c:	413484b3          	sub	s1,s1,s3
    3150:	01242023          	sw	s2,0(s0)
    3154:	c404                	sw	s1,8(s0)
    3156:	8952                	mv	s2,s4
    3158:	012a7363          	bgeu	s4,s2,315e <__ssputs_r+0xb8>
    315c:	8952                	mv	s2,s4
    315e:	4008                	lw	a0,0(s0)
    3160:	864a                	mv	a2,s2
    3162:	85da                	mv	a1,s6
    3164:	057000ef          	jal	ra,39ba <memmove>
    3168:	441c                	lw	a5,8(s0)
    316a:	4501                	li	a0,0
    316c:	412787b3          	sub	a5,a5,s2
    3170:	c41c                	sw	a5,8(s0)
    3172:	401c                	lw	a5,0(s0)
    3174:	993e                	add	s2,s2,a5
    3176:	01242023          	sw	s2,0(s0)
    317a:	bf79                	j	3118 <__ssputs_r+0x72>
    317c:	8626                	mv	a2,s1
    317e:	8556                	mv	a0,s5
    3180:	089000ef          	jal	ra,3a08 <_realloc_r>
    3184:	892a                	mv	s2,a0
    3186:	fd5d                	bnez	a0,3144 <__ssputs_r+0x9e>
    3188:	480c                	lw	a1,16(s0)
    318a:	8556                	mv	a0,s5
    318c:	3b69                	jal	2f26 <_free_r>
    318e:	bf9d                	j	3104 <__ssputs_r+0x5e>

00003190 <_svfiprintf_r>:
_svfprintf_r():
    3190:	00c5d783          	lhu	a5,12(a1)
    3194:	7171                	addi	sp,sp,-176
    3196:	d326                	sw	s1,164(sp)
    3198:	d14a                	sw	s2,160(sp)
    319a:	cf4e                	sw	s3,156(sp)
    319c:	d706                	sw	ra,172(sp)
    319e:	d522                	sw	s0,168(sp)
    31a0:	cd52                	sw	s4,152(sp)
    31a2:	cb56                	sw	s5,148(sp)
    31a4:	c95a                	sw	s6,144(sp)
    31a6:	c75e                	sw	s7,140(sp)
    31a8:	c562                	sw	s8,136(sp)
    31aa:	c366                	sw	s9,132(sp)
    31ac:	0807f793          	andi	a5,a5,128
    31b0:	89aa                	mv	s3,a0
    31b2:	892e                	mv	s2,a1
    31b4:	84b2                	mv	s1,a2
    31b6:	c3b1                	beqz	a5,31fa <_svfiprintf_r+0x6a>
    31b8:	499c                	lw	a5,16(a1)
    31ba:	e3a1                	bnez	a5,31fa <_svfiprintf_r+0x6a>
    31bc:	04000593          	li	a1,64
    31c0:	c636                	sw	a3,12(sp)
    31c2:	3531                	jal	2fce <_malloc_r>
    31c4:	00a92023          	sw	a0,0(s2)
    31c8:	00a92823          	sw	a0,16(s2)
    31cc:	46b2                	lw	a3,12(sp)
    31ce:	e115                	bnez	a0,31f2 <_svfiprintf_r+0x62>
    31d0:	47b1                	li	a5,12
    31d2:	00f9a023          	sw	a5,0(s3)
    31d6:	557d                	li	a0,-1
    31d8:	50ba                	lw	ra,172(sp)
    31da:	542a                	lw	s0,168(sp)
    31dc:	549a                	lw	s1,164(sp)
    31de:	590a                	lw	s2,160(sp)
    31e0:	49fa                	lw	s3,156(sp)
    31e2:	4a6a                	lw	s4,152(sp)
    31e4:	4ada                	lw	s5,148(sp)
    31e6:	4b4a                	lw	s6,144(sp)
    31e8:	4bba                	lw	s7,140(sp)
    31ea:	4c2a                	lw	s8,136(sp)
    31ec:	4c9a                	lw	s9,132(sp)
    31ee:	614d                	addi	sp,sp,176
    31f0:	8082                	ret
    31f2:	04000793          	li	a5,64
    31f6:	00f92a23          	sw	a5,20(s2)
    31fa:	02000793          	li	a5,32
    31fe:	02f10ca3          	sb	a5,57(sp)
    3202:	03000793          	li	a5,48
    3206:	da02                	sw	zero,52(sp)
    3208:	02f10d23          	sb	a5,58(sp)
    320c:	ce36                	sw	a3,28(sp)
    320e:	02500b93          	li	s7,37
    3212:	00002a97          	auipc	s5,0x2
    3216:	922a8a93          	addi	s5,s5,-1758 # 4b34 <__sf_fake_stdout+0x20>
    321a:	4c05                	li	s8,1
    321c:	4b29                	li	s6,10
    321e:	8426                	mv	s0,s1
    3220:	00044783          	lbu	a5,0(s0)
    3224:	c399                	beqz	a5,322a <_svfiprintf_r+0x9a>
    3226:	09779b63          	bne	a5,s7,32bc <_svfiprintf_r+0x12c>
    322a:	40940cb3          	sub	s9,s0,s1
    322e:	000c8d63          	beqz	s9,3248 <_svfiprintf_r+0xb8>
    3232:	86e6                	mv	a3,s9
    3234:	8626                	mv	a2,s1
    3236:	85ca                	mv	a1,s2
    3238:	854e                	mv	a0,s3
    323a:	35b5                	jal	30a6 <__ssputs_r>
    323c:	57fd                	li	a5,-1
    323e:	1af50163          	beq	a0,a5,33e0 <_svfiprintf_r+0x250>
    3242:	56d2                	lw	a3,52(sp)
    3244:	96e6                	add	a3,a3,s9
    3246:	da36                	sw	a3,52(sp)
    3248:	00044783          	lbu	a5,0(s0)
    324c:	18078a63          	beqz	a5,33e0 <_svfiprintf_r+0x250>
    3250:	57fd                	li	a5,-1
    3252:	00140493          	addi	s1,s0,1
    3256:	d002                	sw	zero,32(sp)
    3258:	d602                	sw	zero,44(sp)
    325a:	d23e                	sw	a5,36(sp)
    325c:	d402                	sw	zero,40(sp)
    325e:	060101a3          	sb	zero,99(sp)
    3262:	dc82                	sw	zero,120(sp)
    3264:	0004c583          	lbu	a1,0(s1)
    3268:	4615                	li	a2,5
    326a:	8556                	mv	a0,s5
    326c:	2f15                	jal	39a0 <memchr>
    326e:	00148413          	addi	s0,s1,1
    3272:	5782                	lw	a5,32(sp)
    3274:	e531                	bnez	a0,32c0 <_svfiprintf_r+0x130>
    3276:	0107f713          	andi	a4,a5,16
    327a:	c709                	beqz	a4,3284 <_svfiprintf_r+0xf4>
    327c:	02000713          	li	a4,32
    3280:	06e101a3          	sb	a4,99(sp)
    3284:	0087f713          	andi	a4,a5,8
    3288:	c709                	beqz	a4,3292 <_svfiprintf_r+0x102>
    328a:	02b00713          	li	a4,43
    328e:	06e101a3          	sb	a4,99(sp)
    3292:	0004c683          	lbu	a3,0(s1)
    3296:	02a00713          	li	a4,42
    329a:	02e68b63          	beq	a3,a4,32d0 <_svfiprintf_r+0x140>
    329e:	57b2                	lw	a5,44(sp)
    32a0:	8426                	mv	s0,s1
    32a2:	4681                	li	a3,0
    32a4:	4625                	li	a2,9
    32a6:	00044703          	lbu	a4,0(s0)
    32aa:	00140593          	addi	a1,s0,1
    32ae:	fd070713          	addi	a4,a4,-48 # ffffdfd0 <_dmadata_end+0xdffcadd0>
    32b2:	06e67463          	bgeu	a2,a4,331a <_svfiprintf_r+0x18a>
    32b6:	c68d                	beqz	a3,32e0 <_svfiprintf_r+0x150>
    32b8:	d63e                	sw	a5,44(sp)
    32ba:	a01d                	j	32e0 <_svfiprintf_r+0x150>
    32bc:	0405                	addi	s0,s0,1
    32be:	b78d                	j	3220 <_svfiprintf_r+0x90>
    32c0:	41550533          	sub	a0,a0,s5
    32c4:	00ac1533          	sll	a0,s8,a0
    32c8:	8fc9                	or	a5,a5,a0
    32ca:	d03e                	sw	a5,32(sp)
    32cc:	84a2                	mv	s1,s0
    32ce:	bf59                	j	3264 <_svfiprintf_r+0xd4>
    32d0:	4772                	lw	a4,28(sp)
    32d2:	00470693          	addi	a3,a4,4
    32d6:	4318                	lw	a4,0(a4)
    32d8:	ce36                	sw	a3,28(sp)
    32da:	02074963          	bltz	a4,330c <_svfiprintf_r+0x17c>
    32de:	d63a                	sw	a4,44(sp)
    32e0:	00044703          	lbu	a4,0(s0)
    32e4:	02e00793          	li	a5,46
    32e8:	04f71f63          	bne	a4,a5,3346 <_svfiprintf_r+0x1b6>
    32ec:	00144703          	lbu	a4,1(s0)
    32f0:	02a00793          	li	a5,42
    32f4:	02f71b63          	bne	a4,a5,332a <_svfiprintf_r+0x19a>
    32f8:	47f2                	lw	a5,28(sp)
    32fa:	0409                	addi	s0,s0,2
    32fc:	00478713          	addi	a4,a5,4
    3300:	439c                	lw	a5,0(a5)
    3302:	ce3a                	sw	a4,28(sp)
    3304:	0207c163          	bltz	a5,3326 <_svfiprintf_r+0x196>
    3308:	d23e                	sw	a5,36(sp)
    330a:	a835                	j	3346 <_svfiprintf_r+0x1b6>
    330c:	40e00733          	neg	a4,a4
    3310:	0027e793          	ori	a5,a5,2
    3314:	d63a                	sw	a4,44(sp)
    3316:	d03e                	sw	a5,32(sp)
    3318:	b7e1                	j	32e0 <_svfiprintf_r+0x150>
    331a:	036787b3          	mul	a5,a5,s6
    331e:	4685                	li	a3,1
    3320:	842e                	mv	s0,a1
    3322:	97ba                	add	a5,a5,a4
    3324:	b749                	j	32a6 <_svfiprintf_r+0x116>
    3326:	57fd                	li	a5,-1
    3328:	b7c5                	j	3308 <_svfiprintf_r+0x178>
    332a:	0405                	addi	s0,s0,1
    332c:	d202                	sw	zero,36(sp)
    332e:	4681                	li	a3,0
    3330:	4781                	li	a5,0
    3332:	4625                	li	a2,9
    3334:	00044703          	lbu	a4,0(s0)
    3338:	00140593          	addi	a1,s0,1
    333c:	fd070713          	addi	a4,a4,-48
    3340:	06e67663          	bgeu	a2,a4,33ac <_svfiprintf_r+0x21c>
    3344:	f2f1                	bnez	a3,3308 <_svfiprintf_r+0x178>
    3346:	00044583          	lbu	a1,0(s0)
    334a:	460d                	li	a2,3
    334c:	00001517          	auipc	a0,0x1
    3350:	7f050513          	addi	a0,a0,2032 # 4b3c <__sf_fake_stdout+0x28>
    3354:	25b1                	jal	39a0 <memchr>
    3356:	cd11                	beqz	a0,3372 <_svfiprintf_r+0x1e2>
    3358:	00001797          	auipc	a5,0x1
    335c:	7e478793          	addi	a5,a5,2020 # 4b3c <__sf_fake_stdout+0x28>
    3360:	8d1d                	sub	a0,a0,a5
    3362:	04000793          	li	a5,64
    3366:	00a797b3          	sll	a5,a5,a0
    336a:	5502                	lw	a0,32(sp)
    336c:	0405                	addi	s0,s0,1
    336e:	8d5d                	or	a0,a0,a5
    3370:	d02a                	sw	a0,32(sp)
    3372:	00044583          	lbu	a1,0(s0)
    3376:	4619                	li	a2,6
    3378:	00001517          	auipc	a0,0x1
    337c:	7c850513          	addi	a0,a0,1992 # 4b40 <__sf_fake_stdout+0x2c>
    3380:	00140493          	addi	s1,s0,1
    3384:	02b10c23          	sb	a1,56(sp)
    3388:	2d21                	jal	39a0 <memchr>
    338a:	c525                	beqz	a0,33f2 <_svfiprintf_r+0x262>
    338c:	ffffd797          	auipc	a5,0xffffd
    3390:	c7478793          	addi	a5,a5,-908 # 0 <_sinit>
    3394:	e795                	bnez	a5,33c0 <_svfiprintf_r+0x230>
    3396:	5702                	lw	a4,32(sp)
    3398:	47f2                	lw	a5,28(sp)
    339a:	10077713          	andi	a4,a4,256
    339e:	cf09                	beqz	a4,33b8 <_svfiprintf_r+0x228>
    33a0:	0791                	addi	a5,a5,4
    33a2:	ce3e                	sw	a5,28(sp)
    33a4:	57d2                	lw	a5,52(sp)
    33a6:	97d2                	add	a5,a5,s4
    33a8:	da3e                	sw	a5,52(sp)
    33aa:	bd95                	j	321e <_svfiprintf_r+0x8e>
    33ac:	036787b3          	mul	a5,a5,s6
    33b0:	4685                	li	a3,1
    33b2:	842e                	mv	s0,a1
    33b4:	97ba                	add	a5,a5,a4
    33b6:	bfbd                	j	3334 <_svfiprintf_r+0x1a4>
    33b8:	079d                	addi	a5,a5,7
    33ba:	9be1                	andi	a5,a5,-8
    33bc:	07a1                	addi	a5,a5,8
    33be:	b7d5                	j	33a2 <_svfiprintf_r+0x212>
    33c0:	0878                	addi	a4,sp,28
    33c2:	00000697          	auipc	a3,0x0
    33c6:	ce468693          	addi	a3,a3,-796 # 30a6 <__ssputs_r>
    33ca:	864a                	mv	a2,s2
    33cc:	100c                	addi	a1,sp,32
    33ce:	854e                	mv	a0,s3
    33d0:	00000097          	auipc	ra,0x0
    33d4:	000000e7          	jalr	zero # 0 <_sinit>
    33d8:	57fd                	li	a5,-1
    33da:	8a2a                	mv	s4,a0
    33dc:	fcf514e3          	bne	a0,a5,33a4 <_svfiprintf_r+0x214>
    33e0:	00c95783          	lhu	a5,12(s2)
    33e4:	557d                	li	a0,-1
    33e6:	0407f793          	andi	a5,a5,64
    33ea:	de0797e3          	bnez	a5,31d8 <_svfiprintf_r+0x48>
    33ee:	5552                	lw	a0,52(sp)
    33f0:	b3e5                	j	31d8 <_svfiprintf_r+0x48>
    33f2:	0878                	addi	a4,sp,28
    33f4:	00000697          	auipc	a3,0x0
    33f8:	cb268693          	addi	a3,a3,-846 # 30a6 <__ssputs_r>
    33fc:	864a                	mv	a2,s2
    33fe:	100c                	addi	a1,sp,32
    3400:	854e                	mv	a0,s3
    3402:	2a01                	jal	3512 <_printf_i>
    3404:	bfd1                	j	33d8 <_svfiprintf_r+0x248>

00003406 <_printf_common>:
_printf_common():
    3406:	7179                	addi	sp,sp,-48
    3408:	ca56                	sw	s5,20(sp)
    340a:	499c                	lw	a5,16(a1)
    340c:	8aba                	mv	s5,a4
    340e:	4598                	lw	a4,8(a1)
    3410:	d422                	sw	s0,40(sp)
    3412:	d226                	sw	s1,36(sp)
    3414:	ce4e                	sw	s3,28(sp)
    3416:	cc52                	sw	s4,24(sp)
    3418:	d606                	sw	ra,44(sp)
    341a:	d04a                	sw	s2,32(sp)
    341c:	c85a                	sw	s6,16(sp)
    341e:	c65e                	sw	s7,12(sp)
    3420:	89aa                	mv	s3,a0
    3422:	842e                	mv	s0,a1
    3424:	84b2                	mv	s1,a2
    3426:	8a36                	mv	s4,a3
    3428:	00e7d363          	bge	a5,a4,342e <_printf_common+0x28>
    342c:	87ba                	mv	a5,a4
    342e:	c09c                	sw	a5,0(s1)
    3430:	04344703          	lbu	a4,67(s0)
    3434:	c319                	beqz	a4,343a <_printf_common+0x34>
    3436:	0785                	addi	a5,a5,1
    3438:	c09c                	sw	a5,0(s1)
    343a:	401c                	lw	a5,0(s0)
    343c:	0207f793          	andi	a5,a5,32
    3440:	c781                	beqz	a5,3448 <_printf_common+0x42>
    3442:	409c                	lw	a5,0(s1)
    3444:	0789                	addi	a5,a5,2
    3446:	c09c                	sw	a5,0(s1)
    3448:	00042903          	lw	s2,0(s0)
    344c:	00697913          	andi	s2,s2,6
    3450:	00091a63          	bnez	s2,3464 <_printf_common+0x5e>
    3454:	01940b13          	addi	s6,s0,25
    3458:	5bfd                	li	s7,-1
    345a:	445c                	lw	a5,12(s0)
    345c:	4098                	lw	a4,0(s1)
    345e:	8f99                	sub	a5,a5,a4
    3460:	04f94c63          	blt	s2,a5,34b8 <_printf_common+0xb2>
    3464:	401c                	lw	a5,0(s0)
    3466:	04344683          	lbu	a3,67(s0)
    346a:	0207f793          	andi	a5,a5,32
    346e:	00d036b3          	snez	a3,a3
    3472:	eba5                	bnez	a5,34e2 <_printf_common+0xdc>
    3474:	04340613          	addi	a2,s0,67
    3478:	85d2                	mv	a1,s4
    347a:	854e                	mv	a0,s3
    347c:	9a82                	jalr	s5
    347e:	57fd                	li	a5,-1
    3480:	04f50363          	beq	a0,a5,34c6 <_printf_common+0xc0>
    3484:	401c                	lw	a5,0(s0)
    3486:	4611                	li	a2,4
    3488:	4098                	lw	a4,0(s1)
    348a:	8b99                	andi	a5,a5,6
    348c:	4454                	lw	a3,12(s0)
    348e:	4481                	li	s1,0
    3490:	00c79763          	bne	a5,a2,349e <_printf_common+0x98>
    3494:	40e684b3          	sub	s1,a3,a4
    3498:	0004d363          	bgez	s1,349e <_printf_common+0x98>
    349c:	4481                	li	s1,0
    349e:	441c                	lw	a5,8(s0)
    34a0:	4818                	lw	a4,16(s0)
    34a2:	00f75463          	bge	a4,a5,34aa <_printf_common+0xa4>
    34a6:	8f99                	sub	a5,a5,a4
    34a8:	94be                	add	s1,s1,a5
    34aa:	4901                	li	s2,0
    34ac:	0469                	addi	s0,s0,26
    34ae:	5b7d                	li	s6,-1
    34b0:	05249863          	bne	s1,s2,3500 <_printf_common+0xfa>
    34b4:	4501                	li	a0,0
    34b6:	a809                	j	34c8 <_printf_common+0xc2>
    34b8:	4685                	li	a3,1
    34ba:	865a                	mv	a2,s6
    34bc:	85d2                	mv	a1,s4
    34be:	854e                	mv	a0,s3
    34c0:	9a82                	jalr	s5
    34c2:	01751e63          	bne	a0,s7,34de <_printf_common+0xd8>
    34c6:	557d                	li	a0,-1
    34c8:	50b2                	lw	ra,44(sp)
    34ca:	5422                	lw	s0,40(sp)
    34cc:	5492                	lw	s1,36(sp)
    34ce:	5902                	lw	s2,32(sp)
    34d0:	49f2                	lw	s3,28(sp)
    34d2:	4a62                	lw	s4,24(sp)
    34d4:	4ad2                	lw	s5,20(sp)
    34d6:	4b42                	lw	s6,16(sp)
    34d8:	4bb2                	lw	s7,12(sp)
    34da:	6145                	addi	sp,sp,48
    34dc:	8082                	ret
    34de:	0905                	addi	s2,s2,1
    34e0:	bfad                	j	345a <_printf_common+0x54>
    34e2:	00d40733          	add	a4,s0,a3
    34e6:	03000613          	li	a2,48
    34ea:	04c701a3          	sb	a2,67(a4)
    34ee:	04544703          	lbu	a4,69(s0)
    34f2:	00168793          	addi	a5,a3,1
    34f6:	97a2                	add	a5,a5,s0
    34f8:	0689                	addi	a3,a3,2
    34fa:	04e781a3          	sb	a4,67(a5)
    34fe:	bf9d                	j	3474 <_printf_common+0x6e>
    3500:	4685                	li	a3,1
    3502:	8622                	mv	a2,s0
    3504:	85d2                	mv	a1,s4
    3506:	854e                	mv	a0,s3
    3508:	9a82                	jalr	s5
    350a:	fb650ee3          	beq	a0,s6,34c6 <_printf_common+0xc0>
    350e:	0905                	addi	s2,s2,1
    3510:	b745                	j	34b0 <_printf_common+0xaa>

00003512 <_printf_i>:
_printf_i():
    3512:	7179                	addi	sp,sp,-48
    3514:	d422                	sw	s0,40(sp)
    3516:	d226                	sw	s1,36(sp)
    3518:	d04a                	sw	s2,32(sp)
    351a:	ce4e                	sw	s3,28(sp)
    351c:	d606                	sw	ra,44(sp)
    351e:	cc52                	sw	s4,24(sp)
    3520:	ca56                	sw	s5,20(sp)
    3522:	c85a                	sw	s6,16(sp)
    3524:	89b6                	mv	s3,a3
    3526:	0185c683          	lbu	a3,24(a1)
    352a:	06900793          	li	a5,105
    352e:	8932                	mv	s2,a2
    3530:	84aa                	mv	s1,a0
    3532:	842e                	mv	s0,a1
    3534:	04358613          	addi	a2,a1,67
    3538:	02f68d63          	beq	a3,a5,3572 <_printf_i+0x60>
    353c:	06d7e263          	bltu	a5,a3,35a0 <_printf_i+0x8e>
    3540:	05800793          	li	a5,88
    3544:	18f68763          	beq	a3,a5,36d2 <_printf_i+0x1c0>
    3548:	00d7ed63          	bltu	a5,a3,3562 <_printf_i+0x50>
    354c:	22068063          	beqz	a3,376c <_printf_i+0x25a>
    3550:	04300793          	li	a5,67
    3554:	0af68e63          	beq	a3,a5,3610 <_printf_i+0xfe>
    3558:	04240a93          	addi	s5,s0,66
    355c:	04d40123          	sb	a3,66(s0)
    3560:	a0c9                	j	3622 <_printf_i+0x110>
    3562:	06300793          	li	a5,99
    3566:	0af68563          	beq	a3,a5,3610 <_printf_i+0xfe>
    356a:	06400793          	li	a5,100
    356e:	fef695e3          	bne	a3,a5,3558 <_printf_i+0x46>
    3572:	401c                	lw	a5,0(s0)
    3574:	4308                	lw	a0,0(a4)
    3576:	0807f693          	andi	a3,a5,128
    357a:	00450593          	addi	a1,a0,4
    357e:	c6c5                	beqz	a3,3626 <_printf_i+0x114>
    3580:	411c                	lw	a5,0(a0)
    3582:	c30c                	sw	a1,0(a4)
    3584:	0007d863          	bgez	a5,3594 <_printf_i+0x82>
    3588:	02d00713          	li	a4,45
    358c:	40f007b3          	neg	a5,a5
    3590:	04e401a3          	sb	a4,67(s0)
    3594:	00001697          	auipc	a3,0x1
    3598:	5b468693          	addi	a3,a3,1460 # 4b48 <__sf_fake_stdout+0x34>
    359c:	4729                	li	a4,10
    359e:	a86d                	j	3658 <_printf_i+0x146>
    35a0:	07000793          	li	a5,112
    35a4:	16f68363          	beq	a3,a5,370a <_printf_i+0x1f8>
    35a8:	02d7e563          	bltu	a5,a3,35d2 <_printf_i+0xc0>
    35ac:	06e00793          	li	a5,110
    35b0:	18f68a63          	beq	a3,a5,3744 <_printf_i+0x232>
    35b4:	06f00793          	li	a5,111
    35b8:	faf690e3          	bne	a3,a5,3558 <_printf_i+0x46>
    35bc:	400c                	lw	a1,0(s0)
    35be:	431c                	lw	a5,0(a4)
    35c0:	0805f813          	andi	a6,a1,128
    35c4:	00478513          	addi	a0,a5,4
    35c8:	06080763          	beqz	a6,3636 <_printf_i+0x124>
    35cc:	c308                	sw	a0,0(a4)
    35ce:	439c                	lw	a5,0(a5)
    35d0:	a88d                	j	3642 <_printf_i+0x130>
    35d2:	07500793          	li	a5,117
    35d6:	fef683e3          	beq	a3,a5,35bc <_printf_i+0xaa>
    35da:	07800793          	li	a5,120
    35de:	12f68a63          	beq	a3,a5,3712 <_printf_i+0x200>
    35e2:	07300793          	li	a5,115
    35e6:	f6f699e3          	bne	a3,a5,3558 <_printf_i+0x46>
    35ea:	431c                	lw	a5,0(a4)
    35ec:	41d0                	lw	a2,4(a1)
    35ee:	4581                	li	a1,0
    35f0:	00478693          	addi	a3,a5,4
    35f4:	c314                	sw	a3,0(a4)
    35f6:	0007aa83          	lw	s5,0(a5)
    35fa:	8556                	mv	a0,s5
    35fc:	2655                	jal	39a0 <memchr>
    35fe:	c501                	beqz	a0,3606 <_printf_i+0xf4>
    3600:	41550533          	sub	a0,a0,s5
    3604:	c048                	sw	a0,4(s0)
    3606:	405c                	lw	a5,4(s0)
    3608:	c81c                	sw	a5,16(s0)
    360a:	040401a3          	sb	zero,67(s0)
    360e:	a871                	j	36aa <_printf_i+0x198>
    3610:	431c                	lw	a5,0(a4)
    3612:	04240a93          	addi	s5,s0,66
    3616:	00478693          	addi	a3,a5,4
    361a:	439c                	lw	a5,0(a5)
    361c:	c314                	sw	a3,0(a4)
    361e:	04f40123          	sb	a5,66(s0)
    3622:	4785                	li	a5,1
    3624:	b7d5                	j	3608 <_printf_i+0xf6>
    3626:	0407f693          	andi	a3,a5,64
    362a:	411c                	lw	a5,0(a0)
    362c:	c30c                	sw	a1,0(a4)
    362e:	dab9                	beqz	a3,3584 <_printf_i+0x72>
    3630:	07c2                	slli	a5,a5,0x10
    3632:	87c1                	srai	a5,a5,0x10
    3634:	bf81                	j	3584 <_printf_i+0x72>
    3636:	0405f593          	andi	a1,a1,64
    363a:	c308                	sw	a0,0(a4)
    363c:	d9c9                	beqz	a1,35ce <_printf_i+0xbc>
    363e:	0007d783          	lhu	a5,0(a5)
    3642:	06f00713          	li	a4,111
    3646:	0ee68763          	beq	a3,a4,3734 <_printf_i+0x222>
    364a:	00001697          	auipc	a3,0x1
    364e:	4fe68693          	addi	a3,a3,1278 # 4b48 <__sf_fake_stdout+0x34>
    3652:	4729                	li	a4,10
    3654:	040401a3          	sb	zero,67(s0)
    3658:	404c                	lw	a1,4(s0)
    365a:	c40c                	sw	a1,8(s0)
    365c:	0005c563          	bltz	a1,3666 <_printf_i+0x154>
    3660:	4008                	lw	a0,0(s0)
    3662:	996d                	andi	a0,a0,-5
    3664:	c008                	sw	a0,0(s0)
    3666:	e399                	bnez	a5,366c <_printf_i+0x15a>
    3668:	8ab2                	mv	s5,a2
    366a:	cd91                	beqz	a1,3686 <_printf_i+0x174>
    366c:	8ab2                	mv	s5,a2
    366e:	02e7f5b3          	remu	a1,a5,a4
    3672:	1afd                	addi	s5,s5,-1
    3674:	95b6                	add	a1,a1,a3
    3676:	0005c583          	lbu	a1,0(a1)
    367a:	00ba8023          	sb	a1,0(s5)
    367e:	02e7d5b3          	divu	a1,a5,a4
    3682:	0ae7ff63          	bgeu	a5,a4,3740 <_printf_i+0x22e>
    3686:	47a1                	li	a5,8
    3688:	00f71e63          	bne	a4,a5,36a4 <_printf_i+0x192>
    368c:	401c                	lw	a5,0(s0)
    368e:	8b85                	andi	a5,a5,1
    3690:	cb91                	beqz	a5,36a4 <_printf_i+0x192>
    3692:	4058                	lw	a4,4(s0)
    3694:	481c                	lw	a5,16(s0)
    3696:	00e7c763          	blt	a5,a4,36a4 <_printf_i+0x192>
    369a:	03000793          	li	a5,48
    369e:	fefa8fa3          	sb	a5,-1(s5)
    36a2:	1afd                	addi	s5,s5,-1
    36a4:	41560633          	sub	a2,a2,s5
    36a8:	c810                	sw	a2,16(s0)
    36aa:	874e                	mv	a4,s3
    36ac:	86ca                	mv	a3,s2
    36ae:	0070                	addi	a2,sp,12
    36b0:	85a2                	mv	a1,s0
    36b2:	8526                	mv	a0,s1
    36b4:	3b89                	jal	3406 <_printf_common>
    36b6:	5a7d                	li	s4,-1
    36b8:	0b451e63          	bne	a0,s4,3774 <_printf_i+0x262>
    36bc:	557d                	li	a0,-1
    36be:	50b2                	lw	ra,44(sp)
    36c0:	5422                	lw	s0,40(sp)
    36c2:	5492                	lw	s1,36(sp)
    36c4:	5902                	lw	s2,32(sp)
    36c6:	49f2                	lw	s3,28(sp)
    36c8:	4a62                	lw	s4,24(sp)
    36ca:	4ad2                	lw	s5,20(sp)
    36cc:	4b42                	lw	s6,16(sp)
    36ce:	6145                	addi	sp,sp,48
    36d0:	8082                	ret
    36d2:	04d582a3          	sb	a3,69(a1)
    36d6:	00001697          	auipc	a3,0x1
    36da:	47268693          	addi	a3,a3,1138 # 4b48 <__sf_fake_stdout+0x34>
    36de:	400c                	lw	a1,0(s0)
    36e0:	4308                	lw	a0,0(a4)
    36e2:	0805f813          	andi	a6,a1,128
    36e6:	411c                	lw	a5,0(a0)
    36e8:	0511                	addi	a0,a0,4
    36ea:	02080d63          	beqz	a6,3724 <_printf_i+0x212>
    36ee:	c308                	sw	a0,0(a4)
    36f0:	0015f713          	andi	a4,a1,1
    36f4:	c701                	beqz	a4,36fc <_printf_i+0x1ea>
    36f6:	0205e593          	ori	a1,a1,32
    36fa:	c00c                	sw	a1,0(s0)
    36fc:	4741                	li	a4,16
    36fe:	fbb9                	bnez	a5,3654 <_printf_i+0x142>
    3700:	400c                	lw	a1,0(s0)
    3702:	fdf5f593          	andi	a1,a1,-33
    3706:	c00c                	sw	a1,0(s0)
    3708:	b7b1                	j	3654 <_printf_i+0x142>
    370a:	419c                	lw	a5,0(a1)
    370c:	0207e793          	ori	a5,a5,32
    3710:	c19c                	sw	a5,0(a1)
    3712:	07800793          	li	a5,120
    3716:	04f402a3          	sb	a5,69(s0)
    371a:	00001697          	auipc	a3,0x1
    371e:	44268693          	addi	a3,a3,1090 # 4b5c <__sf_fake_stdout+0x48>
    3722:	bf75                	j	36de <_printf_i+0x1cc>
    3724:	0405f813          	andi	a6,a1,64
    3728:	c308                	sw	a0,0(a4)
    372a:	fc0803e3          	beqz	a6,36f0 <_printf_i+0x1de>
    372e:	07c2                	slli	a5,a5,0x10
    3730:	83c1                	srli	a5,a5,0x10
    3732:	bf7d                	j	36f0 <_printf_i+0x1de>
    3734:	00001697          	auipc	a3,0x1
    3738:	41468693          	addi	a3,a3,1044 # 4b48 <__sf_fake_stdout+0x34>
    373c:	4721                	li	a4,8
    373e:	bf19                	j	3654 <_printf_i+0x142>
    3740:	87ae                	mv	a5,a1
    3742:	b735                	j	366e <_printf_i+0x15c>
    3744:	4194                	lw	a3,0(a1)
    3746:	431c                	lw	a5,0(a4)
    3748:	49cc                	lw	a1,20(a1)
    374a:	0806f813          	andi	a6,a3,128
    374e:	00478513          	addi	a0,a5,4
    3752:	00080663          	beqz	a6,375e <_printf_i+0x24c>
    3756:	c308                	sw	a0,0(a4)
    3758:	439c                	lw	a5,0(a5)
    375a:	c38c                	sw	a1,0(a5)
    375c:	a801                	j	376c <_printf_i+0x25a>
    375e:	c308                	sw	a0,0(a4)
    3760:	0406f693          	andi	a3,a3,64
    3764:	439c                	lw	a5,0(a5)
    3766:	daf5                	beqz	a3,375a <_printf_i+0x248>
    3768:	00b79023          	sh	a1,0(a5)
    376c:	00042823          	sw	zero,16(s0)
    3770:	8ab2                	mv	s5,a2
    3772:	bf25                	j	36aa <_printf_i+0x198>
    3774:	4814                	lw	a3,16(s0)
    3776:	8656                	mv	a2,s5
    3778:	85ca                	mv	a1,s2
    377a:	8526                	mv	a0,s1
    377c:	9982                	jalr	s3
    377e:	f3450fe3          	beq	a0,s4,36bc <_printf_i+0x1aa>
    3782:	401c                	lw	a5,0(s0)
    3784:	8b89                	andi	a5,a5,2
    3786:	e78d                	bnez	a5,37b0 <_printf_i+0x29e>
    3788:	47b2                	lw	a5,12(sp)
    378a:	4448                	lw	a0,12(s0)
    378c:	f2f559e3          	bge	a0,a5,36be <_printf_i+0x1ac>
    3790:	853e                	mv	a0,a5
    3792:	b735                	j	36be <_printf_i+0x1ac>
    3794:	4685                	li	a3,1
    3796:	8656                	mv	a2,s5
    3798:	85ca                	mv	a1,s2
    379a:	8526                	mv	a0,s1
    379c:	9982                	jalr	s3
    379e:	f1650fe3          	beq	a0,s6,36bc <_printf_i+0x1aa>
    37a2:	0a05                	addi	s4,s4,1
    37a4:	445c                	lw	a5,12(s0)
    37a6:	4732                	lw	a4,12(sp)
    37a8:	8f99                	sub	a5,a5,a4
    37aa:	fefa45e3          	blt	s4,a5,3794 <_printf_i+0x282>
    37ae:	bfe9                	j	3788 <_printf_i+0x276>
    37b0:	4a01                	li	s4,0
    37b2:	01940a93          	addi	s5,s0,25
    37b6:	5b7d                	li	s6,-1
    37b8:	b7f5                	j	37a4 <_printf_i+0x292>

000037ba <_sbrk_r>:
_sbrk_r():
    37ba:	1141                	addi	sp,sp,-16
    37bc:	c422                	sw	s0,8(sp)
    37be:	842a                	mv	s0,a0
    37c0:	852e                	mv	a0,a1
    37c2:	1ffff797          	auipc	a5,0x1ffff
    37c6:	a407a723          	sw	zero,-1458(a5) # 20002210 <errno>
    37ca:	c606                	sw	ra,12(sp)
    37cc:	2635                	jal	3af8 <_sbrk>
    37ce:	57fd                	li	a5,-1
    37d0:	00f51963          	bne	a0,a5,37e2 <_sbrk_r+0x28>
    37d4:	1ffff797          	auipc	a5,0x1ffff
    37d8:	a3c78793          	addi	a5,a5,-1476 # 20002210 <errno>
    37dc:	439c                	lw	a5,0(a5)
    37de:	c391                	beqz	a5,37e2 <_sbrk_r+0x28>
    37e0:	c01c                	sw	a5,0(s0)
    37e2:	40b2                	lw	ra,12(sp)
    37e4:	4422                	lw	s0,8(sp)
    37e6:	0141                	addi	sp,sp,16
    37e8:	8082                	ret

000037ea <__sread>:
__sread():
    37ea:	1141                	addi	sp,sp,-16
    37ec:	c422                	sw	s0,8(sp)
    37ee:	842e                	mv	s0,a1
    37f0:	00e59583          	lh	a1,14(a1)
    37f4:	c606                	sw	ra,12(sp)
    37f6:	24ad                	jal	3a60 <_read_r>
    37f8:	00054963          	bltz	a0,380a <__sread+0x20>
    37fc:	487c                	lw	a5,84(s0)
    37fe:	97aa                	add	a5,a5,a0
    3800:	c87c                	sw	a5,84(s0)
    3802:	40b2                	lw	ra,12(sp)
    3804:	4422                	lw	s0,8(sp)
    3806:	0141                	addi	sp,sp,16
    3808:	8082                	ret
    380a:	00c45783          	lhu	a5,12(s0)
    380e:	777d                	lui	a4,0xfffff
    3810:	177d                	addi	a4,a4,-1
    3812:	8ff9                	and	a5,a5,a4
    3814:	00f41623          	sh	a5,12(s0)
    3818:	b7ed                	j	3802 <__sread+0x18>

0000381a <__swrite>:
__swrite():
    381a:	00c5d783          	lhu	a5,12(a1)
    381e:	1101                	addi	sp,sp,-32
    3820:	cc22                	sw	s0,24(sp)
    3822:	ca26                	sw	s1,20(sp)
    3824:	c84a                	sw	s2,16(sp)
    3826:	c64e                	sw	s3,12(sp)
    3828:	ce06                	sw	ra,28(sp)
    382a:	1007f793          	andi	a5,a5,256
    382e:	84aa                	mv	s1,a0
    3830:	842e                	mv	s0,a1
    3832:	8932                	mv	s2,a2
    3834:	89b6                	mv	s3,a3
    3836:	c791                	beqz	a5,3842 <__swrite+0x28>
    3838:	00e59583          	lh	a1,14(a1)
    383c:	4689                	li	a3,2
    383e:	4601                	li	a2,0
    3840:	2235                	jal	396c <_lseek_r>
    3842:	00c45783          	lhu	a5,12(s0)
    3846:	777d                	lui	a4,0xfffff
    3848:	177d                	addi	a4,a4,-1
    384a:	8ff9                	and	a5,a5,a4
    384c:	00f41623          	sh	a5,12(s0)
    3850:	00e41583          	lh	a1,14(s0)
    3854:	4462                	lw	s0,24(sp)
    3856:	40f2                	lw	ra,28(sp)
    3858:	86ce                	mv	a3,s3
    385a:	864a                	mv	a2,s2
    385c:	49b2                	lw	s3,12(sp)
    385e:	4942                	lw	s2,16(sp)
    3860:	8526                	mv	a0,s1
    3862:	44d2                	lw	s1,20(sp)
    3864:	6105                	addi	sp,sp,32
    3866:	a83d                	j	38a4 <_write_r>

00003868 <__sseek>:
__sseek():
    3868:	1141                	addi	sp,sp,-16
    386a:	c422                	sw	s0,8(sp)
    386c:	842e                	mv	s0,a1
    386e:	00e59583          	lh	a1,14(a1)
    3872:	c606                	sw	ra,12(sp)
    3874:	28e5                	jal	396c <_lseek_r>
    3876:	57fd                	li	a5,-1
    3878:	00c45703          	lhu	a4,12(s0)
    387c:	00f51b63          	bne	a0,a5,3892 <__sseek+0x2a>
    3880:	77fd                	lui	a5,0xfffff
    3882:	17fd                	addi	a5,a5,-1
    3884:	8ff9                	and	a5,a5,a4
    3886:	00f41623          	sh	a5,12(s0)
    388a:	40b2                	lw	ra,12(sp)
    388c:	4422                	lw	s0,8(sp)
    388e:	0141                	addi	sp,sp,16
    3890:	8082                	ret
    3892:	6785                	lui	a5,0x1
    3894:	8fd9                	or	a5,a5,a4
    3896:	00f41623          	sh	a5,12(s0)
    389a:	c868                	sw	a0,84(s0)
    389c:	b7fd                	j	388a <__sseek+0x22>

0000389e <__sclose>:
__sclose():
    389e:	00e59583          	lh	a1,14(a1)
    38a2:	a825                	j	38da <_close_r>

000038a4 <_write_r>:
_write_r():
    38a4:	1141                	addi	sp,sp,-16
    38a6:	c422                	sw	s0,8(sp)
    38a8:	842a                	mv	s0,a0
    38aa:	852e                	mv	a0,a1
    38ac:	85b2                	mv	a1,a2
    38ae:	8636                	mv	a2,a3
    38b0:	1ffff797          	auipc	a5,0x1ffff
    38b4:	9607a023          	sw	zero,-1696(a5) # 20002210 <errno>
    38b8:	c606                	sw	ra,12(sp)
    38ba:	b40fd0ef          	jal	ra,bfa <_write>
    38be:	57fd                	li	a5,-1
    38c0:	00f51963          	bne	a0,a5,38d2 <_write_r+0x2e>
    38c4:	1ffff797          	auipc	a5,0x1ffff
    38c8:	94c78793          	addi	a5,a5,-1716 # 20002210 <errno>
    38cc:	439c                	lw	a5,0(a5)
    38ce:	c391                	beqz	a5,38d2 <_write_r+0x2e>
    38d0:	c01c                	sw	a5,0(s0)
    38d2:	40b2                	lw	ra,12(sp)
    38d4:	4422                	lw	s0,8(sp)
    38d6:	0141                	addi	sp,sp,16
    38d8:	8082                	ret

000038da <_close_r>:
_close_r():
    38da:	1141                	addi	sp,sp,-16
    38dc:	c422                	sw	s0,8(sp)
    38de:	842a                	mv	s0,a0
    38e0:	852e                	mv	a0,a1
    38e2:	1ffff797          	auipc	a5,0x1ffff
    38e6:	9207a723          	sw	zero,-1746(a5) # 20002210 <errno>
    38ea:	c606                	sw	ra,12(sp)
    38ec:	2a75                	jal	3aa8 <_close>
    38ee:	57fd                	li	a5,-1
    38f0:	00f51963          	bne	a0,a5,3902 <_close_r+0x28>
    38f4:	1ffff797          	auipc	a5,0x1ffff
    38f8:	91c78793          	addi	a5,a5,-1764 # 20002210 <errno>
    38fc:	439c                	lw	a5,0(a5)
    38fe:	c391                	beqz	a5,3902 <_close_r+0x28>
    3900:	c01c                	sw	a5,0(s0)
    3902:	40b2                	lw	ra,12(sp)
    3904:	4422                	lw	s0,8(sp)
    3906:	0141                	addi	sp,sp,16
    3908:	8082                	ret

0000390a <_fstat_r>:
_fstat_r():
    390a:	1141                	addi	sp,sp,-16
    390c:	c422                	sw	s0,8(sp)
    390e:	842a                	mv	s0,a0
    3910:	852e                	mv	a0,a1
    3912:	85b2                	mv	a1,a2
    3914:	1ffff797          	auipc	a5,0x1ffff
    3918:	8e07ae23          	sw	zero,-1796(a5) # 20002210 <errno>
    391c:	c606                	sw	ra,12(sp)
    391e:	2a69                	jal	3ab8 <_fstat>
    3920:	57fd                	li	a5,-1
    3922:	00f51963          	bne	a0,a5,3934 <_fstat_r+0x2a>
    3926:	1ffff797          	auipc	a5,0x1ffff
    392a:	8ea78793          	addi	a5,a5,-1814 # 20002210 <errno>
    392e:	439c                	lw	a5,0(a5)
    3930:	c391                	beqz	a5,3934 <_fstat_r+0x2a>
    3932:	c01c                	sw	a5,0(s0)
    3934:	40b2                	lw	ra,12(sp)
    3936:	4422                	lw	s0,8(sp)
    3938:	0141                	addi	sp,sp,16
    393a:	8082                	ret

0000393c <_isatty_r>:
_isatty_r():
    393c:	1141                	addi	sp,sp,-16
    393e:	c422                	sw	s0,8(sp)
    3940:	842a                	mv	s0,a0
    3942:	852e                	mv	a0,a1
    3944:	1ffff797          	auipc	a5,0x1ffff
    3948:	8c07a623          	sw	zero,-1844(a5) # 20002210 <errno>
    394c:	c606                	sw	ra,12(sp)
    394e:	2aad                	jal	3ac8 <_isatty>
    3950:	57fd                	li	a5,-1
    3952:	00f51963          	bne	a0,a5,3964 <_isatty_r+0x28>
    3956:	1ffff797          	auipc	a5,0x1ffff
    395a:	8ba78793          	addi	a5,a5,-1862 # 20002210 <errno>
    395e:	439c                	lw	a5,0(a5)
    3960:	c391                	beqz	a5,3964 <_isatty_r+0x28>
    3962:	c01c                	sw	a5,0(s0)
    3964:	40b2                	lw	ra,12(sp)
    3966:	4422                	lw	s0,8(sp)
    3968:	0141                	addi	sp,sp,16
    396a:	8082                	ret

0000396c <_lseek_r>:
_lseek_r():
    396c:	1141                	addi	sp,sp,-16
    396e:	c422                	sw	s0,8(sp)
    3970:	842a                	mv	s0,a0
    3972:	852e                	mv	a0,a1
    3974:	85b2                	mv	a1,a2
    3976:	8636                	mv	a2,a3
    3978:	1ffff797          	auipc	a5,0x1ffff
    397c:	8807ac23          	sw	zero,-1896(a5) # 20002210 <errno>
    3980:	c606                	sw	ra,12(sp)
    3982:	2a99                	jal	3ad8 <_lseek>
    3984:	57fd                	li	a5,-1
    3986:	00f51963          	bne	a0,a5,3998 <_lseek_r+0x2c>
    398a:	1ffff797          	auipc	a5,0x1ffff
    398e:	88678793          	addi	a5,a5,-1914 # 20002210 <errno>
    3992:	439c                	lw	a5,0(a5)
    3994:	c391                	beqz	a5,3998 <_lseek_r+0x2c>
    3996:	c01c                	sw	a5,0(s0)
    3998:	40b2                	lw	ra,12(sp)
    399a:	4422                	lw	s0,8(sp)
    399c:	0141                	addi	sp,sp,16
    399e:	8082                	ret

000039a0 <memchr>:
memchr():
    39a0:	0ff5f593          	andi	a1,a1,255
    39a4:	962a                	add	a2,a2,a0
    39a6:	00c51463          	bne	a0,a2,39ae <memchr+0xe>
    39aa:	4501                	li	a0,0
    39ac:	8082                	ret
    39ae:	00054783          	lbu	a5,0(a0)
    39b2:	feb78de3          	beq	a5,a1,39ac <memchr+0xc>
    39b6:	0505                	addi	a0,a0,1
    39b8:	b7fd                	j	39a6 <memchr+0x6>

000039ba <memmove>:
memmove():
    39ba:	04a5f363          	bgeu	a1,a0,3a00 <memmove+0x46>
    39be:	00c586b3          	add	a3,a1,a2
    39c2:	02d57f63          	bgeu	a0,a3,3a00 <memmove+0x46>
    39c6:	fff64593          	not	a1,a2
    39ca:	4781                	li	a5,0
    39cc:	17fd                	addi	a5,a5,-1
    39ce:	00f59363          	bne	a1,a5,39d4 <memmove+0x1a>
    39d2:	8082                	ret
    39d4:	00f68733          	add	a4,a3,a5
    39d8:	00074803          	lbu	a6,0(a4) # fffff000 <_dmadata_end+0xdffcbe00>
    39dc:	00c78733          	add	a4,a5,a2
    39e0:	972a                	add	a4,a4,a0
    39e2:	01070023          	sb	a6,0(a4)
    39e6:	b7dd                	j	39cc <memmove+0x12>
    39e8:	00f58733          	add	a4,a1,a5
    39ec:	00074683          	lbu	a3,0(a4)
    39f0:	00f50733          	add	a4,a0,a5
    39f4:	0785                	addi	a5,a5,1
    39f6:	00d70023          	sb	a3,0(a4)
    39fa:	fef617e3          	bne	a2,a5,39e8 <memmove+0x2e>
    39fe:	8082                	ret
    3a00:	4781                	li	a5,0
    3a02:	bfe5                	j	39fa <memmove+0x40>

00003a04 <__malloc_lock>:
__malloc_lock():
    3a04:	8082                	ret

00003a06 <__malloc_unlock>:
__malloc_unlock():
    3a06:	8082                	ret

00003a08 <_realloc_r>:
_realloc_r():
    3a08:	e581                	bnez	a1,3a10 <_realloc_r+0x8>
    3a0a:	85b2                	mv	a1,a2
    3a0c:	dc2ff06f          	j	2fce <_malloc_r>
    3a10:	1101                	addi	sp,sp,-32
    3a12:	cc22                	sw	s0,24(sp)
    3a14:	ce06                	sw	ra,28(sp)
    3a16:	ca26                	sw	s1,20(sp)
    3a18:	c84a                	sw	s2,16(sp)
    3a1a:	c64e                	sw	s3,12(sp)
    3a1c:	8432                	mv	s0,a2
    3a1e:	ee01                	bnez	a2,3a36 <_realloc_r+0x2e>
    3a20:	d06ff0ef          	jal	ra,2f26 <_free_r>
    3a24:	4901                	li	s2,0
    3a26:	40f2                	lw	ra,28(sp)
    3a28:	4462                	lw	s0,24(sp)
    3a2a:	854a                	mv	a0,s2
    3a2c:	44d2                	lw	s1,20(sp)
    3a2e:	4942                	lw	s2,16(sp)
    3a30:	49b2                	lw	s3,12(sp)
    3a32:	6105                	addi	sp,sp,32
    3a34:	8082                	ret
    3a36:	84ae                	mv	s1,a1
    3a38:	89aa                	mv	s3,a0
    3a3a:	28a9                	jal	3a94 <_malloc_usable_size_r>
    3a3c:	8926                	mv	s2,s1
    3a3e:	fe8574e3          	bgeu	a0,s0,3a26 <_realloc_r+0x1e>
    3a42:	85a2                	mv	a1,s0
    3a44:	854e                	mv	a0,s3
    3a46:	d88ff0ef          	jal	ra,2fce <_malloc_r>
    3a4a:	892a                	mv	s2,a0
    3a4c:	dd69                	beqz	a0,3a26 <_realloc_r+0x1e>
    3a4e:	85a6                	mv	a1,s1
    3a50:	8622                	mv	a2,s0
    3a52:	d0bfe0ef          	jal	ra,275c <memcpy>
    3a56:	85a6                	mv	a1,s1
    3a58:	854e                	mv	a0,s3
    3a5a:	cccff0ef          	jal	ra,2f26 <_free_r>
    3a5e:	b7e1                	j	3a26 <_realloc_r+0x1e>

00003a60 <_read_r>:
_read_r():
    3a60:	1141                	addi	sp,sp,-16
    3a62:	c422                	sw	s0,8(sp)
    3a64:	842a                	mv	s0,a0
    3a66:	852e                	mv	a0,a1
    3a68:	85b2                	mv	a1,a2
    3a6a:	8636                	mv	a2,a3
    3a6c:	1fffe797          	auipc	a5,0x1fffe
    3a70:	7a07a223          	sw	zero,1956(a5) # 20002210 <errno>
    3a74:	c606                	sw	ra,12(sp)
    3a76:	288d                	jal	3ae8 <_read>
    3a78:	57fd                	li	a5,-1
    3a7a:	00f51963          	bne	a0,a5,3a8c <_read_r+0x2c>
    3a7e:	1fffe797          	auipc	a5,0x1fffe
    3a82:	79278793          	addi	a5,a5,1938 # 20002210 <errno>
    3a86:	439c                	lw	a5,0(a5)
    3a88:	c391                	beqz	a5,3a8c <_read_r+0x2c>
    3a8a:	c01c                	sw	a5,0(s0)
    3a8c:	40b2                	lw	ra,12(sp)
    3a8e:	4422                	lw	s0,8(sp)
    3a90:	0141                	addi	sp,sp,16
    3a92:	8082                	ret

00003a94 <_malloc_usable_size_r>:
_malloc_usable_size_r():
    3a94:	ffc5a783          	lw	a5,-4(a1)
    3a98:	ffc78513          	addi	a0,a5,-4
    3a9c:	0007d563          	bgez	a5,3aa6 <_malloc_usable_size_r+0x12>
    3aa0:	95aa                	add	a1,a1,a0
    3aa2:	419c                	lw	a5,0(a1)
    3aa4:	953e                	add	a0,a0,a5
    3aa6:	8082                	ret

00003aa8 <_close>:
_close():
    3aa8:	05800793          	li	a5,88
    3aac:	1fffe717          	auipc	a4,0x1fffe
    3ab0:	76f72223          	sw	a5,1892(a4) # 20002210 <errno>
    3ab4:	557d                	li	a0,-1
    3ab6:	8082                	ret

00003ab8 <_fstat>:
_fstat():
    3ab8:	05800793          	li	a5,88
    3abc:	1fffe717          	auipc	a4,0x1fffe
    3ac0:	74f72a23          	sw	a5,1876(a4) # 20002210 <errno>
    3ac4:	557d                	li	a0,-1
    3ac6:	8082                	ret

00003ac8 <_isatty>:
_isatty():
    3ac8:	05800793          	li	a5,88
    3acc:	1fffe717          	auipc	a4,0x1fffe
    3ad0:	74f72223          	sw	a5,1860(a4) # 20002210 <errno>
    3ad4:	4501                	li	a0,0
    3ad6:	8082                	ret

00003ad8 <_lseek>:
_lseek():
    3ad8:	05800793          	li	a5,88
    3adc:	1fffe717          	auipc	a4,0x1fffe
    3ae0:	72f72a23          	sw	a5,1844(a4) # 20002210 <errno>
    3ae4:	557d                	li	a0,-1
    3ae6:	8082                	ret

00003ae8 <_read>:
_read():
    3ae8:	05800793          	li	a5,88
    3aec:	1fffe717          	auipc	a4,0x1fffe
    3af0:	72f72223          	sw	a5,1828(a4) # 20002210 <errno>
    3af4:	557d                	li	a0,-1
    3af6:	8082                	ret

00003af8 <_sbrk>:
_sbrk():
    3af8:	87c18793          	addi	a5,gp,-1924 # 200001ac <heap_end.1518>
    3afc:	439c                	lw	a5,0(a5)
    3afe:	c791                	beqz	a5,3b0a <_sbrk+0x12>
    3b00:	953e                	add	a0,a0,a5
    3b02:	86a1ae23          	sw	a0,-1924(gp) # 200001ac <heap_end.1518>
    3b06:	853e                	mv	a0,a5
    3b08:	8082                	ret
    3b0a:	1fffe797          	auipc	a5,0x1fffe
    3b0e:	70a78793          	addi	a5,a5,1802 # 20002214 <_ebss>
    3b12:	953e                	add	a0,a0,a5
    3b14:	86a1ae23          	sw	a0,-1924(gp) # 200001ac <heap_end.1518>
    3b18:	853e                	mv	a0,a5
    3b1a:	8082                	ret
    3b1c:	06ea                	slli	a3,a3,0x1a
    3b1e:	0000                	unimp
    3b20:	0706                	slli	a4,a4,0x1
    3b22:	0000                	unimp
    3b24:	0728                	addi	a0,sp,904
    3b26:	0000                	unimp
    3b28:	074a                	slli	a4,a4,0x12
    3b2a:	0000                	unimp
    3b2c:	0758                	addi	a4,sp,900
    3b2e:	0000                	unimp
    3b30:	0766                	slli	a4,a4,0x19
    3b32:	0000                	unimp
    3b34:	0788                	addi	a0,sp,960
    3b36:	0000                	unimp
    3b38:	07aa                	slli	a5,a5,0xa
    3b3a:	0000                	unimp
    3b3c:	07be                	slli	a5,a5,0xf
    3b3e:	0000                	unimp
    3b40:	06c4                	addi	s1,sp,836
    3b42:	0000                	unimp
    3b44:	06e0                	addi	s0,sp,844
    3b46:	0000                	unimp
    3b48:	0806                	slli	a6,a6,0x1
    3b4a:	0000                	unimp
    3b4c:	0822                	slli	a6,a6,0x8
    3b4e:	0000                	unimp
    3b50:	0844                	addi	s1,sp,20
    3b52:	0000                	unimp
    3b54:	0866                	slli	a6,a6,0x19
    3b56:	0000                	unimp
    3b58:	0874                	addi	a3,sp,28
    3b5a:	0000                	unimp
    3b5c:	0882                	c.slli64	a7
    3b5e:	0000                	unimp
    3b60:	08a4                	addi	s1,sp,88
    3b62:	0000                	unimp
    3b64:	08c6                	slli	a7,a7,0x11
    3b66:	0000                	unimp
    3b68:	08da                	slli	a7,a7,0x16
    3b6a:	0000                	unimp
    3b6c:	07e0                	addi	s0,sp,972
    3b6e:	0000                	unimp
    3b70:	07fc                	addi	a5,sp,972
    3b72:	0000                	unimp
    3b74:	0ebc                	addi	a5,sp,856
    3b76:	0000                	unimp
    3b78:	0ee2                	slli	t4,t4,0x18
    3b7a:	0000                	unimp
    3b7c:	0edc                	addi	a5,sp,852
    3b7e:	0000                	unimp
    3b80:	0eee                	slli	t4,t4,0x1b
    3b82:	0000                	unimp
    3b84:	0ee8                	addi	a0,sp,860
    3b86:	0000                	unimp
    3b88:	0ed6                	slli	t4,t4,0x15
    3b8a:	0000                	unimp
    3b8c:	0ed0                	addi	a2,sp,852
    3b8e:	0000                	unimp
    3b90:	0eb8                	addi	a4,sp,856
    3b92:	0000                	unimp
    3b94:	0ebc                	addi	a5,sp,856
    3b96:	0000                	unimp
    3b98:	0f24                	addi	s1,sp,920
    3b9a:	0000                	unimp
    3b9c:	0f1e                	slli	t5,t5,0x7
    3b9e:	0000                	unimp
    3ba0:	0f18                	addi	a4,sp,912
    3ba2:	0000                	unimp
    3ba4:	0f12                	slli	t5,t5,0x4
    3ba6:	0000                	unimp
    3ba8:	0f0c                	addi	a1,sp,912
    3baa:	0000                	unimp
    3bac:	0f06                	slli	t5,t5,0x1
    3bae:	0000                	unimp
    3bb0:	0f00                	addi	s0,sp,912
    3bb2:	0000                	unimp
    3bb4:	1048                	addi	a0,sp,36
    3bb6:	0000                	unimp
    3bb8:	0f56                	slli	t5,t5,0x15
    3bba:	0000                	unimp
    3bbc:	0f5e                	slli	t5,t5,0x17
    3bbe:	0000                	unimp
    3bc0:	0f66                	slli	t5,t5,0x19
    3bc2:	0000                	unimp
    3bc4:	0f70                	addi	a2,sp,924
    3bc6:	0000                	unimp
    3bc8:	0f7a                	slli	t5,t5,0x1e
    3bca:	0000                	unimp
    3bcc:	0fca                	slli	t6,t6,0x12
    3bce:	0000                	unimp
    3bd0:	0fd4                	addi	a3,sp,980
    3bd2:	0000                	unimp
    3bd4:	0fe4                	addi	s1,sp,988
    3bd6:	0000                	unimp
    3bd8:	5245                	li	tp,-15
    3bda:	4f52                	lw	t5,20(sp)
    3bdc:	3a52                	fld	fs4,304(sp)
    3bde:	6220                	flw	fs0,64(a2)
    3be0:	6962                	flw	fs2,24(sp)
    3be2:	65645f6f          	jal	t5,49238 <_data_lma+0x446c8>
    3be6:	65646f63          	bltu	s0,s6,4244 <_sbrk+0x74c>
    3bea:	635f 6d6f 616d      	0x616d6d6f635f
    3bf0:	646e                	flw	fs0,216(sp)
    3bf2:	2928                	fld	fa0,80(a0)
    3bf4:	7520                	flw	fs0,104(a0)
    3bf6:	6b6e                	flw	fs6,216(sp)
    3bf8:	6f6e                	flw	ft10,216(sp)
    3bfa:	63206e77          	0x63206e77
    3bfe:	616d6d6f          	jal	s10,da214 <_data_lma+0xd56a4>
    3c02:	646e                	flw	fs0,216(sp)
    3c04:	0a0d                	addi	s4,s4,3
    3c06:	0000                	unimp
    3c08:	5245                	li	tp,-15
    3c0a:	4f52                	lw	t5,20(sp)
    3c0c:	3a52                	fld	fs4,304(sp)
    3c0e:	6220                	flw	fs0,64(a2)
    3c10:	6962                	flw	fs2,24(sp)
    3c12:	65645f6f          	jal	t5,49268 <_data_lma+0x446f8>
    3c16:	65646f63          	bltu	s0,s6,4274 <_sbrk+0x77c>
    3c1a:	635f 6d6f 616d      	0x616d6d6f635f
    3c20:	646e                	flw	fs0,216(sp)
    3c22:	2928                	fld	fa0,80(a0)
    3c24:	7520                	flw	fs0,104(a0)
    3c26:	6b6e                	flw	fs6,216(sp)
    3c28:	6f6e                	flw	ft10,216(sp)
    3c2a:	73206e77          	0x73206e77
    3c2e:	6275                	lui	tp,0x1d
    3c30:	6320                	flw	fs0,64(a4)
    3c32:	616d6d6f          	jal	s10,da248 <_data_lma+0xd56d8>
    3c36:	646e                	flw	fs0,216(sp)
    3c38:	0a0d                	addi	s4,s4,3
    3c3a:	0000                	unimp
    3c3c:	5245                	li	tp,-15
    3c3e:	4f52                	lw	t5,20(sp)
    3c40:	3a52                	fld	fs4,304(sp)
    3c42:	6220                	flw	fs0,64(a2)
    3c44:	6962                	flw	fs2,24(sp)
    3c46:	65645f6f          	jal	t5,4929c <_data_lma+0x4472c>
    3c4a:	65646f63          	bltu	s0,s6,42a8 <_sbrk+0x7b0>
    3c4e:	635f 6d6f 616d      	0x616d6d6f635f
    3c54:	646e                	flw	fs0,216(sp)
    3c56:	2928                	fld	fa0,80(a0)
    3c58:	7320                	flw	fs0,96(a4)
    3c5a:	7274                	flw	fa3,100(a2)
    3c5c:	6e69                	lui	t3,0x1a
    3c5e:	65642067          	0x65642067
    3c62:	69726373          	csrrsi	t1,0x697,4
    3c66:	7470                	flw	fa2,108(s0)
    3c68:	6920726f          	jal	tp,b2fa <_data_lma+0x678a>
    3c6c:	646e                	flw	fs0,216(sp)
    3c6e:	7865                	lui	a6,0xffff9
    3c70:	6f20                	flw	fs0,88(a4)
    3c72:	7475                	lui	s0,0xffffd
    3c74:	6f20                	flw	fs0,88(a4)
    3c76:	2066                	fld	ft0,88(sp)
    3c78:	6172                	flw	ft2,28(sp)
    3c7a:	676e                	flw	fa4,216(sp)
    3c7c:	0d65                	addi	s10,s10,25
    3c7e:	000a                	c.slli	zero,0x2
    3c80:	5245                	li	tp,-15
    3c82:	4f52                	lw	t5,20(sp)
    3c84:	3a52                	fld	fs4,304(sp)
    3c86:	6220                	flw	fs0,64(a2)
    3c88:	6962                	flw	fs2,24(sp)
    3c8a:	6f635f6f          	jal	t5,39380 <_data_lma+0x34810>
    3c8e:	6d6d                	lui	s10,0x1b
    3c90:	6e61                	lui	t3,0x18
    3c92:	5f64                	lw	s1,124(a4)
    3c94:	6168                	flw	fa0,68(a0)
    3c96:	646e                	flw	fs0,216(sp)
    3c98:	656c                	flw	fa1,76(a0)
    3c9a:	2928                	fld	fa0,80(a0)
    3c9c:	7520                	flw	fs0,104(a0)
    3c9e:	6b6e                	flw	fs6,216(sp)
    3ca0:	6f6e                	flw	ft10,216(sp)
    3ca2:	63206e77          	0x63206e77
    3ca6:	616d6d6f          	jal	s10,da2bc <_data_lma+0xd574c>
    3caa:	646e                	flw	fs0,216(sp)
    3cac:	0a0d                	addi	s4,s4,3
    3cae:	0000                	unimp
    3cb0:	5245                	li	tp,-15
    3cb2:	4f52                	lw	t5,20(sp)
    3cb4:	3a52                	fld	fs4,304(sp)
    3cb6:	6220                	flw	fs0,64(a2)
    3cb8:	6962                	flw	fs2,24(sp)
    3cba:	61685f6f          	jal	t5,892d0 <_data_lma+0x84760>
    3cbe:	646e                	flw	fs0,216(sp)
    3cc0:	656c                	flw	fa1,76(a0)
    3cc2:	635f 6d6f 616d      	0x616d6d6f635f
    3cc8:	646e                	flw	fs0,216(sp)
    3cca:	2928                	fld	fa0,80(a0)
    3ccc:	4e20                	lw	s0,88(a2)
    3cce:	7073206f          	j	36bd4 <_data_lma+0x32064>
    3cd2:	6361                	lui	t1,0x18
    3cd4:	2065                	jal	3d7c <_sbrk+0x284>
    3cd6:	656c                	flw	fa1,76(a0)
    3cd8:	7466                	flw	fs0,120(sp)
    3cda:	6920                	flw	fs0,80(a0)
    3cdc:	206e                	fld	ft0,216(sp)
    3cde:	6874                	flw	fa3,84(s0)
    3ce0:	2065                	jal	3d88 <_sbrk+0x290>
    3ce2:	6564                	flw	fs1,76(a0)
    3ce4:	69726373          	csrrsi	t1,0x697,4
    3ce8:	7470                	flw	fa2,108(s0)
    3cea:	7320726f          	jal	tp,b41c <_data_lma+0x68ac>
    3cee:	6f74                	flw	fa3,92(a4)
    3cf0:	6572                	flw	fa0,28(sp)
    3cf2:	0a0d                	addi	s4,s4,3
    3cf4:	0000                	unimp
    3cf6:	0000                	unimp
    3cf8:	5245                	li	tp,-15
    3cfa:	4f52                	lw	t5,20(sp)
    3cfc:	3a52                	fld	fs4,304(sp)
    3cfe:	6220                	flw	fs0,64(a2)
    3d00:	6962                	flw	fs2,24(sp)
    3d02:	61685f6f          	jal	t5,89318 <_data_lma+0x847a8>
    3d06:	646e                	flw	fs0,216(sp)
    3d08:	656c                	flw	fa1,76(a0)
    3d0a:	635f 6d6f 616d      	0x616d6d6f635f
    3d10:	646e                	flw	fs0,216(sp)
    3d12:	2928                	fld	fa0,80(a0)
    3d14:	7320                	flw	fs0,96(a4)
    3d16:	7274                	flw	fa3,100(a2)
    3d18:	6e69                	lui	t3,0x1a
    3d1a:	65642067          	0x65642067
    3d1e:	69726373          	csrrsi	t1,0x697,4
    3d22:	7470                	flw	fa2,108(s0)
    3d24:	6920726f          	jal	tp,b3b6 <_data_lma+0x6846>
    3d28:	646e                	flw	fs0,216(sp)
    3d2a:	7865                	lui	a6,0xffff9
    3d2c:	6f20                	flw	fs0,88(a4)
    3d2e:	7475                	lui	s0,0xffffd
    3d30:	6f20                	flw	fs0,88(a4)
    3d32:	2066                	fld	ft0,88(sp)
    3d34:	6172                	flw	ft2,28(sp)
    3d36:	676e                	flw	fa4,216(sp)
    3d38:	0d65                	addi	s10,s10,25
    3d3a:	000a                	c.slli	zero,0x2
    3d3c:	5245                	li	tp,-15
    3d3e:	4f52                	lw	t5,20(sp)
    3d40:	3a52                	fld	fs4,304(sp)
    3d42:	6220                	flw	fs0,64(a2)
    3d44:	6962                	flw	fs2,24(sp)
    3d46:	61685f6f          	jal	t5,8935c <_data_lma+0x847ec>
    3d4a:	646e                	flw	fs0,216(sp)
    3d4c:	656c                	flw	fa1,76(a0)
    3d4e:	635f 6d6f 616d      	0x616d6d6f635f
    3d54:	646e                	flw	fs0,216(sp)
    3d56:	2928                	fld	fa0,80(a0)
    3d58:	7520                	flw	fs0,104(a0)
    3d5a:	6b6e                	flw	fs6,216(sp)
    3d5c:	6f6e                	flw	ft10,216(sp)
    3d5e:	73206e77          	0x73206e77
    3d62:	6275                	lui	tp,0x1d
    3d64:	6320                	flw	fs0,64(a4)
    3d66:	616d6d6f          	jal	s10,da37c <_data_lma+0xd580c>
    3d6a:	646e                	flw	fs0,216(sp)
    3d6c:	0a0d                	addi	s4,s4,3
    3d6e:	0000                	unimp
    3d70:	138e                	slli	t2,t2,0x23
    3d72:	0000                	unimp
    3d74:	1306                	slli	t1,t1,0x21
    3d76:	0000                	unimp
    3d78:	12c8                	addi	a0,sp,356
    3d7a:	0000                	unimp
    3d7c:	138e                	slli	t2,t2,0x23
    3d7e:	0000                	unimp
    3d80:	1284                	addi	s1,sp,352
    3d82:	0000                	unimp
    3d84:	138e                	slli	t2,t2,0x23
    3d86:	0000                	unimp
    3d88:	127a                	slli	tp,tp,0x3e
    3d8a:	0000                	unimp
    3d8c:	138e                	slli	t2,t2,0x23
    3d8e:	0000                	unimp
    3d90:	12dc                	addi	a5,sp,356
    3d92:	0000                	unimp
    3d94:	138e                	slli	t2,t2,0x23
    3d96:	0000                	unimp
    3d98:	138e                	slli	t2,t2,0x23
    3d9a:	0000                	unimp
    3d9c:	138e                	slli	t2,t2,0x23
    3d9e:	0000                	unimp
    3da0:	138e                	slli	t2,t2,0x23
    3da2:	0000                	unimp
    3da4:	138e                	slli	t2,t2,0x23
    3da6:	0000                	unimp
    3da8:	138e                	slli	t2,t2,0x23
    3daa:	0000                	unimp
    3dac:	138e                	slli	t2,t2,0x23
    3dae:	0000                	unimp
    3db0:	138e                	slli	t2,t2,0x23
    3db2:	0000                	unimp
    3db4:	138e                	slli	t2,t2,0x23
    3db6:	0000                	unimp
    3db8:	138e                	slli	t2,t2,0x23
    3dba:	0000                	unimp
    3dbc:	138e                	slli	t2,t2,0x23
    3dbe:	0000                	unimp
    3dc0:	138e                	slli	t2,t2,0x23
    3dc2:	0000                	unimp
    3dc4:	138e                	slli	t2,t2,0x23
    3dc6:	0000                	unimp
    3dc8:	138e                	slli	t2,t2,0x23
    3dca:	0000                	unimp
    3dcc:	138e                	slli	t2,t2,0x23
    3dce:	0000                	unimp
    3dd0:	138e                	slli	t2,t2,0x23
    3dd2:	0000                	unimp
    3dd4:	138e                	slli	t2,t2,0x23
    3dd6:	0000                	unimp
    3dd8:	138e                	slli	t2,t2,0x23
    3dda:	0000                	unimp
    3ddc:	138e                	slli	t2,t2,0x23
    3dde:	0000                	unimp
    3de0:	138e                	slli	t2,t2,0x23
    3de2:	0000                	unimp
    3de4:	138e                	slli	t2,t2,0x23
    3de6:	0000                	unimp
    3de8:	138e                	slli	t2,t2,0x23
    3dea:	0000                	unimp
    3dec:	138e                	slli	t2,t2,0x23
    3dee:	0000                	unimp
    3df0:	12f0                	addi	a2,sp,364
    3df2:	0000                	unimp
    3df4:	16d4                	addi	a3,sp,868
    3df6:	0000                	unimp
    3df8:	169c                	addi	a5,sp,864
    3dfa:	0000                	unimp
    3dfc:	16a8                	addi	a0,sp,872
    3dfe:	0000                	unimp
    3e00:	170c                	addi	a1,sp,928
    3e02:	0000                	unimp
    3e04:	16a8                	addi	a0,sp,872
    3e06:	0000                	unimp
    3e08:	16a8                	addi	a0,sp,872
    3e0a:	0000                	unimp
    3e0c:	16ea                	slli	a3,a3,0x3a
    3e0e:	0000                	unimp
    3e10:	16a8                	addi	a0,sp,872
    3e12:	0000                	unimp
    3e14:	163e                	slli	a2,a2,0x2f
    3e16:	0000                	unimp
    3e18:	16b2                	slli	a3,a3,0x2c
    3e1a:	0000                	unimp
    3e1c:	1736                	slli	a4,a4,0x2d
    3e1e:	0000                	unimp
    3e20:	5f435243          	fmadd.q	ft4,ft6,fs4,fa1,unknown
    3e24:	5245                	li	tp,-15
    3e26:	0052                	c.slli	zero,0x14
    3e28:	554e                	lw	a0,240(sp)
    3e2a:	5f4d                	li	t5,-13
    3e2c:	494d                	li	s2,19
    3e2e:	495b0053          	0x495b0053
    3e32:	746e                	flw	fs0,248(sp)
    3e34:	7265                	lui	tp,0xffff9
    3e36:	7572                	flw	fa0,60(sp)
    3e38:	7470                	flw	fa2,108(s0)
    3e3a:	4820                	lw	s0,80(s0)
    3e3c:	5d495053          	0x5d495053
    3e40:	2020                	fld	fs0,64(s0)
    3e42:	4520                	lw	s0,72(a0)
    3e44:	7272                	flw	ft4,60(sp)
    3e46:	7420726f          	jal	tp,b588 <_data_lma+0x6a18>
    3e4a:	6172                	flw	ft2,28(sp)
    3e4c:	736e                	flw	ft6,248(sp)
    3e4e:	696d                	lui	s2,0x1b
    3e50:	7474                	flw	fa3,108(s0)
    3e52:	6e69                	lui	t3,0x1a
    3e54:	25203a67          	0x25203a67
    3e58:	000a0d73          	0xa0d73
    3e5c:	746e495b          	0x746e495b
    3e60:	7265                	lui	tp,0xffff9
    3e62:	7572                	flw	fa0,60(sp)
    3e64:	7470                	flw	fa2,108(s0)
    3e66:	4820                	lw	s0,80(s0)
    3e68:	5d495053          	0x5d495053
    3e6c:	2020                	fld	fs0,64(s0)
    3e6e:	4520                	lw	s0,72(a0)
    3e70:	7272                	flw	ft4,60(sp)
    3e72:	7220726f          	jal	tp,b594 <_data_lma+0x6a24>
    3e76:	6365                	lui	t1,0x19
    3e78:	6965                	lui	s2,0x19
    3e7a:	6976                	flw	fs2,92(sp)
    3e7c:	676e                	flw	fa4,216(sp)
    3e7e:	203a                	fld	ft0,392(sp)
    3e80:	7325                	lui	t1,0xfffe9
    3e82:	0a0d                	addi	s4,s4,3
    3e84:	0000                	unimp
    3e86:	0000                	unimp
    3e88:	5245                	li	tp,-15
    3e8a:	4f52                	lw	t5,20(sp)
    3e8c:	3a52                	fld	fs4,304(sp)
    3e8e:	4220                	lw	s0,64(a2)
    3e90:	6f74746f          	jal	s0,4bd86 <_data_lma+0x47216>
    3e94:	206d                	jal	3f3e <_sbrk+0x446>
    3e96:	6f62                	flw	ft10,24(sp)
    3e98:	7261                	lui	tp,0xffff8
    3e9a:	2064                	fld	fs1,192(s0)
    3e9c:	5348                	lw	a0,36(a4)
    3e9e:	4950                	lw	a2,20(a0)
    3ea0:	4820                	lw	s0,80(s0)
    3ea2:	6e61                	lui	t3,0x18
    3ea4:	6c64                	flw	fs1,92(s0)
    3ea6:	7265                	lui	tp,0xffff9
    3ea8:	6320                	flw	fs0,64(a4)
    3eaa:	7275                	lui	tp,0xffffd
    3eac:	6572                	flw	fa0,28(sp)
    3eae:	746e                	flw	fs0,248(sp)
    3eb0:	7320                	flw	fs0,96(a4)
    3eb2:	6574                	flw	fa3,76(a0)
    3eb4:	3a70                	fld	fa2,240(a2)
    3eb6:	2520                	fld	fs0,72(a0)
    3eb8:	0d78                	addi	a4,sp,668
    3eba:	000a                	c.slli	zero,0x2
    3ebc:	5245                	li	tp,-15
    3ebe:	4f52                	lw	t5,20(sp)
    3ec0:	3a52                	fld	fs4,304(sp)
    3ec2:	4820                	lw	s0,80(s0)
    3ec4:	5f495053          	0x5f495053
    3ec8:	5249                	li	tp,-14
    3eca:	4851                	li	a6,20
    3ecc:	6e61                	lui	t3,0x18
    3ece:	6c64                	flw	fs1,92(s0)
    3ed0:	7265                	lui	tp,0xffff9
    3ed2:	2928                	fld	fa0,80(a0)
    3ed4:	7320                	flw	fs0,96(a4)
    3ed6:	63746977          	0x63746977
    3eda:	2068                	fld	fa0,192(s0)
    3edc:	6968                	flw	fa0,84(a0)
    3ede:	7374                	flw	fa3,100(a4)
    3ee0:	6420                	flw	fs0,72(s0)
    3ee2:	6665                	lui	a2,0x19
    3ee4:	7561                	lui	a0,0xffff8
    3ee6:	746c                	flw	fa1,108(s0)
    3ee8:	0a0d                	addi	s4,s4,3
    3eea:	0000                	unimp
    3eec:	6148                	flw	fa0,4(a0)
    3eee:	6472                	flw	fs0,28(sp)
    3ef0:	6146                	flw	ft2,80(sp)
    3ef2:	6c75                	lui	s8,0x1d
    3ef4:	0d74                	addi	a3,sp,668
    3ef6:	000a                	c.slli	zero,0x2
    3ef8:	5320                	lw	s0,96(a4)
    3efa:	3d50                	fld	fa2,184(a0)
    3efc:	7830                	flw	fa2,112(s0)
    3efe:	3025                	jal	3726 <_printf_i+0x214>
    3f00:	5838                	lw	a4,112(s0)
    3f02:	0a0d                	addi	s4,s4,3
    3f04:	0000                	unimp
    3f06:	0000                	unimp
    3f08:	4d20                	lw	s0,88(a0)
    3f0a:	4549                	li	a0,18
    3f0c:	303d                	jal	373a <_printf_i+0x228>
    3f0e:	2578                	fld	fa4,200(a0)
    3f10:	3830                	fld	fa2,112(s0)
    3f12:	0d58                	addi	a4,sp,660
    3f14:	000a                	c.slli	zero,0x2
    3f16:	0000                	unimp
    3f18:	4d20                	lw	s0,88(a0)
    3f1a:	54415453          	0x54415453
    3f1e:	5355                	li	t1,-11
    3f20:	303d                	jal	374e <_printf_i+0x23c>
    3f22:	2578                	fld	fa4,200(a0)
    3f24:	3830                	fld	fa2,112(s0)
    3f26:	0d58                	addi	a4,sp,660
    3f28:	000a                	c.slli	zero,0x2
    3f2a:	0000                	unimp
    3f2c:	4d20                	lw	s0,88(a0)
    3f2e:	53554143          	fmadd.d	ft2,fa0,fs5,fa0,rmm
    3f32:	3d45                	jal	3de2 <_sbrk+0x2ea>
    3f34:	7830                	flw	fa2,112(s0)
    3f36:	3025                	jal	375e <_printf_i+0x24c>
    3f38:	5838                	lw	a4,112(s0)
    3f3a:	0a0d                	addi	s4,s4,3
    3f3c:	0000                	unimp
    3f3e:	0000                	unimp
    3f40:	5f534453          	0x5f534453
    3f44:	5852                	lw	a6,52(sp)
    3f46:	495f 544e 465f      	0x465f544e495f
    3f4c:	474c                	lw	a1,12(a4)
    3f4e:	7c20                	flw	fs0,120(s0)
    3f50:	5320                	lw	s0,96(a4)
    3f52:	5344                	lw	s1,36(a4)
    3f54:	525f 5f58 5245      	0x52455f58525f
    3f5a:	5f52                	lw	t5,52(sp)
    3f5c:	4c46                	lw	s8,80(sp)
    3f5e:	000a0d47          	fmsub.s	fs10,fs4,ft0,ft0,rne
    3f62:	0000                	unimp
    3f64:	5245                	li	tp,-15
    3f66:	4f52                	lw	t5,20(sp)
    3f68:	3a52                	fld	fs4,304(sp)
    3f6a:	5320                	lw	s0,96(a4)
    3f6c:	5245                	li	tp,-15
    3f6e:	4544                	lw	s1,12(a0)
    3f70:	52495f53          	0x52495f53
    3f74:	4851                	li	a6,20
    3f76:	6e61                	lui	t3,0x18
    3f78:	6c64                	flw	fs1,92(s0)
    3f7a:	7265                	lui	tp,0xffff9
    3f7c:	2928                	fld	fa0,80(a0)
    3f7e:	7520                	flw	fs0,104(a0)
    3f80:	6b6e                	flw	fs6,216(sp)
    3f82:	6f6e                	flw	ft10,216(sp)
    3f84:	6d206e77          	0x6d206e77
    3f88:	6761                	lui	a4,0x18
    3f8a:	6369                	lui	t1,0x1a
    3f8c:	6e20                	flw	fs0,88(a2)
    3f8e:	6d75                	lui	s10,0x1d
    3f90:	6562                	flw	fa0,24(sp)
    3f92:	0d72                	slli	s10,s10,0x1c
    3f94:	000a                	c.slli	zero,0x2
    3f96:	0000                	unimp
    3f98:	5245                	li	tp,-15
    3f9a:	4f52                	lw	t5,20(sp)
    3f9c:	3a52                	fld	fs4,304(sp)
    3f9e:	5320                	lw	s0,96(a4)
    3fa0:	5445                	li	s0,-15
    3fa2:	5055                	c.li	zero,-11
    3fa4:	4920                	lw	s0,80(a0)
    3fa6:	746e                	flw	fs0,248(sp)
    3fa8:	7265                	lui	tp,0xffff9
    3faa:	7572                	flw	fa0,60(sp)
    3fac:	7470                	flw	fa2,108(s0)
    3fae:	5520                	lw	s0,104(a0)
    3fb0:	435f4253          	0x435f4253
    3fb4:	454c                	lw	a1,12(a0)
    3fb6:	5241                	li	tp,-16
    3fb8:	465f 4145 5554      	0x55544145465f
    3fbe:	4552                	lw	a0,20(sp)
    3fc0:	6920                	flw	fs0,80(a0)
    3fc2:	766e                	flw	fa2,248(sp)
    3fc4:	6c61                	lui	s8,0x18
    3fc6:	6469                	lui	s0,0x1a
    3fc8:	7220                	flw	fs0,96(a2)
    3fca:	6365                	lui	t1,0x19
    3fcc:	7069                	c.lui	zero,0xffffa
    3fce:	6569                	lui	a0,0x1a
    3fd0:	746e                	flw	fs0,248(sp)
    3fd2:	0000                	unimp
    3fd4:	5245                	li	tp,-15
    3fd6:	4f52                	lw	t5,20(sp)
    3fd8:	3a52                	fld	fs4,304(sp)
    3fda:	5320                	lw	s0,96(a4)
    3fdc:	5445                	li	s0,-15
    3fde:	5055                	c.li	zero,-11
    3fe0:	4920                	lw	s0,80(a0)
    3fe2:	746e                	flw	fs0,248(sp)
    3fe4:	7265                	lui	tp,0xffff9
    3fe6:	7572                	flw	fa0,60(sp)
    3fe8:	7470                	flw	fa2,108(s0)
    3fea:	5520                	lw	s0,104(a0)
    3fec:	535f4253          	0x535f4253
    3ff0:	5445                	li	s0,-15
    3ff2:	465f 4145 5554      	0x55544145465f
    3ff8:	4552                	lw	a0,20(sp)
    3ffa:	2820                	fld	fs0,80(s0)
    3ffc:	6f74                	flw	fa3,92(a4)
    3ffe:	64726177          	0x64726177
    4002:	6420                	flw	fs0,72(s0)
    4004:	7665                	lui	a2,0xffff9
    4006:	6369                	lui	t1,0x1a
    4008:	2965                	jal	44c0 <_sbrk+0x9c8>
    400a:	7520                	flw	fs0,104(a0)
    400c:	696e                	flw	fs2,216(sp)
    400e:	706d                	c.lui	zero,0xffffb
    4010:	656c                	flw	fa1,76(a0)
    4012:	656d                	lui	a0,0x1b
    4014:	746e                	flw	fs0,248(sp)
    4016:	6465                	lui	s0,0x19
    4018:	0000                	unimp
    401a:	0000                	unimp
    401c:	5245                	li	tp,-15
    401e:	4f52                	lw	t5,20(sp)
    4020:	3a52                	fld	fs4,304(sp)
    4022:	5320                	lw	s0,96(a4)
    4024:	5445                	li	s0,-15
    4026:	5055                	c.li	zero,-11
    4028:	4920                	lw	s0,80(a0)
    402a:	746e                	flw	fs0,248(sp)
    402c:	7265                	lui	tp,0xffff9
    402e:	7572                	flw	fa0,60(sp)
    4030:	7470                	flw	fa2,108(s0)
    4032:	5520                	lw	s0,104(a0)
    4034:	535f4253          	0x535f4253
    4038:	5445                	li	s0,-15
    403a:	465f 4145 5554      	0x55544145465f
    4040:	4552                	lw	a0,20(sp)
    4042:	2820                	fld	fs0,80(s0)
    4044:	6f74                	flw	fa3,92(a4)
    4046:	64726177          	0x64726177
    404a:	6920                	flw	fs0,80(a0)
    404c:	746e                	flw	fs0,248(sp)
    404e:	7265                	lui	tp,0xffff9
    4050:	6166                	flw	ft2,88(sp)
    4052:	20296563          	bltu	s2,sp,425c <_sbrk+0x764>
    4056:	6e75                	lui	t3,0x1d
    4058:	6d69                	lui	s10,0x1a
    405a:	6c70                	flw	fa2,92(s0)
    405c:	6d65                	lui	s10,0x19
    405e:	6e65                	lui	t3,0x19
    4060:	6574                	flw	fa3,76(a0)
    4062:	0064                	addi	s1,sp,12
    4064:	5245                	li	tp,-15
    4066:	4f52                	lw	t5,20(sp)
    4068:	3a52                	fld	fs4,304(sp)
    406a:	5320                	lw	s0,96(a4)
    406c:	5445                	li	s0,-15
    406e:	5055                	c.li	zero,-11
    4070:	4920                	lw	s0,80(a0)
    4072:	746e                	flw	fs0,248(sp)
    4074:	7265                	lui	tp,0xffff9
    4076:	7572                	flw	fa0,60(sp)
    4078:	7470                	flw	fa2,108(s0)
    407a:	5520                	lw	s0,104(a0)
    407c:	535f4253          	0x535f4253
    4080:	5445                	li	s0,-15
    4082:	465f 4145 5554      	0x55544145465f
    4088:	4552                	lw	a0,20(sp)
    408a:	2820                	fld	fs0,80(s0)
    408c:	6f74                	flw	fa3,92(a4)
    408e:	64726177          	0x64726177
    4092:	6520                	flw	fs0,72(a0)
    4094:	646e                	flw	fs0,216(sp)
    4096:	6f70                	flw	fa2,92(a4)
    4098:	6e69                	lui	t3,0x1a
    409a:	2974                	fld	fa3,208(a0)
    409c:	7520                	flw	fs0,104(a0)
    409e:	696e                	flw	fs2,216(sp)
    40a0:	706d                	c.lui	zero,0xffffb
    40a2:	656c                	flw	fa1,76(a0)
    40a4:	656d                	lui	a0,0x1b
    40a6:	746e                	flw	fs0,248(sp)
    40a8:	6465                	lui	s0,0x19
    40aa:	0000                	unimp
    40ac:	5245                	li	tp,-15
    40ae:	4f52                	lw	t5,20(sp)
    40b0:	3a52                	fld	fs4,304(sp)
    40b2:	5320                	lw	s0,96(a4)
    40b4:	5445                	li	s0,-15
    40b6:	5055                	c.li	zero,-11
    40b8:	4920                	lw	s0,80(a0)
    40ba:	746e                	flw	fs0,248(sp)
    40bc:	7265                	lui	tp,0xffff9
    40be:	7572                	flw	fa0,60(sp)
    40c0:	7470                	flw	fa2,108(s0)
    40c2:	5520                	lw	s0,104(a0)
    40c4:	535f4253          	0x535f4253
    40c8:	5445                	li	s0,-15
    40ca:	465f 4145 5554      	0x55544145465f
    40d0:	4552                	lw	a0,20(sp)
    40d2:	6920                	flw	fs0,80(a0)
    40d4:	766e                	flw	fa2,248(sp)
    40d6:	6c61                	lui	s8,0x18
    40d8:	6469                	lui	s0,0x1a
    40da:	7220                	flw	fs0,96(a2)
    40dc:	6365                	lui	t1,0x19
    40de:	7069                	c.lui	zero,0xffffa
    40e0:	6569                	lui	a0,0x1a
    40e2:	746e                	flw	fs0,248(sp)
    40e4:	0000                	unimp
    40e6:	0000                	unimp
    40e8:	6544                	flw	fs1,12(a0)
    40ea:	6976                	flw	fs2,92(sp)
    40ec:	69206563          	bltu	zero,s2,4776 <_sbrk+0xc7e>
    40f0:	75732073          	csrs	0x757,t1
    40f4:	7070                	flw	fa2,100(s0)
    40f6:	6574726f          	jal	tp,4bf4c <_data_lma+0x473dc>
    40fa:	2064                	fld	fs1,192(s0)
    40fc:	7962                	flw	fs2,56(sp)
    40fe:	5420                	lw	s0,104(s0)
    4100:	5c20456f          	jal	a0,86c2 <_data_lma+0x3b52>
    4104:	0a0d2f6f          	jal	t5,d61a4 <_data_lma+0xd1634>
    4108:	0000                	unimp
    410a:	0000                	unimp
    410c:	5245                	li	tp,-15
    410e:	4f52                	lw	t5,20(sp)
    4110:	3a52                	fld	fs4,304(sp)
    4112:	5520                	lw	s0,104(a0)
    4114:	53484253          	0x53484253
    4118:	495f 5152 6148      	0x61485152495f
    411e:	646e                	flw	fs0,216(sp)
    4120:	656c                	flw	fa1,76(a0)
    4122:	2872                	fld	fa6,280(sp)
    4124:	2029                	jal	412e <_sbrk+0x636>
    4126:	6e65                	lui	t3,0x19
    4128:	7064                	flw	fs1,100(s0)
    412a:	746e696f          	jal	s2,ea870 <_data_lma+0xe5d00>
    412e:	7220                	flw	fs0,96(a2)
    4130:	7165                	addi	sp,sp,-400
    4132:	6575                	lui	a0,0x1d
    4134:	64657473          	csrrci	s0,0x646,10
    4138:	2820                	fld	fs0,80(s0)
    413a:	6425                	lui	s0,0x9
    413c:	2029                	jal	4146 <_sbrk+0x64e>
    413e:	6168                	flw	fa0,68(a0)
    4140:	6f6e2073          	csrs	0x6f6,t3
    4144:	6820                	flw	fs0,80(s0)
    4146:	6e61                	lui	t3,0x18
    4148:	6c64                	flw	fs1,92(s0)
    414a:	7265                	lui	tp,0xffff9
    414c:	6120                	flw	fs0,64(a0)
    414e:	636f7373          	csrrci	t1,0x636,30
    4152:	6169                	addi	sp,sp,208
    4154:	6574                	flw	fa3,76(a0)
    4156:	0d64                	addi	s1,sp,668
    4158:	000a                	c.slli	zero,0x2
    415a:	0000                	unimp
    415c:	6e49                	lui	t3,0x12
    415e:	7469                	lui	s0,0xffffa
    4160:	6120                	flw	fs0,64(a0)
    4162:	6c6c                	flw	fa1,92(s0)
    4164:	6420                	flw	fs0,72(s0)
    4166:	21656e6f          	jal	t3,5a37c <_data_lma+0x5580c>
    416a:	0a0d                	addi	s4,s4,3
    416c:	0000                	unimp
    416e:	0000                	unimp
    4170:	1d4a                	slli	s10,s10,0x32
    4172:	0000                	unimp
    4174:	1cb0                	addi	a2,sp,632
    4176:	0000                	unimp
    4178:	1cba                	slli	s9,s9,0x2e
    417a:	0000                	unimp
    417c:	1cc4                	addi	s1,sp,628
    417e:	0000                	unimp
    4180:	1cce                	slli	s9,s9,0x33
    4182:	0000                	unimp
    4184:	1cd8                	addi	a4,sp,628
    4186:	0000                	unimp
    4188:	1ce2                	slli	s9,s9,0x38
    418a:	0000                	unimp
    418c:	1cec                	addi	a1,sp,636
    418e:	0000                	unimp
    4190:	1d4a                	slli	s10,s10,0x32
    4192:	0000                	unimp
    4194:	1d4a                	slli	s10,s10,0x32
    4196:	0000                	unimp
    4198:	1d4a                	slli	s10,s10,0x32
    419a:	0000                	unimp
    419c:	1d4a                	slli	s10,s10,0x32
    419e:	0000                	unimp
    41a0:	1d4a                	slli	s10,s10,0x32
    41a2:	0000                	unimp
    41a4:	1d4a                	slli	s10,s10,0x32
    41a6:	0000                	unimp
    41a8:	1d4a                	slli	s10,s10,0x32
    41aa:	0000                	unimp
    41ac:	1d4a                	slli	s10,s10,0x32
    41ae:	0000                	unimp
    41b0:	1d4a                	slli	s10,s10,0x32
    41b2:	0000                	unimp
    41b4:	1d4a                	slli	s10,s10,0x32
    41b6:	0000                	unimp
    41b8:	1d4a                	slli	s10,s10,0x32
    41ba:	0000                	unimp
    41bc:	1d4a                	slli	s10,s10,0x32
    41be:	0000                	unimp
    41c0:	1d4a                	slli	s10,s10,0x32
    41c2:	0000                	unimp
    41c4:	1d4a                	slli	s10,s10,0x32
    41c6:	0000                	unimp
    41c8:	1d4a                	slli	s10,s10,0x32
    41ca:	0000                	unimp
    41cc:	1d4a                	slli	s10,s10,0x32
    41ce:	0000                	unimp
    41d0:	1d4a                	slli	s10,s10,0x32
    41d2:	0000                	unimp
    41d4:	1d4a                	slli	s10,s10,0x32
    41d6:	0000                	unimp
    41d8:	1d4a                	slli	s10,s10,0x32
    41da:	0000                	unimp
    41dc:	1d4a                	slli	s10,s10,0x32
    41de:	0000                	unimp
    41e0:	1d4a                	slli	s10,s10,0x32
    41e2:	0000                	unimp
    41e4:	1d4a                	slli	s10,s10,0x32
    41e6:	0000                	unimp
    41e8:	1d4a                	slli	s10,s10,0x32
    41ea:	0000                	unimp
    41ec:	1d4a                	slli	s10,s10,0x32
    41ee:	0000                	unimp
    41f0:	1d4a                	slli	s10,s10,0x32
    41f2:	0000                	unimp
    41f4:	1d4a                	slli	s10,s10,0x32
    41f6:	0000                	unimp
    41f8:	1d4a                	slli	s10,s10,0x32
    41fa:	0000                	unimp
    41fc:	1d4a                	slli	s10,s10,0x32
    41fe:	0000                	unimp
    4200:	1d4a                	slli	s10,s10,0x32
    4202:	0000                	unimp
    4204:	1d4a                	slli	s10,s10,0x32
    4206:	0000                	unimp
    4208:	1d4a                	slli	s10,s10,0x32
    420a:	0000                	unimp
    420c:	1d4a                	slli	s10,s10,0x32
    420e:	0000                	unimp
    4210:	1d4a                	slli	s10,s10,0x32
    4212:	0000                	unimp
    4214:	1d4a                	slli	s10,s10,0x32
    4216:	0000                	unimp
    4218:	1d4a                	slli	s10,s10,0x32
    421a:	0000                	unimp
    421c:	1d4a                	slli	s10,s10,0x32
    421e:	0000                	unimp
    4220:	1d4a                	slli	s10,s10,0x32
    4222:	0000                	unimp
    4224:	1d4a                	slli	s10,s10,0x32
    4226:	0000                	unimp
    4228:	1d4a                	slli	s10,s10,0x32
    422a:	0000                	unimp
    422c:	1d4a                	slli	s10,s10,0x32
    422e:	0000                	unimp
    4230:	1d4a                	slli	s10,s10,0x32
    4232:	0000                	unimp
    4234:	1d4a                	slli	s10,s10,0x32
    4236:	0000                	unimp
    4238:	1d4a                	slli	s10,s10,0x32
    423a:	0000                	unimp
    423c:	1d4a                	slli	s10,s10,0x32
    423e:	0000                	unimp
    4240:	1d4a                	slli	s10,s10,0x32
    4242:	0000                	unimp
    4244:	1d4a                	slli	s10,s10,0x32
    4246:	0000                	unimp
    4248:	1d4a                	slli	s10,s10,0x32
    424a:	0000                	unimp
    424c:	1d4a                	slli	s10,s10,0x32
    424e:	0000                	unimp
    4250:	1d4a                	slli	s10,s10,0x32
    4252:	0000                	unimp
    4254:	1d4a                	slli	s10,s10,0x32
    4256:	0000                	unimp
    4258:	1d4a                	slli	s10,s10,0x32
    425a:	0000                	unimp
    425c:	1d4a                	slli	s10,s10,0x32
    425e:	0000                	unimp
    4260:	1d4a                	slli	s10,s10,0x32
    4262:	0000                	unimp
    4264:	1d4a                	slli	s10,s10,0x32
    4266:	0000                	unimp
    4268:	1d4a                	slli	s10,s10,0x32
    426a:	0000                	unimp
    426c:	1d4a                	slli	s10,s10,0x32
    426e:	0000                	unimp
    4270:	1d4a                	slli	s10,s10,0x32
    4272:	0000                	unimp
    4274:	1d4a                	slli	s10,s10,0x32
    4276:	0000                	unimp
    4278:	1d4a                	slli	s10,s10,0x32
    427a:	0000                	unimp
    427c:	1d4a                	slli	s10,s10,0x32
    427e:	0000                	unimp
    4280:	1d4a                	slli	s10,s10,0x32
    4282:	0000                	unimp
    4284:	1d4a                	slli	s10,s10,0x32
    4286:	0000                	unimp
    4288:	1d4a                	slli	s10,s10,0x32
    428a:	0000                	unimp
    428c:	1d4a                	slli	s10,s10,0x32
    428e:	0000                	unimp
    4290:	1d4a                	slli	s10,s10,0x32
    4292:	0000                	unimp
    4294:	1d4a                	slli	s10,s10,0x32
    4296:	0000                	unimp
    4298:	1d4a                	slli	s10,s10,0x32
    429a:	0000                	unimp
    429c:	1d4a                	slli	s10,s10,0x32
    429e:	0000                	unimp
    42a0:	1d4a                	slli	s10,s10,0x32
    42a2:	0000                	unimp
    42a4:	1d4a                	slli	s10,s10,0x32
    42a6:	0000                	unimp
    42a8:	1d4a                	slli	s10,s10,0x32
    42aa:	0000                	unimp
    42ac:	1d4a                	slli	s10,s10,0x32
    42ae:	0000                	unimp
    42b0:	1d4a                	slli	s10,s10,0x32
    42b2:	0000                	unimp
    42b4:	1d4a                	slli	s10,s10,0x32
    42b6:	0000                	unimp
    42b8:	1d4a                	slli	s10,s10,0x32
    42ba:	0000                	unimp
    42bc:	1d4a                	slli	s10,s10,0x32
    42be:	0000                	unimp
    42c0:	1d4a                	slli	s10,s10,0x32
    42c2:	0000                	unimp
    42c4:	1d4a                	slli	s10,s10,0x32
    42c6:	0000                	unimp
    42c8:	1d4a                	slli	s10,s10,0x32
    42ca:	0000                	unimp
    42cc:	1d4a                	slli	s10,s10,0x32
    42ce:	0000                	unimp
    42d0:	1d4a                	slli	s10,s10,0x32
    42d2:	0000                	unimp
    42d4:	1d4a                	slli	s10,s10,0x32
    42d6:	0000                	unimp
    42d8:	1d4a                	slli	s10,s10,0x32
    42da:	0000                	unimp
    42dc:	1d4a                	slli	s10,s10,0x32
    42de:	0000                	unimp
    42e0:	1d4a                	slli	s10,s10,0x32
    42e2:	0000                	unimp
    42e4:	1d4a                	slli	s10,s10,0x32
    42e6:	0000                	unimp
    42e8:	1d4a                	slli	s10,s10,0x32
    42ea:	0000                	unimp
    42ec:	1d4a                	slli	s10,s10,0x32
    42ee:	0000                	unimp
    42f0:	1d4a                	slli	s10,s10,0x32
    42f2:	0000                	unimp
    42f4:	1d4a                	slli	s10,s10,0x32
    42f6:	0000                	unimp
    42f8:	1d4a                	slli	s10,s10,0x32
    42fa:	0000                	unimp
    42fc:	1d4a                	slli	s10,s10,0x32
    42fe:	0000                	unimp
    4300:	1d4a                	slli	s10,s10,0x32
    4302:	0000                	unimp
    4304:	1d4a                	slli	s10,s10,0x32
    4306:	0000                	unimp
    4308:	1d4a                	slli	s10,s10,0x32
    430a:	0000                	unimp
    430c:	1d4a                	slli	s10,s10,0x32
    430e:	0000                	unimp
    4310:	1d4a                	slli	s10,s10,0x32
    4312:	0000                	unimp
    4314:	1d4a                	slli	s10,s10,0x32
    4316:	0000                	unimp
    4318:	1d4a                	slli	s10,s10,0x32
    431a:	0000                	unimp
    431c:	1d4a                	slli	s10,s10,0x32
    431e:	0000                	unimp
    4320:	1d4a                	slli	s10,s10,0x32
    4322:	0000                	unimp
    4324:	1d4a                	slli	s10,s10,0x32
    4326:	0000                	unimp
    4328:	1d4a                	slli	s10,s10,0x32
    432a:	0000                	unimp
    432c:	1d4a                	slli	s10,s10,0x32
    432e:	0000                	unimp
    4330:	1d4a                	slli	s10,s10,0x32
    4332:	0000                	unimp
    4334:	1d4a                	slli	s10,s10,0x32
    4336:	0000                	unimp
    4338:	1d4a                	slli	s10,s10,0x32
    433a:	0000                	unimp
    433c:	1d4a                	slli	s10,s10,0x32
    433e:	0000                	unimp
    4340:	1d4a                	slli	s10,s10,0x32
    4342:	0000                	unimp
    4344:	1d4a                	slli	s10,s10,0x32
    4346:	0000                	unimp
    4348:	1d4a                	slli	s10,s10,0x32
    434a:	0000                	unimp
    434c:	1d4a                	slli	s10,s10,0x32
    434e:	0000                	unimp
    4350:	1d4a                	slli	s10,s10,0x32
    4352:	0000                	unimp
    4354:	1d4a                	slli	s10,s10,0x32
    4356:	0000                	unimp
    4358:	1d4a                	slli	s10,s10,0x32
    435a:	0000                	unimp
    435c:	1d4a                	slli	s10,s10,0x32
    435e:	0000                	unimp
    4360:	1d4a                	slli	s10,s10,0x32
    4362:	0000                	unimp
    4364:	1d4a                	slli	s10,s10,0x32
    4366:	0000                	unimp
    4368:	1d4a                	slli	s10,s10,0x32
    436a:	0000                	unimp
    436c:	1d4a                	slli	s10,s10,0x32
    436e:	0000                	unimp
    4370:	1d4a                	slli	s10,s10,0x32
    4372:	0000                	unimp
    4374:	1cf6                	slli	s9,s9,0x3d
    4376:	0000                	unimp
    4378:	1d04                	addi	s1,sp,688
    437a:	0000                	unimp
    437c:	1d12                	slli	s10,s10,0x24
    437e:	0000                	unimp
    4380:	1d20                	addi	s0,sp,696
    4382:	0000                	unimp
    4384:	1d2e                	slli	s10,s10,0x2b
    4386:	0000                	unimp
    4388:	1d3c                	addi	a5,sp,696
    438a:	0000                	unimp
    438c:	1ca2                	slli	s9,s9,0x28
    438e:	0000                	unimp
    4390:	1e30                	addi	a2,sp,824
    4392:	0000                	unimp
    4394:	1d7c                	addi	a5,sp,700
    4396:	0000                	unimp
    4398:	1d88                	addi	a0,sp,752
    439a:	0000                	unimp
    439c:	1d94                	addi	a3,sp,752
    439e:	0000                	unimp
    43a0:	1da0                	addi	s0,sp,760
    43a2:	0000                	unimp
    43a4:	1dac                	addi	a1,sp,760
    43a6:	0000                	unimp
    43a8:	1db8                	addi	a4,sp,760
    43aa:	0000                	unimp
    43ac:	1dc4                	addi	s1,sp,756
    43ae:	0000                	unimp
    43b0:	1e30                	addi	a2,sp,824
    43b2:	0000                	unimp
    43b4:	1e30                	addi	a2,sp,824
    43b6:	0000                	unimp
    43b8:	1e30                	addi	a2,sp,824
    43ba:	0000                	unimp
    43bc:	1e30                	addi	a2,sp,824
    43be:	0000                	unimp
    43c0:	1e30                	addi	a2,sp,824
    43c2:	0000                	unimp
    43c4:	1e30                	addi	a2,sp,824
    43c6:	0000                	unimp
    43c8:	1e30                	addi	a2,sp,824
    43ca:	0000                	unimp
    43cc:	1e30                	addi	a2,sp,824
    43ce:	0000                	unimp
    43d0:	1e30                	addi	a2,sp,824
    43d2:	0000                	unimp
    43d4:	1e30                	addi	a2,sp,824
    43d6:	0000                	unimp
    43d8:	1e30                	addi	a2,sp,824
    43da:	0000                	unimp
    43dc:	1e30                	addi	a2,sp,824
    43de:	0000                	unimp
    43e0:	1e30                	addi	a2,sp,824
    43e2:	0000                	unimp
    43e4:	1e30                	addi	a2,sp,824
    43e6:	0000                	unimp
    43e8:	1e30                	addi	a2,sp,824
    43ea:	0000                	unimp
    43ec:	1e30                	addi	a2,sp,824
    43ee:	0000                	unimp
    43f0:	1e30                	addi	a2,sp,824
    43f2:	0000                	unimp
    43f4:	1e30                	addi	a2,sp,824
    43f6:	0000                	unimp
    43f8:	1e30                	addi	a2,sp,824
    43fa:	0000                	unimp
    43fc:	1e30                	addi	a2,sp,824
    43fe:	0000                	unimp
    4400:	1e30                	addi	a2,sp,824
    4402:	0000                	unimp
    4404:	1e30                	addi	a2,sp,824
    4406:	0000                	unimp
    4408:	1e30                	addi	a2,sp,824
    440a:	0000                	unimp
    440c:	1e30                	addi	a2,sp,824
    440e:	0000                	unimp
    4410:	1e30                	addi	a2,sp,824
    4412:	0000                	unimp
    4414:	1e30                	addi	a2,sp,824
    4416:	0000                	unimp
    4418:	1e30                	addi	a2,sp,824
    441a:	0000                	unimp
    441c:	1e30                	addi	a2,sp,824
    441e:	0000                	unimp
    4420:	1e30                	addi	a2,sp,824
    4422:	0000                	unimp
    4424:	1e30                	addi	a2,sp,824
    4426:	0000                	unimp
    4428:	1e30                	addi	a2,sp,824
    442a:	0000                	unimp
    442c:	1e30                	addi	a2,sp,824
    442e:	0000                	unimp
    4430:	1e30                	addi	a2,sp,824
    4432:	0000                	unimp
    4434:	1e30                	addi	a2,sp,824
    4436:	0000                	unimp
    4438:	1e30                	addi	a2,sp,824
    443a:	0000                	unimp
    443c:	1e30                	addi	a2,sp,824
    443e:	0000                	unimp
    4440:	1e30                	addi	a2,sp,824
    4442:	0000                	unimp
    4444:	1e30                	addi	a2,sp,824
    4446:	0000                	unimp
    4448:	1e30                	addi	a2,sp,824
    444a:	0000                	unimp
    444c:	1e30                	addi	a2,sp,824
    444e:	0000                	unimp
    4450:	1e30                	addi	a2,sp,824
    4452:	0000                	unimp
    4454:	1e30                	addi	a2,sp,824
    4456:	0000                	unimp
    4458:	1e30                	addi	a2,sp,824
    445a:	0000                	unimp
    445c:	1e30                	addi	a2,sp,824
    445e:	0000                	unimp
    4460:	1e30                	addi	a2,sp,824
    4462:	0000                	unimp
    4464:	1e30                	addi	a2,sp,824
    4466:	0000                	unimp
    4468:	1e30                	addi	a2,sp,824
    446a:	0000                	unimp
    446c:	1e30                	addi	a2,sp,824
    446e:	0000                	unimp
    4470:	1e30                	addi	a2,sp,824
    4472:	0000                	unimp
    4474:	1e30                	addi	a2,sp,824
    4476:	0000                	unimp
    4478:	1e30                	addi	a2,sp,824
    447a:	0000                	unimp
    447c:	1e30                	addi	a2,sp,824
    447e:	0000                	unimp
    4480:	1e30                	addi	a2,sp,824
    4482:	0000                	unimp
    4484:	1e30                	addi	a2,sp,824
    4486:	0000                	unimp
    4488:	1e30                	addi	a2,sp,824
    448a:	0000                	unimp
    448c:	1e30                	addi	a2,sp,824
    448e:	0000                	unimp
    4490:	1e30                	addi	a2,sp,824
    4492:	0000                	unimp
    4494:	1e30                	addi	a2,sp,824
    4496:	0000                	unimp
    4498:	1e30                	addi	a2,sp,824
    449a:	0000                	unimp
    449c:	1e30                	addi	a2,sp,824
    449e:	0000                	unimp
    44a0:	1e30                	addi	a2,sp,824
    44a2:	0000                	unimp
    44a4:	1e30                	addi	a2,sp,824
    44a6:	0000                	unimp
    44a8:	1e30                	addi	a2,sp,824
    44aa:	0000                	unimp
    44ac:	1e30                	addi	a2,sp,824
    44ae:	0000                	unimp
    44b0:	1e30                	addi	a2,sp,824
    44b2:	0000                	unimp
    44b4:	1e30                	addi	a2,sp,824
    44b6:	0000                	unimp
    44b8:	1e30                	addi	a2,sp,824
    44ba:	0000                	unimp
    44bc:	1e30                	addi	a2,sp,824
    44be:	0000                	unimp
    44c0:	1e30                	addi	a2,sp,824
    44c2:	0000                	unimp
    44c4:	1e30                	addi	a2,sp,824
    44c6:	0000                	unimp
    44c8:	1e30                	addi	a2,sp,824
    44ca:	0000                	unimp
    44cc:	1e30                	addi	a2,sp,824
    44ce:	0000                	unimp
    44d0:	1e30                	addi	a2,sp,824
    44d2:	0000                	unimp
    44d4:	1e30                	addi	a2,sp,824
    44d6:	0000                	unimp
    44d8:	1e30                	addi	a2,sp,824
    44da:	0000                	unimp
    44dc:	1e30                	addi	a2,sp,824
    44de:	0000                	unimp
    44e0:	1e30                	addi	a2,sp,824
    44e2:	0000                	unimp
    44e4:	1e30                	addi	a2,sp,824
    44e6:	0000                	unimp
    44e8:	1e30                	addi	a2,sp,824
    44ea:	0000                	unimp
    44ec:	1e30                	addi	a2,sp,824
    44ee:	0000                	unimp
    44f0:	1e30                	addi	a2,sp,824
    44f2:	0000                	unimp
    44f4:	1e30                	addi	a2,sp,824
    44f6:	0000                	unimp
    44f8:	1e30                	addi	a2,sp,824
    44fa:	0000                	unimp
    44fc:	1e30                	addi	a2,sp,824
    44fe:	0000                	unimp
    4500:	1e30                	addi	a2,sp,824
    4502:	0000                	unimp
    4504:	1e30                	addi	a2,sp,824
    4506:	0000                	unimp
    4508:	1e30                	addi	a2,sp,824
    450a:	0000                	unimp
    450c:	1e30                	addi	a2,sp,824
    450e:	0000                	unimp
    4510:	1e30                	addi	a2,sp,824
    4512:	0000                	unimp
    4514:	1e30                	addi	a2,sp,824
    4516:	0000                	unimp
    4518:	1e30                	addi	a2,sp,824
    451a:	0000                	unimp
    451c:	1e30                	addi	a2,sp,824
    451e:	0000                	unimp
    4520:	1e30                	addi	a2,sp,824
    4522:	0000                	unimp
    4524:	1e30                	addi	a2,sp,824
    4526:	0000                	unimp
    4528:	1e30                	addi	a2,sp,824
    452a:	0000                	unimp
    452c:	1e30                	addi	a2,sp,824
    452e:	0000                	unimp
    4530:	1e30                	addi	a2,sp,824
    4532:	0000                	unimp
    4534:	1e30                	addi	a2,sp,824
    4536:	0000                	unimp
    4538:	1e30                	addi	a2,sp,824
    453a:	0000                	unimp
    453c:	1e30                	addi	a2,sp,824
    453e:	0000                	unimp
    4540:	1e30                	addi	a2,sp,824
    4542:	0000                	unimp
    4544:	1e30                	addi	a2,sp,824
    4546:	0000                	unimp
    4548:	1e30                	addi	a2,sp,824
    454a:	0000                	unimp
    454c:	1e30                	addi	a2,sp,824
    454e:	0000                	unimp
    4550:	1e30                	addi	a2,sp,824
    4552:	0000                	unimp
    4554:	1e30                	addi	a2,sp,824
    4556:	0000                	unimp
    4558:	1e30                	addi	a2,sp,824
    455a:	0000                	unimp
    455c:	1e30                	addi	a2,sp,824
    455e:	0000                	unimp
    4560:	1e30                	addi	a2,sp,824
    4562:	0000                	unimp
    4564:	1e30                	addi	a2,sp,824
    4566:	0000                	unimp
    4568:	1e30                	addi	a2,sp,824
    456a:	0000                	unimp
    456c:	1e30                	addi	a2,sp,824
    456e:	0000                	unimp
    4570:	1e30                	addi	a2,sp,824
    4572:	0000                	unimp
    4574:	1e30                	addi	a2,sp,824
    4576:	0000                	unimp
    4578:	1e30                	addi	a2,sp,824
    457a:	0000                	unimp
    457c:	1e30                	addi	a2,sp,824
    457e:	0000                	unimp
    4580:	1e30                	addi	a2,sp,824
    4582:	0000                	unimp
    4584:	1e30                	addi	a2,sp,824
    4586:	0000                	unimp
    4588:	1e30                	addi	a2,sp,824
    458a:	0000                	unimp
    458c:	1e30                	addi	a2,sp,824
    458e:	0000                	unimp
    4590:	1e30                	addi	a2,sp,824
    4592:	0000                	unimp
    4594:	1dd0                	addi	a2,sp,756
    4596:	0000                	unimp
    4598:	1de0                	addi	s0,sp,764
    459a:	0000                	unimp
    459c:	1df0                	addi	a2,sp,764
    459e:	0000                	unimp
    45a0:	1e00                	addi	s0,sp,816
    45a2:	0000                	unimp
    45a4:	1e10                	addi	a2,sp,816
    45a6:	0000                	unimp
    45a8:	1e20                	addi	s0,sp,824
    45aa:	0000                	unimp
    45ac:	1d6c                	addi	a1,sp,700
    45ae:	0000                	unimp
    45b0:	1f4e                	slli	t5,t5,0x33
    45b2:	0000                	unimp
    45b4:	1e64                	addi	s1,sp,828
    45b6:	0000                	unimp
    45b8:	1e76                	slli	t3,t3,0x3d
    45ba:	0000                	unimp
    45bc:	1e88                	addi	a0,sp,880
    45be:	0000                	unimp
    45c0:	1e9a                	slli	t4,t4,0x26
    45c2:	0000                	unimp
    45c4:	1eac                	addi	a1,sp,888
    45c6:	0000                	unimp
    45c8:	1ebe                	slli	t4,t4,0x2f
    45ca:	0000                	unimp
    45cc:	1ed0                	addi	a2,sp,884
    45ce:	0000                	unimp
    45d0:	1f4e                	slli	t5,t5,0x33
    45d2:	0000                	unimp
    45d4:	1f4e                	slli	t5,t5,0x33
    45d6:	0000                	unimp
    45d8:	1f4e                	slli	t5,t5,0x33
    45da:	0000                	unimp
    45dc:	1f4e                	slli	t5,t5,0x33
    45de:	0000                	unimp
    45e0:	1f4e                	slli	t5,t5,0x33
    45e2:	0000                	unimp
    45e4:	1f4e                	slli	t5,t5,0x33
    45e6:	0000                	unimp
    45e8:	1f4e                	slli	t5,t5,0x33
    45ea:	0000                	unimp
    45ec:	1f4e                	slli	t5,t5,0x33
    45ee:	0000                	unimp
    45f0:	1f4e                	slli	t5,t5,0x33
    45f2:	0000                	unimp
    45f4:	1f4e                	slli	t5,t5,0x33
    45f6:	0000                	unimp
    45f8:	1f4e                	slli	t5,t5,0x33
    45fa:	0000                	unimp
    45fc:	1f4e                	slli	t5,t5,0x33
    45fe:	0000                	unimp
    4600:	1f4e                	slli	t5,t5,0x33
    4602:	0000                	unimp
    4604:	1f4e                	slli	t5,t5,0x33
    4606:	0000                	unimp
    4608:	1f4e                	slli	t5,t5,0x33
    460a:	0000                	unimp
    460c:	1f4e                	slli	t5,t5,0x33
    460e:	0000                	unimp
    4610:	1f4e                	slli	t5,t5,0x33
    4612:	0000                	unimp
    4614:	1f4e                	slli	t5,t5,0x33
    4616:	0000                	unimp
    4618:	1f4e                	slli	t5,t5,0x33
    461a:	0000                	unimp
    461c:	1f4e                	slli	t5,t5,0x33
    461e:	0000                	unimp
    4620:	1f4e                	slli	t5,t5,0x33
    4622:	0000                	unimp
    4624:	1f4e                	slli	t5,t5,0x33
    4626:	0000                	unimp
    4628:	1f4e                	slli	t5,t5,0x33
    462a:	0000                	unimp
    462c:	1f4e                	slli	t5,t5,0x33
    462e:	0000                	unimp
    4630:	1f4e                	slli	t5,t5,0x33
    4632:	0000                	unimp
    4634:	1f4e                	slli	t5,t5,0x33
    4636:	0000                	unimp
    4638:	1f4e                	slli	t5,t5,0x33
    463a:	0000                	unimp
    463c:	1f4e                	slli	t5,t5,0x33
    463e:	0000                	unimp
    4640:	1f4e                	slli	t5,t5,0x33
    4642:	0000                	unimp
    4644:	1f4e                	slli	t5,t5,0x33
    4646:	0000                	unimp
    4648:	1f4e                	slli	t5,t5,0x33
    464a:	0000                	unimp
    464c:	1f4e                	slli	t5,t5,0x33
    464e:	0000                	unimp
    4650:	1f4e                	slli	t5,t5,0x33
    4652:	0000                	unimp
    4654:	1f4e                	slli	t5,t5,0x33
    4656:	0000                	unimp
    4658:	1f4e                	slli	t5,t5,0x33
    465a:	0000                	unimp
    465c:	1f4e                	slli	t5,t5,0x33
    465e:	0000                	unimp
    4660:	1f4e                	slli	t5,t5,0x33
    4662:	0000                	unimp
    4664:	1f4e                	slli	t5,t5,0x33
    4666:	0000                	unimp
    4668:	1f4e                	slli	t5,t5,0x33
    466a:	0000                	unimp
    466c:	1f4e                	slli	t5,t5,0x33
    466e:	0000                	unimp
    4670:	1f4e                	slli	t5,t5,0x33
    4672:	0000                	unimp
    4674:	1f4e                	slli	t5,t5,0x33
    4676:	0000                	unimp
    4678:	1f4e                	slli	t5,t5,0x33
    467a:	0000                	unimp
    467c:	1f4e                	slli	t5,t5,0x33
    467e:	0000                	unimp
    4680:	1f4e                	slli	t5,t5,0x33
    4682:	0000                	unimp
    4684:	1f4e                	slli	t5,t5,0x33
    4686:	0000                	unimp
    4688:	1f4e                	slli	t5,t5,0x33
    468a:	0000                	unimp
    468c:	1f4e                	slli	t5,t5,0x33
    468e:	0000                	unimp
    4690:	1f4e                	slli	t5,t5,0x33
    4692:	0000                	unimp
    4694:	1f4e                	slli	t5,t5,0x33
    4696:	0000                	unimp
    4698:	1f4e                	slli	t5,t5,0x33
    469a:	0000                	unimp
    469c:	1f4e                	slli	t5,t5,0x33
    469e:	0000                	unimp
    46a0:	1f4e                	slli	t5,t5,0x33
    46a2:	0000                	unimp
    46a4:	1f4e                	slli	t5,t5,0x33
    46a6:	0000                	unimp
    46a8:	1f4e                	slli	t5,t5,0x33
    46aa:	0000                	unimp
    46ac:	1f4e                	slli	t5,t5,0x33
    46ae:	0000                	unimp
    46b0:	1f4e                	slli	t5,t5,0x33
    46b2:	0000                	unimp
    46b4:	1f4e                	slli	t5,t5,0x33
    46b6:	0000                	unimp
    46b8:	1f4e                	slli	t5,t5,0x33
    46ba:	0000                	unimp
    46bc:	1f4e                	slli	t5,t5,0x33
    46be:	0000                	unimp
    46c0:	1f4e                	slli	t5,t5,0x33
    46c2:	0000                	unimp
    46c4:	1f4e                	slli	t5,t5,0x33
    46c6:	0000                	unimp
    46c8:	1f4e                	slli	t5,t5,0x33
    46ca:	0000                	unimp
    46cc:	1f4e                	slli	t5,t5,0x33
    46ce:	0000                	unimp
    46d0:	1f4e                	slli	t5,t5,0x33
    46d2:	0000                	unimp
    46d4:	1f4e                	slli	t5,t5,0x33
    46d6:	0000                	unimp
    46d8:	1f4e                	slli	t5,t5,0x33
    46da:	0000                	unimp
    46dc:	1f4e                	slli	t5,t5,0x33
    46de:	0000                	unimp
    46e0:	1f4e                	slli	t5,t5,0x33
    46e2:	0000                	unimp
    46e4:	1f4e                	slli	t5,t5,0x33
    46e6:	0000                	unimp
    46e8:	1f4e                	slli	t5,t5,0x33
    46ea:	0000                	unimp
    46ec:	1f4e                	slli	t5,t5,0x33
    46ee:	0000                	unimp
    46f0:	1f4e                	slli	t5,t5,0x33
    46f2:	0000                	unimp
    46f4:	1f4e                	slli	t5,t5,0x33
    46f6:	0000                	unimp
    46f8:	1f4e                	slli	t5,t5,0x33
    46fa:	0000                	unimp
    46fc:	1f4e                	slli	t5,t5,0x33
    46fe:	0000                	unimp
    4700:	1f4e                	slli	t5,t5,0x33
    4702:	0000                	unimp
    4704:	1f4e                	slli	t5,t5,0x33
    4706:	0000                	unimp
    4708:	1f4e                	slli	t5,t5,0x33
    470a:	0000                	unimp
    470c:	1f4e                	slli	t5,t5,0x33
    470e:	0000                	unimp
    4710:	1f4e                	slli	t5,t5,0x33
    4712:	0000                	unimp
    4714:	1f4e                	slli	t5,t5,0x33
    4716:	0000                	unimp
    4718:	1f4e                	slli	t5,t5,0x33
    471a:	0000                	unimp
    471c:	1f4e                	slli	t5,t5,0x33
    471e:	0000                	unimp
    4720:	1f4e                	slli	t5,t5,0x33
    4722:	0000                	unimp
    4724:	1f4e                	slli	t5,t5,0x33
    4726:	0000                	unimp
    4728:	1f4e                	slli	t5,t5,0x33
    472a:	0000                	unimp
    472c:	1f4e                	slli	t5,t5,0x33
    472e:	0000                	unimp
    4730:	1f4e                	slli	t5,t5,0x33
    4732:	0000                	unimp
    4734:	1f4e                	slli	t5,t5,0x33
    4736:	0000                	unimp
    4738:	1f4e                	slli	t5,t5,0x33
    473a:	0000                	unimp
    473c:	1f4e                	slli	t5,t5,0x33
    473e:	0000                	unimp
    4740:	1f4e                	slli	t5,t5,0x33
    4742:	0000                	unimp
    4744:	1f4e                	slli	t5,t5,0x33
    4746:	0000                	unimp
    4748:	1f4e                	slli	t5,t5,0x33
    474a:	0000                	unimp
    474c:	1f4e                	slli	t5,t5,0x33
    474e:	0000                	unimp
    4750:	1f4e                	slli	t5,t5,0x33
    4752:	0000                	unimp
    4754:	1f4e                	slli	t5,t5,0x33
    4756:	0000                	unimp
    4758:	1f4e                	slli	t5,t5,0x33
    475a:	0000                	unimp
    475c:	1f4e                	slli	t5,t5,0x33
    475e:	0000                	unimp
    4760:	1f4e                	slli	t5,t5,0x33
    4762:	0000                	unimp
    4764:	1f4e                	slli	t5,t5,0x33
    4766:	0000                	unimp
    4768:	1f4e                	slli	t5,t5,0x33
    476a:	0000                	unimp
    476c:	1f4e                	slli	t5,t5,0x33
    476e:	0000                	unimp
    4770:	1f4e                	slli	t5,t5,0x33
    4772:	0000                	unimp
    4774:	1f4e                	slli	t5,t5,0x33
    4776:	0000                	unimp
    4778:	1f4e                	slli	t5,t5,0x33
    477a:	0000                	unimp
    477c:	1f4e                	slli	t5,t5,0x33
    477e:	0000                	unimp
    4780:	1f4e                	slli	t5,t5,0x33
    4782:	0000                	unimp
    4784:	1f4e                	slli	t5,t5,0x33
    4786:	0000                	unimp
    4788:	1f4e                	slli	t5,t5,0x33
    478a:	0000                	unimp
    478c:	1f4e                	slli	t5,t5,0x33
    478e:	0000                	unimp
    4790:	1f4e                	slli	t5,t5,0x33
    4792:	0000                	unimp
    4794:	1f4e                	slli	t5,t5,0x33
    4796:	0000                	unimp
    4798:	1f4e                	slli	t5,t5,0x33
    479a:	0000                	unimp
    479c:	1f4e                	slli	t5,t5,0x33
    479e:	0000                	unimp
    47a0:	1f4e                	slli	t5,t5,0x33
    47a2:	0000                	unimp
    47a4:	1f4e                	slli	t5,t5,0x33
    47a6:	0000                	unimp
    47a8:	1f4e                	slli	t5,t5,0x33
    47aa:	0000                	unimp
    47ac:	1f4e                	slli	t5,t5,0x33
    47ae:	0000                	unimp
    47b0:	1f4e                	slli	t5,t5,0x33
    47b2:	0000                	unimp
    47b4:	1ee2                	slli	t4,t4,0x38
    47b6:	0000                	unimp
    47b8:	1ef4                	addi	a3,sp,892
    47ba:	0000                	unimp
    47bc:	1f06                	slli	t5,t5,0x21
    47be:	0000                	unimp
    47c0:	1f18                	addi	a4,sp,944
    47c2:	0000                	unimp
    47c4:	1f2a                	slli	t5,t5,0x2a
    47c6:	0000                	unimp
    47c8:	1f3c                	addi	a5,sp,952
    47ca:	0000                	unimp
    47cc:	1e52                	slli	t3,t3,0x34
    47ce:	0000                	unimp
    47d0:	1fa8                	addi	a0,sp,1016
    47d2:	0000                	unimp
    47d4:	1f98                	addi	a4,sp,1008
    47d6:	0000                	unimp
    47d8:	1f86                	slli	t6,t6,0x21
    47da:	0000                	unimp
    47dc:	1f78                	addi	a4,sp,956
    47de:	0000                	unimp
    47e0:	1f84                	addi	s1,sp,1008
    47e2:	0000                	unimp
    47e4:	1f84                	addi	s1,sp,1008
    47e6:	0000                	unimp
    47e8:	1fa8                	addi	a0,sp,1016
    47ea:	0000                	unimp
    47ec:	1fa8                	addi	a0,sp,1016
    47ee:	0000                	unimp
    47f0:	1fa8                	addi	a0,sp,1016
    47f2:	0000                	unimp
    47f4:	1fa8                	addi	a0,sp,1016
    47f6:	0000                	unimp
    47f8:	1fa8                	addi	a0,sp,1016
    47fa:	0000                	unimp
    47fc:	1fa8                	addi	a0,sp,1016
    47fe:	0000                	unimp
    4800:	1fa8                	addi	a0,sp,1016
    4802:	0000                	unimp
    4804:	1fa8                	addi	a0,sp,1016
    4806:	0000                	unimp
    4808:	1fa8                	addi	a0,sp,1016
    480a:	0000                	unimp
    480c:	1fa8                	addi	a0,sp,1016
    480e:	0000                	unimp
    4810:	1fa8                	addi	a0,sp,1016
    4812:	0000                	unimp
    4814:	1fa8                	addi	a0,sp,1016
    4816:	0000                	unimp
    4818:	1fa8                	addi	a0,sp,1016
    481a:	0000                	unimp
    481c:	1fa8                	addi	a0,sp,1016
    481e:	0000                	unimp
    4820:	1fa8                	addi	a0,sp,1016
    4822:	0000                	unimp
    4824:	1fa8                	addi	a0,sp,1016
    4826:	0000                	unimp
    4828:	1fa8                	addi	a0,sp,1016
    482a:	0000                	unimp
    482c:	1fa8                	addi	a0,sp,1016
    482e:	0000                	unimp
    4830:	1fa8                	addi	a0,sp,1016
    4832:	0000                	unimp
    4834:	1fa8                	addi	a0,sp,1016
    4836:	0000                	unimp
    4838:	1fa8                	addi	a0,sp,1016
    483a:	0000                	unimp
    483c:	1fa8                	addi	a0,sp,1016
    483e:	0000                	unimp
    4840:	1fa8                	addi	a0,sp,1016
    4842:	0000                	unimp
    4844:	1fa8                	addi	a0,sp,1016
    4846:	0000                	unimp
    4848:	1fa8                	addi	a0,sp,1016
    484a:	0000                	unimp
    484c:	1fa8                	addi	a0,sp,1016
    484e:	0000                	unimp
    4850:	1fa8                	addi	a0,sp,1016
    4852:	0000                	unimp
    4854:	1f84                	addi	s1,sp,1008
    4856:	0000                	unimp
    4858:	1f84                	addi	s1,sp,1008
    485a:	0000                	unimp
    485c:	5245                	li	tp,-15
    485e:	4f52                	lw	t5,20(sp)
    4860:	3a52                	fld	fs4,304(sp)
    4862:	6520                	flw	fs0,72(a0)
    4864:	646e                	flw	fs0,216(sp)
    4866:	6f70                	flw	fa2,92(a4)
    4868:	6e69                	lui	t3,0x1a
    486a:	5f74                	lw	a3,124(a4)
    486c:	61656c63          	bltu	a0,s6,4e84 <_data_lma+0x314>
    4870:	2872                	fld	fa6,280(sp)
    4872:	2029                	jal	487c <_sbrk+0xd84>
    4874:	6e69                	lui	t3,0x1a
    4876:	6176                	flw	ft2,92(sp)
    4878:	696c                	flw	fa1,84(a0)
    487a:	2064                	fld	fs1,192(s0)
    487c:	7261                	lui	tp,0xffff8
    487e:	656d7567          	0x656d7567
    4882:	746e                	flw	fs0,248(sp)
    4884:	0000                	unimp
    4886:	0000                	unimp
    4888:	5245                	li	tp,-15
    488a:	4f52                	lw	t5,20(sp)
    488c:	3a52                	fld	fs4,304(sp)
    488e:	6520                	flw	fs0,72(a0)
    4890:	646e                	flw	fs0,216(sp)
    4892:	6f70                	flw	fa2,92(a4)
    4894:	6e69                	lui	t3,0x1a
    4896:	5f74                	lw	a3,124(a4)
    4898:	6168                	flw	fa0,68(a0)
    489a:	746c                	flw	fa1,108(s0)
    489c:	2928                	fld	fa0,80(a0)
    489e:	6920                	flw	fs0,80(a0)
    48a0:	766e                	flw	fa2,248(sp)
    48a2:	6c61                	lui	s8,0x18
    48a4:	6469                	lui	s0,0x1a
    48a6:	6120                	flw	fs0,64(a0)
    48a8:	6772                	flw	fa4,28(sp)
    48aa:	6d75                	lui	s10,0x1d
    48ac:	6e65                	lui	t3,0x19
    48ae:	0074                	addi	a3,sp,12
    48b0:	5245                	li	tp,-15
    48b2:	4f52                	lw	t5,20(sp)
    48b4:	3a52                	fld	fs4,304(sp)
    48b6:	6520                	flw	fs0,72(a0)
    48b8:	3070                	fld	fa2,224(s0)
    48ba:	745f 6172 736e      	0x736e6172745f
    48c0:	76696563          	bltu	s2,t1,502a <_data_lma+0x4ba>
    48c4:	5f65                	li	t5,-7
    48c6:	6e61                	lui	t3,0x18
    48c8:	5f64                	lw	s1,124(a4)
    48ca:	7075                	c.lui	zero,0xffffd
    48cc:	6164                	flw	fs1,68(a0)
    48ce:	6574                	flw	fa3,76(a0)
    48d0:	2928                	fld	fa0,80(a0)
    48d2:	6920                	flw	fs0,80(a0)
    48d4:	766e                	flw	fa2,248(sp)
    48d6:	6c61                	lui	s8,0x18
    48d8:	6469                	lui	s0,0x1a
    48da:	7520                	flw	fs0,104(a0)
    48dc:	7369                	lui	t1,0xffffa
    48de:	6f54                	flw	fa3,28(a4)
    48e0:	006e656b          	0x6e656b
    48e4:	5245                	li	tp,-15
    48e6:	4f52                	lw	t5,20(sp)
    48e8:	3a52                	fld	fs4,304(sp)
    48ea:	6620                	flw	fs0,72(a2)
    48ec:	6c69                	lui	s8,0x1a
    48ee:	5f6c                	lw	a1,124(a4)
    48f0:	7562                	flw	fa0,56(sp)
    48f2:	6666                	flw	fa2,88(sp)
    48f4:	7265                	lui	tp,0xffff9
    48f6:	775f 7469 5f68      	0x5f687469775f
    48fc:	6564                	flw	fs1,76(a0)
    48fe:	69726373          	csrrsi	t1,0x697,4
    4902:	7470                	flw	fa2,108(s0)
    4904:	2928726f          	jal	tp,8bb96 <_data_lma+0x87026>
    4908:	6920                	flw	fs0,80(a0)
    490a:	766e                	flw	fa2,248(sp)
    490c:	6c61                	lui	s8,0x18
    490e:	6469                	lui	s0,0x1a
    4910:	6420                	flw	fs0,72(s0)
    4912:	7365                	lui	t1,0xffff9
    4914:	70697263          	bgeu	s2,t1,5018 <_data_lma+0x4a8>
    4918:	6f74                	flw	fa3,92(a4)
    491a:	2072                	fld	ft0,280(sp)
    491c:	6572                	flw	fa0,28(sp)
    491e:	7571                	lui	a0,0xffffc
    4920:	7365                	lui	t1,0xffff9
    4922:	6574                	flw	fa3,76(a0)
    4924:	0064                	addi	s1,sp,12
    4926:	0000                	unimp
    4928:	5245                	li	tp,-15
    492a:	4f52                	lw	t5,20(sp)
    492c:	3a52                	fld	fs4,304(sp)
    492e:	7520                	flw	fs0,104(a0)
    4930:	30326273          	csrrsi	tp,mideleg,4
    4934:	6c5f 676f 2928      	0x2928676f6c5f
    493a:	6320                	flw	fs0,64(a4)
    493c:	6e61                	lui	t3,0x18
    493e:	6f6e                	flw	ft10,216(sp)
    4940:	2074                	fld	fa3,192(s0)
    4942:	6f6c                	flw	fa1,92(a4)
    4944:	6e6f2067          	0x6e6f2067
    4948:	6720                	flw	fs0,72(a4)
    494a:	7669                	lui	a2,0xffffa
    494c:	6e65                	lui	t3,0x19
    494e:	6520                	flw	fs0,72(a0)
    4950:	646e                	flw	fs0,216(sp)
    4952:	6f70                	flw	fa2,92(a4)
    4954:	6e69                	lui	t3,0x1a
    4956:	2074                	fld	fa3,192(s0)
    4958:	2528                	fld	fa0,72(a0)
    495a:	2978                	fld	fa4,208(a0)
    495c:	0a0d                	addi	s4,s4,3
    495e:	0000                	unimp
    4960:	5245                	li	tp,-15
    4962:	4f52                	lw	t5,20(sp)
    4964:	3a52                	fld	fs4,304(sp)
    4966:	7520                	flw	fs0,104(a0)
    4968:	30326273          	csrrsi	tp,mideleg,4
    496c:	6c5f 676f 2928      	0x2928676f6c5f
    4972:	6220                	flw	fs0,64(a2)
    4974:	6675                	lui	a2,0x1d
    4976:	6566                	flw	fa0,88(sp)
    4978:	2072                	fld	ft0,280(sp)
    497a:	6c61                	lui	s8,0x18
    497c:	6572                	flw	fa0,28(sp)
    497e:	6461                	lui	s0,0x18
    4980:	2079                	jal	4a0e <_sbrk+0xf16>
    4982:	6966                	flw	fs2,88(sp)
    4984:	6c6c                	flw	fa1,92(s0)
    4986:	6465                	lui	s0,0x19
    4988:	0021                	c.nop	8
    498a:	0000                	unimp
    498c:	2424                	fld	fs1,72(s0)
    498e:	0000                	unimp
    4990:	2282                	fld	ft5,0(sp)
    4992:	0000                	unimp
    4994:	22a4                	fld	fs1,64(a3)
    4996:	0000                	unimp
    4998:	22c6                	fld	ft5,80(sp)
    499a:	0000                	unimp
    499c:	22e8                	fld	fa0,192(a3)
    499e:	0000                	unimp
    49a0:	230a                	fld	ft6,128(sp)
    49a2:	0000                	unimp
    49a4:	232c                	fld	fa1,64(a4)
    49a6:	0000                	unimp
    49a8:	234e                	fld	ft6,208(sp)
    49aa:	0000                	unimp
    49ac:	2430                	fld	fa2,72(s0)
    49ae:	0000                	unimp
    49b0:	2370                	fld	fa2,192(a4)
    49b2:	0000                	unimp
    49b4:	238e                	fld	ft7,192(sp)
    49b6:	0000                	unimp
    49b8:	23ac                	fld	fa1,64(a5)
    49ba:	0000                	unimp
    49bc:	23ca                	fld	ft7,144(sp)
    49be:	0000                	unimp
    49c0:	23e8                	fld	fa0,192(a5)
    49c2:	0000                	unimp
    49c4:	2406                	fld	fs0,64(sp)
    49c6:	0000                	unimp
    49c8:	2264                	fld	fs1,192(a2)
    49ca:	0000                	unimp
    49cc:	5245                	li	tp,-15
    49ce:	4f52                	lw	t5,20(sp)
    49d0:	3a52                	fld	fs4,304(sp)
    49d2:	6520                	flw	fs0,72(a0)
    49d4:	3170                	fld	fa2,224(a0)
    49d6:	745f 6172 736e      	0x736e6172745f
    49dc:	76696563          	bltu	s2,t1,5146 <_data_lma+0x5d6>
    49e0:	5f65                	li	t5,-7
    49e2:	6e61                	lui	t3,0x18
    49e4:	5f64                	lw	s1,124(a4)
    49e6:	7075                	c.lui	zero,0xffffd
    49e8:	6164                	flw	fs1,68(a0)
    49ea:	6574                	flw	fa3,76(a0)
    49ec:	6420                	flw	fs0,72(s0)
    49ee:	6665                	lui	a2,0x19
    49f0:	7561                	lui	a0,0xffff8
    49f2:	746c                	flw	fa1,108(s0)
    49f4:	0021                	c.nop	8
    49f6:	0000                	unimp
    49f8:	5245                	li	tp,-15
    49fa:	4f52                	lw	t5,20(sp)
    49fc:	3a52                	fld	fs4,304(sp)
    49fe:	6520                	flw	fs0,72(a0)
    4a00:	3670                	fld	fa2,232(a2)
    4a02:	745f 6172 736e      	0x736e6172745f
    4a08:	696d                	lui	s2,0x1b
    4a0a:	5f74                	lw	a3,124(a4)
    4a0c:	6e61                	lui	t3,0x18
    4a0e:	5f64                	lw	s1,124(a4)
    4a10:	7075                	c.lui	zero,0xffffd
    4a12:	6164                	flw	fs1,68(a0)
    4a14:	6574                	flw	fa3,76(a0)
    4a16:	6420                	flw	fs0,72(s0)
    4a18:	6665                	lui	a2,0x19
    4a1a:	7561                	lui	a0,0xffff8
    4a1c:	746c                	flw	fa1,108(s0)
    4a1e:	0021                	c.nop	8
    4a20:	5245                	li	tp,-15
    4a22:	4f52                	lw	t5,20(sp)
    4a24:	3a52                	fld	fs4,304(sp)
    4a26:	6520                	flw	fs0,72(a0)
    4a28:	3770                	fld	fa2,232(a4)
    4a2a:	745f 6172 736e      	0x736e6172745f
    4a30:	696d                	lui	s2,0x1b
    4a32:	5f74                	lw	a3,124(a4)
    4a34:	6e61                	lui	t3,0x18
    4a36:	5f64                	lw	s1,124(a4)
    4a38:	7075                	c.lui	zero,0xffffd
    4a3a:	6164                	flw	fs1,68(a0)
    4a3c:	6574                	flw	fa3,76(a0)
    4a3e:	6420                	flw	fs0,72(s0)
    4a40:	6665                	lui	a2,0x19
    4a42:	7561                	lui	a0,0xffff8
    4a44:	746c                	flw	fa1,108(s0)
    4a46:	0021                	c.nop	8
    4a48:	5245                	li	tp,-15
    4a4a:	4f52                	lw	t5,20(sp)
    4a4c:	3a52                	fld	fs4,304(sp)
    4a4e:	6520                	flw	fs0,72(a0)
    4a50:	5870                	lw	a2,116(s0)
    4a52:	685f 6e61 6c64      	0x6c646e61685f
    4a58:	7265                	lui	tp,0xffff9
    4a5a:	745f 656f 2928      	0x2928656f745f
    4a60:	6920                	flw	fs0,80(a0)
    4a62:	766e                	flw	fa2,248(sp)
    4a64:	6c61                	lui	s8,0x18
    4a66:	6469                	lui	s0,0x1a
    4a68:	6520                	flw	fs0,72(a0)
    4a6a:	646e                	flw	fs0,216(sp)
    4a6c:	6f70                	flw	fa2,92(a4)
    4a6e:	6e69                	lui	t3,0x1a
    4a70:	2074                	fld	fa3,192(s0)
    4a72:	4f28                	lw	a0,88(a4)
    4a74:	5455                	li	s0,-11
    4a76:	0d29                	addi	s10,s10,10
    4a78:	000a                	c.slli	zero,0x2
    4a7a:	0000                	unimp
    4a7c:	5245                	li	tp,-15
    4a7e:	4f52                	lw	t5,20(sp)
    4a80:	3a52                	fld	fs4,304(sp)
    4a82:	6520                	flw	fs0,72(a0)
    4a84:	5870                	lw	a2,116(s0)
    4a86:	685f 6e61 6c64      	0x6c646e61685f
    4a8c:	7265                	lui	tp,0xffff9
    4a8e:	745f 656f 2928      	0x2928656f745f
    4a94:	6920                	flw	fs0,80(a0)
    4a96:	766e                	flw	fa2,248(sp)
    4a98:	6c61                	lui	s8,0x18
    4a9a:	6469                	lui	s0,0x1a
    4a9c:	6520                	flw	fs0,72(a0)
    4a9e:	646e                	flw	fs0,216(sp)
    4aa0:	6f70                	flw	fa2,92(a4)
    4aa2:	6e69                	lui	t3,0x1a
    4aa4:	2074                	fld	fa3,192(s0)
    4aa6:	4928                	lw	a0,80(a0)
    4aa8:	294e                	fld	fs2,208(sp)
    4aaa:	0a0d                	addi	s4,s4,3
    4aac:	0000                	unimp
    4aae:	0000                	unimp
    4ab0:	5245                	li	tp,-15
    4ab2:	4f52                	lw	t5,20(sp)
    4ab4:	3a52                	fld	fs4,304(sp)
    4ab6:	6520                	flw	fs0,72(a0)
    4ab8:	5870                	lw	a2,116(s0)
    4aba:	685f 6e61 6c64      	0x6c646e61685f
    4ac0:	7265                	lui	tp,0xffff9
    4ac2:	745f 656f 2928      	0x2928656f745f
    4ac8:	6420                	flw	fs0,72(s0)
    4aca:	6665                	lui	a2,0x19
    4acc:	7561                	lui	a0,0xffff8
    4ace:	746c                	flw	fa1,108(s0)
    4ad0:	0d21                	addi	s10,s10,8
    4ad2:	000a                	c.slli	zero,0x2

00004ad4 <__sf_fake_stderr>:
	...

00004af4 <__sf_fake_stdin>:
	...

00004b14 <__sf_fake_stdout>:
	...
    4b34:	2d23 2b30 0020 0000 6c68 004c 6665 4567     #-0+ ...hlL.efgE
    4b44:	4746 0000 3130 3332 3534 3736 3938 4241     FG..0123456789AB
    4b54:	4443 4645 0000 0000 3130 3332 3534 3736     CDEF....01234567
    4b64:	3938 6261 6463 6665 0000 0000               89abcdef....
